
Odometry.elf:     file format elf32-littlearm

Sections:
Idx Name          Size      VMA       LMA       File off  Algn
  0 .isr_vector   000000c0  08000000  08000000  00010000  2**0
                  CONTENTS, ALLOC, LOAD, READONLY, DATA
  1 .text         00002e24  080000c0  080000c0  000100c0  2**2
                  CONTENTS, ALLOC, LOAD, READONLY, CODE
  2 .rodata       000000fc  08002ee4  08002ee4  00012ee4  2**2
                  CONTENTS, ALLOC, LOAD, READONLY, DATA
  3 .ARM.extab    00000000  08002fe0  08002fe0  0002000c  2**0
                  CONTENTS
  4 .ARM          00000000  08002fe0  08002fe0  0002000c  2**0
                  CONTENTS
  5 .preinit_array 00000000  08002fe0  08002fe0  0002000c  2**0
                  CONTENTS, ALLOC, LOAD, DATA
  6 .init_array   00000008  08002fe0  08002fe0  00012fe0  2**2
                  CONTENTS, ALLOC, LOAD, DATA
  7 .fini_array   00000004  08002fe8  08002fe8  00012fe8  2**2
                  CONTENTS, ALLOC, LOAD, DATA
  8 .data         0000000c  20000000  08002fec  00020000  2**2
                  CONTENTS, ALLOC, LOAD, DATA
  9 .bss          00000174  2000000c  08002ff8  0002000c  2**2
                  ALLOC
 10 ._user_heap_stack 00000600  20000180  08002ff8  00020180  2**0
                  ALLOC
 11 .ARM.attributes 00000028  00000000  00000000  0002000c  2**0
                  CONTENTS, READONLY
 12 .comment      00000050  00000000  00000000  00020034  2**0
                  CONTENTS, READONLY
 13 .debug_frame  0000015c  00000000  00000000  00020084  2**2
                  CONTENTS, READONLY, DEBUGGING, OCTETS

Disassembly of section .text:

080000c0 <__do_global_dtors_aux>:
 80000c0:	b510      	push	{r4, lr}
 80000c2:	4c06      	ldr	r4, [pc, #24]	; (80000dc <__do_global_dtors_aux+0x1c>)
 80000c4:	7823      	ldrb	r3, [r4, #0]
 80000c6:	2b00      	cmp	r3, #0
 80000c8:	d107      	bne.n	80000da <__do_global_dtors_aux+0x1a>
 80000ca:	4b05      	ldr	r3, [pc, #20]	; (80000e0 <__do_global_dtors_aux+0x20>)
 80000cc:	2b00      	cmp	r3, #0
 80000ce:	d002      	beq.n	80000d6 <__do_global_dtors_aux+0x16>
 80000d0:	4804      	ldr	r0, [pc, #16]	; (80000e4 <__do_global_dtors_aux+0x24>)
 80000d2:	e000      	b.n	80000d6 <__do_global_dtors_aux+0x16>
 80000d4:	bf00      	nop
 80000d6:	2301      	movs	r3, #1
 80000d8:	7023      	strb	r3, [r4, #0]
 80000da:	bd10      	pop	{r4, pc}
 80000dc:	2000000c 	.word	0x2000000c
 80000e0:	00000000 	.word	0x00000000
 80000e4:	08002ecc 	.word	0x08002ecc

080000e8 <frame_dummy>:
 80000e8:	4b04      	ldr	r3, [pc, #16]	; (80000fc <frame_dummy+0x14>)
 80000ea:	b510      	push	{r4, lr}
 80000ec:	2b00      	cmp	r3, #0
 80000ee:	d003      	beq.n	80000f8 <frame_dummy+0x10>
 80000f0:	4903      	ldr	r1, [pc, #12]	; (8000100 <frame_dummy+0x18>)
 80000f2:	4804      	ldr	r0, [pc, #16]	; (8000104 <frame_dummy+0x1c>)
 80000f4:	e000      	b.n	80000f8 <frame_dummy+0x10>
 80000f6:	bf00      	nop
 80000f8:	bd10      	pop	{r4, pc}
 80000fa:	46c0      	nop			; (mov r8, r8)
 80000fc:	00000000 	.word	0x00000000
 8000100:	20000010 	.word	0x20000010
 8000104:	08002ecc 	.word	0x08002ecc

08000108 <__gnu_thumb1_case_sqi>:
 8000108:	b402      	push	{r1}
 800010a:	4671      	mov	r1, lr
 800010c:	0849      	lsrs	r1, r1, #1
 800010e:	0049      	lsls	r1, r1, #1
 8000110:	5609      	ldrsb	r1, [r1, r0]
 8000112:	0049      	lsls	r1, r1, #1
 8000114:	448e      	add	lr, r1
 8000116:	bc02      	pop	{r1}
 8000118:	4770      	bx	lr
 800011a:	46c0      	nop			; (mov r8, r8)

0800011c <__gnu_thumb1_case_uqi>:
 800011c:	b402      	push	{r1}
 800011e:	4671      	mov	r1, lr
 8000120:	0849      	lsrs	r1, r1, #1
 8000122:	0049      	lsls	r1, r1, #1
 8000124:	5c09      	ldrb	r1, [r1, r0]
 8000126:	0049      	lsls	r1, r1, #1
 8000128:	448e      	add	lr, r1
 800012a:	bc02      	pop	{r1}
 800012c:	4770      	bx	lr
 800012e:	46c0      	nop			; (mov r8, r8)

08000130 <__udivsi3>:
 8000130:	2200      	movs	r2, #0
 8000132:	0843      	lsrs	r3, r0, #1
 8000134:	428b      	cmp	r3, r1
 8000136:	d374      	bcc.n	8000222 <__udivsi3+0xf2>
 8000138:	0903      	lsrs	r3, r0, #4
 800013a:	428b      	cmp	r3, r1
 800013c:	d35f      	bcc.n	80001fe <__udivsi3+0xce>
 800013e:	0a03      	lsrs	r3, r0, #8
 8000140:	428b      	cmp	r3, r1
 8000142:	d344      	bcc.n	80001ce <__udivsi3+0x9e>
 8000144:	0b03      	lsrs	r3, r0, #12
 8000146:	428b      	cmp	r3, r1
 8000148:	d328      	bcc.n	800019c <__udivsi3+0x6c>
 800014a:	0c03      	lsrs	r3, r0, #16
 800014c:	428b      	cmp	r3, r1
 800014e:	d30d      	bcc.n	800016c <__udivsi3+0x3c>
 8000150:	22ff      	movs	r2, #255	; 0xff
 8000152:	0209      	lsls	r1, r1, #8
 8000154:	ba12      	rev	r2, r2
 8000156:	0c03      	lsrs	r3, r0, #16
 8000158:	428b      	cmp	r3, r1
 800015a:	d302      	bcc.n	8000162 <__udivsi3+0x32>
 800015c:	1212      	asrs	r2, r2, #8
 800015e:	0209      	lsls	r1, r1, #8
 8000160:	d065      	beq.n	800022e <__udivsi3+0xfe>
 8000162:	0b03      	lsrs	r3, r0, #12
 8000164:	428b      	cmp	r3, r1
 8000166:	d319      	bcc.n	800019c <__udivsi3+0x6c>
 8000168:	e000      	b.n	800016c <__udivsi3+0x3c>
 800016a:	0a09      	lsrs	r1, r1, #8
 800016c:	0bc3      	lsrs	r3, r0, #15
 800016e:	428b      	cmp	r3, r1
 8000170:	d301      	bcc.n	8000176 <__udivsi3+0x46>
 8000172:	03cb      	lsls	r3, r1, #15
 8000174:	1ac0      	subs	r0, r0, r3
 8000176:	4152      	adcs	r2, r2
 8000178:	0b83      	lsrs	r3, r0, #14
 800017a:	428b      	cmp	r3, r1
 800017c:	d301      	bcc.n	8000182 <__udivsi3+0x52>
 800017e:	038b      	lsls	r3, r1, #14
 8000180:	1ac0      	subs	r0, r0, r3
 8000182:	4152      	adcs	r2, r2
 8000184:	0b43      	lsrs	r3, r0, #13
 8000186:	428b      	cmp	r3, r1
 8000188:	d301      	bcc.n	800018e <__udivsi3+0x5e>
 800018a:	034b      	lsls	r3, r1, #13
 800018c:	1ac0      	subs	r0, r0, r3
 800018e:	4152      	adcs	r2, r2
 8000190:	0b03      	lsrs	r3, r0, #12
 8000192:	428b      	cmp	r3, r1
 8000194:	d301      	bcc.n	800019a <__udivsi3+0x6a>
 8000196:	030b      	lsls	r3, r1, #12
 8000198:	1ac0      	subs	r0, r0, r3
 800019a:	4152      	adcs	r2, r2
 800019c:	0ac3      	lsrs	r3, r0, #11
 800019e:	428b      	cmp	r3, r1
 80001a0:	d301      	bcc.n	80001a6 <__udivsi3+0x76>
 80001a2:	02cb      	lsls	r3, r1, #11
 80001a4:	1ac0      	subs	r0, r0, r3
 80001a6:	4152      	adcs	r2, r2
 80001a8:	0a83      	lsrs	r3, r0, #10
 80001aa:	428b      	cmp	r3, r1
 80001ac:	d301      	bcc.n	80001b2 <__udivsi3+0x82>
 80001ae:	028b      	lsls	r3, r1, #10
 80001b0:	1ac0      	subs	r0, r0, r3
 80001b2:	4152      	adcs	r2, r2
 80001b4:	0a43      	lsrs	r3, r0, #9
 80001b6:	428b      	cmp	r3, r1
 80001b8:	d301      	bcc.n	80001be <__udivsi3+0x8e>
 80001ba:	024b      	lsls	r3, r1, #9
 80001bc:	1ac0      	subs	r0, r0, r3
 80001be:	4152      	adcs	r2, r2
 80001c0:	0a03      	lsrs	r3, r0, #8
 80001c2:	428b      	cmp	r3, r1
 80001c4:	d301      	bcc.n	80001ca <__udivsi3+0x9a>
 80001c6:	020b      	lsls	r3, r1, #8
 80001c8:	1ac0      	subs	r0, r0, r3
 80001ca:	4152      	adcs	r2, r2
 80001cc:	d2cd      	bcs.n	800016a <__udivsi3+0x3a>
 80001ce:	09c3      	lsrs	r3, r0, #7
 80001d0:	428b      	cmp	r3, r1
 80001d2:	d301      	bcc.n	80001d8 <__udivsi3+0xa8>
 80001d4:	01cb      	lsls	r3, r1, #7
 80001d6:	1ac0      	subs	r0, r0, r3
 80001d8:	4152      	adcs	r2, r2
 80001da:	0983      	lsrs	r3, r0, #6
 80001dc:	428b      	cmp	r3, r1
 80001de:	d301      	bcc.n	80001e4 <__udivsi3+0xb4>
 80001e0:	018b      	lsls	r3, r1, #6
 80001e2:	1ac0      	subs	r0, r0, r3
 80001e4:	4152      	adcs	r2, r2
 80001e6:	0943      	lsrs	r3, r0, #5
 80001e8:	428b      	cmp	r3, r1
 80001ea:	d301      	bcc.n	80001f0 <__udivsi3+0xc0>
 80001ec:	014b      	lsls	r3, r1, #5
 80001ee:	1ac0      	subs	r0, r0, r3
 80001f0:	4152      	adcs	r2, r2
 80001f2:	0903      	lsrs	r3, r0, #4
 80001f4:	428b      	cmp	r3, r1
 80001f6:	d301      	bcc.n	80001fc <__udivsi3+0xcc>
 80001f8:	010b      	lsls	r3, r1, #4
 80001fa:	1ac0      	subs	r0, r0, r3
 80001fc:	4152      	adcs	r2, r2
 80001fe:	08c3      	lsrs	r3, r0, #3
 8000200:	428b      	cmp	r3, r1
 8000202:	d301      	bcc.n	8000208 <__udivsi3+0xd8>
 8000204:	00cb      	lsls	r3, r1, #3
 8000206:	1ac0      	subs	r0, r0, r3
 8000208:	4152      	adcs	r2, r2
 800020a:	0883      	lsrs	r3, r0, #2
 800020c:	428b      	cmp	r3, r1
 800020e:	d301      	bcc.n	8000214 <__udivsi3+0xe4>
 8000210:	008b      	lsls	r3, r1, #2
 8000212:	1ac0      	subs	r0, r0, r3
 8000214:	4152      	adcs	r2, r2
 8000216:	0843      	lsrs	r3, r0, #1
 8000218:	428b      	cmp	r3, r1
 800021a:	d301      	bcc.n	8000220 <__udivsi3+0xf0>
 800021c:	004b      	lsls	r3, r1, #1
 800021e:	1ac0      	subs	r0, r0, r3
 8000220:	4152      	adcs	r2, r2
 8000222:	1a41      	subs	r1, r0, r1
 8000224:	d200      	bcs.n	8000228 <__udivsi3+0xf8>
 8000226:	4601      	mov	r1, r0
 8000228:	4152      	adcs	r2, r2
 800022a:	4610      	mov	r0, r2
 800022c:	4770      	bx	lr
 800022e:	e7ff      	b.n	8000230 <__udivsi3+0x100>
 8000230:	b501      	push	{r0, lr}
 8000232:	2000      	movs	r0, #0
 8000234:	f000 f8f0 	bl	8000418 <__aeabi_idiv0>
 8000238:	bd02      	pop	{r1, pc}
 800023a:	46c0      	nop			; (mov r8, r8)

0800023c <__aeabi_uidivmod>:
 800023c:	2900      	cmp	r1, #0
 800023e:	d0f7      	beq.n	8000230 <__udivsi3+0x100>
 8000240:	e776      	b.n	8000130 <__udivsi3>
 8000242:	4770      	bx	lr

08000244 <__divsi3>:
 8000244:	4603      	mov	r3, r0
 8000246:	430b      	orrs	r3, r1
 8000248:	d47f      	bmi.n	800034a <__divsi3+0x106>
 800024a:	2200      	movs	r2, #0
 800024c:	0843      	lsrs	r3, r0, #1
 800024e:	428b      	cmp	r3, r1
 8000250:	d374      	bcc.n	800033c <__divsi3+0xf8>
 8000252:	0903      	lsrs	r3, r0, #4
 8000254:	428b      	cmp	r3, r1
 8000256:	d35f      	bcc.n	8000318 <__divsi3+0xd4>
 8000258:	0a03      	lsrs	r3, r0, #8
 800025a:	428b      	cmp	r3, r1
 800025c:	d344      	bcc.n	80002e8 <__divsi3+0xa4>
 800025e:	0b03      	lsrs	r3, r0, #12
 8000260:	428b      	cmp	r3, r1
 8000262:	d328      	bcc.n	80002b6 <__divsi3+0x72>
 8000264:	0c03      	lsrs	r3, r0, #16
 8000266:	428b      	cmp	r3, r1
 8000268:	d30d      	bcc.n	8000286 <__divsi3+0x42>
 800026a:	22ff      	movs	r2, #255	; 0xff
 800026c:	0209      	lsls	r1, r1, #8
 800026e:	ba12      	rev	r2, r2
 8000270:	0c03      	lsrs	r3, r0, #16
 8000272:	428b      	cmp	r3, r1
 8000274:	d302      	bcc.n	800027c <__divsi3+0x38>
 8000276:	1212      	asrs	r2, r2, #8
 8000278:	0209      	lsls	r1, r1, #8
 800027a:	d065      	beq.n	8000348 <__divsi3+0x104>
 800027c:	0b03      	lsrs	r3, r0, #12
 800027e:	428b      	cmp	r3, r1
 8000280:	d319      	bcc.n	80002b6 <__divsi3+0x72>
 8000282:	e000      	b.n	8000286 <__divsi3+0x42>
 8000284:	0a09      	lsrs	r1, r1, #8
 8000286:	0bc3      	lsrs	r3, r0, #15
 8000288:	428b      	cmp	r3, r1
 800028a:	d301      	bcc.n	8000290 <__divsi3+0x4c>
 800028c:	03cb      	lsls	r3, r1, #15
 800028e:	1ac0      	subs	r0, r0, r3
 8000290:	4152      	adcs	r2, r2
 8000292:	0b83      	lsrs	r3, r0, #14
 8000294:	428b      	cmp	r3, r1
 8000296:	d301      	bcc.n	800029c <__divsi3+0x58>
 8000298:	038b      	lsls	r3, r1, #14
 800029a:	1ac0      	subs	r0, r0, r3
 800029c:	4152      	adcs	r2, r2
 800029e:	0b43      	lsrs	r3, r0, #13
 80002a0:	428b      	cmp	r3, r1
 80002a2:	d301      	bcc.n	80002a8 <__divsi3+0x64>
 80002a4:	034b      	lsls	r3, r1, #13
 80002a6:	1ac0      	subs	r0, r0, r3
 80002a8:	4152      	adcs	r2, r2
 80002aa:	0b03      	lsrs	r3, r0, #12
 80002ac:	428b      	cmp	r3, r1
 80002ae:	d301      	bcc.n	80002b4 <__divsi3+0x70>
 80002b0:	030b      	lsls	r3, r1, #12
 80002b2:	1ac0      	subs	r0, r0, r3
 80002b4:	4152      	adcs	r2, r2
 80002b6:	0ac3      	lsrs	r3, r0, #11
 80002b8:	428b      	cmp	r3, r1
 80002ba:	d301      	bcc.n	80002c0 <__divsi3+0x7c>
 80002bc:	02cb      	lsls	r3, r1, #11
 80002be:	1ac0      	subs	r0, r0, r3
 80002c0:	4152      	adcs	r2, r2
 80002c2:	0a83      	lsrs	r3, r0, #10
 80002c4:	428b      	cmp	r3, r1
 80002c6:	d301      	bcc.n	80002cc <__divsi3+0x88>
 80002c8:	028b      	lsls	r3, r1, #10
 80002ca:	1ac0      	subs	r0, r0, r3
 80002cc:	4152      	adcs	r2, r2
 80002ce:	0a43      	lsrs	r3, r0, #9
 80002d0:	428b      	cmp	r3, r1
 80002d2:	d301      	bcc.n	80002d8 <__divsi3+0x94>
 80002d4:	024b      	lsls	r3, r1, #9
 80002d6:	1ac0      	subs	r0, r0, r3
 80002d8:	4152      	adcs	r2, r2
 80002da:	0a03      	lsrs	r3, r0, #8
 80002dc:	428b      	cmp	r3, r1
 80002de:	d301      	bcc.n	80002e4 <__divsi3+0xa0>
 80002e0:	020b      	lsls	r3, r1, #8
 80002e2:	1ac0      	subs	r0, r0, r3
 80002e4:	4152      	adcs	r2, r2
 80002e6:	d2cd      	bcs.n	8000284 <__divsi3+0x40>
 80002e8:	09c3      	lsrs	r3, r0, #7
 80002ea:	428b      	cmp	r3, r1
 80002ec:	d301      	bcc.n	80002f2 <__divsi3+0xae>
 80002ee:	01cb      	lsls	r3, r1, #7
 80002f0:	1ac0      	subs	r0, r0, r3
 80002f2:	4152      	adcs	r2, r2
 80002f4:	0983      	lsrs	r3, r0, #6
 80002f6:	428b      	cmp	r3, r1
 80002f8:	d301      	bcc.n	80002fe <__divsi3+0xba>
 80002fa:	018b      	lsls	r3, r1, #6
 80002fc:	1ac0      	subs	r0, r0, r3
 80002fe:	4152      	adcs	r2, r2
 8000300:	0943      	lsrs	r3, r0, #5
 8000302:	428b      	cmp	r3, r1
 8000304:	d301      	bcc.n	800030a <__divsi3+0xc6>
 8000306:	014b      	lsls	r3, r1, #5
 8000308:	1ac0      	subs	r0, r0, r3
 800030a:	4152      	adcs	r2, r2
 800030c:	0903      	lsrs	r3, r0, #4
 800030e:	428b      	cmp	r3, r1
 8000310:	d301      	bcc.n	8000316 <__divsi3+0xd2>
 8000312:	010b      	lsls	r3, r1, #4
 8000314:	1ac0      	subs	r0, r0, r3
 8000316:	4152      	adcs	r2, r2
 8000318:	08c3      	lsrs	r3, r0, #3
 800031a:	428b      	cmp	r3, r1
 800031c:	d301      	bcc.n	8000322 <__divsi3+0xde>
 800031e:	00cb      	lsls	r3, r1, #3
 8000320:	1ac0      	subs	r0, r0, r3
 8000322:	4152      	adcs	r2, r2
 8000324:	0883      	lsrs	r3, r0, #2
 8000326:	428b      	cmp	r3, r1
 8000328:	d301      	bcc.n	800032e <__divsi3+0xea>
 800032a:	008b      	lsls	r3, r1, #2
 800032c:	1ac0      	subs	r0, r0, r3
 800032e:	4152      	adcs	r2, r2
 8000330:	0843      	lsrs	r3, r0, #1
 8000332:	428b      	cmp	r3, r1
 8000334:	d301      	bcc.n	800033a <__divsi3+0xf6>
 8000336:	004b      	lsls	r3, r1, #1
 8000338:	1ac0      	subs	r0, r0, r3
 800033a:	4152      	adcs	r2, r2
 800033c:	1a41      	subs	r1, r0, r1
 800033e:	d200      	bcs.n	8000342 <__divsi3+0xfe>
 8000340:	4601      	mov	r1, r0
 8000342:	4152      	adcs	r2, r2
 8000344:	4610      	mov	r0, r2
 8000346:	4770      	bx	lr
 8000348:	e05d      	b.n	8000406 <__divsi3+0x1c2>
 800034a:	0fca      	lsrs	r2, r1, #31
 800034c:	d000      	beq.n	8000350 <__divsi3+0x10c>
 800034e:	4249      	negs	r1, r1
 8000350:	1003      	asrs	r3, r0, #32
 8000352:	d300      	bcc.n	8000356 <__divsi3+0x112>
 8000354:	4240      	negs	r0, r0
 8000356:	4053      	eors	r3, r2
 8000358:	2200      	movs	r2, #0
 800035a:	469c      	mov	ip, r3
 800035c:	0903      	lsrs	r3, r0, #4
 800035e:	428b      	cmp	r3, r1
 8000360:	d32d      	bcc.n	80003be <__divsi3+0x17a>
 8000362:	0a03      	lsrs	r3, r0, #8
 8000364:	428b      	cmp	r3, r1
 8000366:	d312      	bcc.n	800038e <__divsi3+0x14a>
 8000368:	22fc      	movs	r2, #252	; 0xfc
 800036a:	0189      	lsls	r1, r1, #6
 800036c:	ba12      	rev	r2, r2
 800036e:	0a03      	lsrs	r3, r0, #8
 8000370:	428b      	cmp	r3, r1
 8000372:	d30c      	bcc.n	800038e <__divsi3+0x14a>
 8000374:	0189      	lsls	r1, r1, #6
 8000376:	1192      	asrs	r2, r2, #6
 8000378:	428b      	cmp	r3, r1
 800037a:	d308      	bcc.n	800038e <__divsi3+0x14a>
 800037c:	0189      	lsls	r1, r1, #6
 800037e:	1192      	asrs	r2, r2, #6
 8000380:	428b      	cmp	r3, r1
 8000382:	d304      	bcc.n	800038e <__divsi3+0x14a>
 8000384:	0189      	lsls	r1, r1, #6
 8000386:	d03a      	beq.n	80003fe <__divsi3+0x1ba>
 8000388:	1192      	asrs	r2, r2, #6
 800038a:	e000      	b.n	800038e <__divsi3+0x14a>
 800038c:	0989      	lsrs	r1, r1, #6
 800038e:	09c3      	lsrs	r3, r0, #7
 8000390:	428b      	cmp	r3, r1
 8000392:	d301      	bcc.n	8000398 <__divsi3+0x154>
 8000394:	01cb      	lsls	r3, r1, #7
 8000396:	1ac0      	subs	r0, r0, r3
 8000398:	4152      	adcs	r2, r2
 800039a:	0983      	lsrs	r3, r0, #6
 800039c:	428b      	cmp	r3, r1
 800039e:	d301      	bcc.n	80003a4 <__divsi3+0x160>
 80003a0:	018b      	lsls	r3, r1, #6
 80003a2:	1ac0      	subs	r0, r0, r3
 80003a4:	4152      	adcs	r2, r2
 80003a6:	0943      	lsrs	r3, r0, #5
 80003a8:	428b      	cmp	r3, r1
 80003aa:	d301      	bcc.n	80003b0 <__divsi3+0x16c>
 80003ac:	014b      	lsls	r3, r1, #5
 80003ae:	1ac0      	subs	r0, r0, r3
 80003b0:	4152      	adcs	r2, r2
 80003b2:	0903      	lsrs	r3, r0, #4
 80003b4:	428b      	cmp	r3, r1
 80003b6:	d301      	bcc.n	80003bc <__divsi3+0x178>
 80003b8:	010b      	lsls	r3, r1, #4
 80003ba:	1ac0      	subs	r0, r0, r3
 80003bc:	4152      	adcs	r2, r2
 80003be:	08c3      	lsrs	r3, r0, #3
 80003c0:	428b      	cmp	r3, r1
 80003c2:	d301      	bcc.n	80003c8 <__divsi3+0x184>
 80003c4:	00cb      	lsls	r3, r1, #3
 80003c6:	1ac0      	subs	r0, r0, r3
 80003c8:	4152      	adcs	r2, r2
 80003ca:	0883      	lsrs	r3, r0, #2
 80003cc:	428b      	cmp	r3, r1
 80003ce:	d301      	bcc.n	80003d4 <__divsi3+0x190>
 80003d0:	008b      	lsls	r3, r1, #2
 80003d2:	1ac0      	subs	r0, r0, r3
 80003d4:	4152      	adcs	r2, r2
 80003d6:	d2d9      	bcs.n	800038c <__divsi3+0x148>
 80003d8:	0843      	lsrs	r3, r0, #1
 80003da:	428b      	cmp	r3, r1
 80003dc:	d301      	bcc.n	80003e2 <__divsi3+0x19e>
 80003de:	004b      	lsls	r3, r1, #1
 80003e0:	1ac0      	subs	r0, r0, r3
 80003e2:	4152      	adcs	r2, r2
 80003e4:	1a41      	subs	r1, r0, r1
 80003e6:	d200      	bcs.n	80003ea <__divsi3+0x1a6>
 80003e8:	4601      	mov	r1, r0
 80003ea:	4663      	mov	r3, ip
 80003ec:	4152      	adcs	r2, r2
 80003ee:	105b      	asrs	r3, r3, #1
 80003f0:	4610      	mov	r0, r2
 80003f2:	d301      	bcc.n	80003f8 <__divsi3+0x1b4>
 80003f4:	4240      	negs	r0, r0
 80003f6:	2b00      	cmp	r3, #0
 80003f8:	d500      	bpl.n	80003fc <__divsi3+0x1b8>
 80003fa:	4249      	negs	r1, r1
 80003fc:	4770      	bx	lr
 80003fe:	4663      	mov	r3, ip
 8000400:	105b      	asrs	r3, r3, #1
 8000402:	d300      	bcc.n	8000406 <__divsi3+0x1c2>
 8000404:	4240      	negs	r0, r0
 8000406:	b501      	push	{r0, lr}
 8000408:	2000      	movs	r0, #0
 800040a:	f000 f805 	bl	8000418 <__aeabi_idiv0>
 800040e:	bd02      	pop	{r1, pc}

08000410 <__aeabi_idivmod>:
 8000410:	2900      	cmp	r1, #0
 8000412:	d0f8      	beq.n	8000406 <__divsi3+0x1c2>
 8000414:	e716      	b.n	8000244 <__divsi3>
 8000416:	4770      	bx	lr

08000418 <__aeabi_idiv0>:
 8000418:	4770      	bx	lr
 800041a:	46c0      	nop			; (mov r8, r8)

0800041c <__aeabi_ddiv>:
 800041c:	b5f0      	push	{r4, r5, r6, r7, lr}
 800041e:	4657      	mov	r7, sl
 8000420:	464e      	mov	r6, r9
 8000422:	4645      	mov	r5, r8
 8000424:	46de      	mov	lr, fp
 8000426:	b5e0      	push	{r5, r6, r7, lr}
 8000428:	4681      	mov	r9, r0
 800042a:	0005      	movs	r5, r0
 800042c:	030c      	lsls	r4, r1, #12
 800042e:	0048      	lsls	r0, r1, #1
 8000430:	4692      	mov	sl, r2
 8000432:	001f      	movs	r7, r3
 8000434:	b085      	sub	sp, #20
 8000436:	0b24      	lsrs	r4, r4, #12
 8000438:	0d40      	lsrs	r0, r0, #21
 800043a:	0fce      	lsrs	r6, r1, #31
 800043c:	2800      	cmp	r0, #0
 800043e:	d100      	bne.n	8000442 <__aeabi_ddiv+0x26>
 8000440:	e156      	b.n	80006f0 <__aeabi_ddiv+0x2d4>
 8000442:	4bd4      	ldr	r3, [pc, #848]	; (8000794 <__aeabi_ddiv+0x378>)
 8000444:	4298      	cmp	r0, r3
 8000446:	d100      	bne.n	800044a <__aeabi_ddiv+0x2e>
 8000448:	e172      	b.n	8000730 <__aeabi_ddiv+0x314>
 800044a:	0f6b      	lsrs	r3, r5, #29
 800044c:	00e4      	lsls	r4, r4, #3
 800044e:	431c      	orrs	r4, r3
 8000450:	2380      	movs	r3, #128	; 0x80
 8000452:	041b      	lsls	r3, r3, #16
 8000454:	4323      	orrs	r3, r4
 8000456:	4698      	mov	r8, r3
 8000458:	4bcf      	ldr	r3, [pc, #828]	; (8000798 <__aeabi_ddiv+0x37c>)
 800045a:	00ed      	lsls	r5, r5, #3
 800045c:	469b      	mov	fp, r3
 800045e:	2300      	movs	r3, #0
 8000460:	4699      	mov	r9, r3
 8000462:	4483      	add	fp, r0
 8000464:	9300      	str	r3, [sp, #0]
 8000466:	033c      	lsls	r4, r7, #12
 8000468:	007b      	lsls	r3, r7, #1
 800046a:	4650      	mov	r0, sl
 800046c:	0b24      	lsrs	r4, r4, #12
 800046e:	0d5b      	lsrs	r3, r3, #21
 8000470:	0fff      	lsrs	r7, r7, #31
 8000472:	2b00      	cmp	r3, #0
 8000474:	d100      	bne.n	8000478 <__aeabi_ddiv+0x5c>
 8000476:	e11f      	b.n	80006b8 <__aeabi_ddiv+0x29c>
 8000478:	4ac6      	ldr	r2, [pc, #792]	; (8000794 <__aeabi_ddiv+0x378>)
 800047a:	4293      	cmp	r3, r2
 800047c:	d100      	bne.n	8000480 <__aeabi_ddiv+0x64>
 800047e:	e162      	b.n	8000746 <__aeabi_ddiv+0x32a>
 8000480:	49c5      	ldr	r1, [pc, #788]	; (8000798 <__aeabi_ddiv+0x37c>)
 8000482:	0f42      	lsrs	r2, r0, #29
 8000484:	468c      	mov	ip, r1
 8000486:	00e4      	lsls	r4, r4, #3
 8000488:	4659      	mov	r1, fp
 800048a:	4314      	orrs	r4, r2
 800048c:	2280      	movs	r2, #128	; 0x80
 800048e:	4463      	add	r3, ip
 8000490:	0412      	lsls	r2, r2, #16
 8000492:	1acb      	subs	r3, r1, r3
 8000494:	4314      	orrs	r4, r2
 8000496:	469b      	mov	fp, r3
 8000498:	00c2      	lsls	r2, r0, #3
 800049a:	2000      	movs	r0, #0
 800049c:	0033      	movs	r3, r6
 800049e:	407b      	eors	r3, r7
 80004a0:	469a      	mov	sl, r3
 80004a2:	464b      	mov	r3, r9
 80004a4:	2b0f      	cmp	r3, #15
 80004a6:	d827      	bhi.n	80004f8 <__aeabi_ddiv+0xdc>
 80004a8:	49bc      	ldr	r1, [pc, #752]	; (800079c <__aeabi_ddiv+0x380>)
 80004aa:	009b      	lsls	r3, r3, #2
 80004ac:	58cb      	ldr	r3, [r1, r3]
 80004ae:	469f      	mov	pc, r3
 80004b0:	46b2      	mov	sl, r6
 80004b2:	9b00      	ldr	r3, [sp, #0]
 80004b4:	2b02      	cmp	r3, #2
 80004b6:	d016      	beq.n	80004e6 <__aeabi_ddiv+0xca>
 80004b8:	2b03      	cmp	r3, #3
 80004ba:	d100      	bne.n	80004be <__aeabi_ddiv+0xa2>
 80004bc:	e28e      	b.n	80009dc <__aeabi_ddiv+0x5c0>
 80004be:	2b01      	cmp	r3, #1
 80004c0:	d000      	beq.n	80004c4 <__aeabi_ddiv+0xa8>
 80004c2:	e0d9      	b.n	8000678 <__aeabi_ddiv+0x25c>
 80004c4:	2300      	movs	r3, #0
 80004c6:	2400      	movs	r4, #0
 80004c8:	2500      	movs	r5, #0
 80004ca:	4652      	mov	r2, sl
 80004cc:	051b      	lsls	r3, r3, #20
 80004ce:	4323      	orrs	r3, r4
 80004d0:	07d2      	lsls	r2, r2, #31
 80004d2:	4313      	orrs	r3, r2
 80004d4:	0028      	movs	r0, r5
 80004d6:	0019      	movs	r1, r3
 80004d8:	b005      	add	sp, #20
 80004da:	bcf0      	pop	{r4, r5, r6, r7}
 80004dc:	46bb      	mov	fp, r7
 80004de:	46b2      	mov	sl, r6
 80004e0:	46a9      	mov	r9, r5
 80004e2:	46a0      	mov	r8, r4
 80004e4:	bdf0      	pop	{r4, r5, r6, r7, pc}
 80004e6:	2400      	movs	r4, #0
 80004e8:	2500      	movs	r5, #0
 80004ea:	4baa      	ldr	r3, [pc, #680]	; (8000794 <__aeabi_ddiv+0x378>)
 80004ec:	e7ed      	b.n	80004ca <__aeabi_ddiv+0xae>
 80004ee:	46ba      	mov	sl, r7
 80004f0:	46a0      	mov	r8, r4
 80004f2:	0015      	movs	r5, r2
 80004f4:	9000      	str	r0, [sp, #0]
 80004f6:	e7dc      	b.n	80004b2 <__aeabi_ddiv+0x96>
 80004f8:	4544      	cmp	r4, r8
 80004fa:	d200      	bcs.n	80004fe <__aeabi_ddiv+0xe2>
 80004fc:	e1c7      	b.n	800088e <__aeabi_ddiv+0x472>
 80004fe:	d100      	bne.n	8000502 <__aeabi_ddiv+0xe6>
 8000500:	e1c2      	b.n	8000888 <__aeabi_ddiv+0x46c>
 8000502:	2301      	movs	r3, #1
 8000504:	425b      	negs	r3, r3
 8000506:	469c      	mov	ip, r3
 8000508:	002e      	movs	r6, r5
 800050a:	4640      	mov	r0, r8
 800050c:	2500      	movs	r5, #0
 800050e:	44e3      	add	fp, ip
 8000510:	0223      	lsls	r3, r4, #8
 8000512:	0e14      	lsrs	r4, r2, #24
 8000514:	431c      	orrs	r4, r3
 8000516:	0c1b      	lsrs	r3, r3, #16
 8000518:	4699      	mov	r9, r3
 800051a:	0423      	lsls	r3, r4, #16
 800051c:	0c1f      	lsrs	r7, r3, #16
 800051e:	0212      	lsls	r2, r2, #8
 8000520:	4649      	mov	r1, r9
 8000522:	9200      	str	r2, [sp, #0]
 8000524:	9701      	str	r7, [sp, #4]
 8000526:	f7ff fe89 	bl	800023c <__aeabi_uidivmod>
 800052a:	0002      	movs	r2, r0
 800052c:	437a      	muls	r2, r7
 800052e:	040b      	lsls	r3, r1, #16
 8000530:	0c31      	lsrs	r1, r6, #16
 8000532:	4680      	mov	r8, r0
 8000534:	4319      	orrs	r1, r3
 8000536:	428a      	cmp	r2, r1
 8000538:	d907      	bls.n	800054a <__aeabi_ddiv+0x12e>
 800053a:	2301      	movs	r3, #1
 800053c:	425b      	negs	r3, r3
 800053e:	469c      	mov	ip, r3
 8000540:	1909      	adds	r1, r1, r4
 8000542:	44e0      	add	r8, ip
 8000544:	428c      	cmp	r4, r1
 8000546:	d800      	bhi.n	800054a <__aeabi_ddiv+0x12e>
 8000548:	e207      	b.n	800095a <__aeabi_ddiv+0x53e>
 800054a:	1a88      	subs	r0, r1, r2
 800054c:	4649      	mov	r1, r9
 800054e:	f7ff fe75 	bl	800023c <__aeabi_uidivmod>
 8000552:	0409      	lsls	r1, r1, #16
 8000554:	468c      	mov	ip, r1
 8000556:	0431      	lsls	r1, r6, #16
 8000558:	4666      	mov	r6, ip
 800055a:	9a01      	ldr	r2, [sp, #4]
 800055c:	0c09      	lsrs	r1, r1, #16
 800055e:	4342      	muls	r2, r0
 8000560:	0003      	movs	r3, r0
 8000562:	4331      	orrs	r1, r6
 8000564:	428a      	cmp	r2, r1
 8000566:	d904      	bls.n	8000572 <__aeabi_ddiv+0x156>
 8000568:	1909      	adds	r1, r1, r4
 800056a:	3b01      	subs	r3, #1
 800056c:	428c      	cmp	r4, r1
 800056e:	d800      	bhi.n	8000572 <__aeabi_ddiv+0x156>
 8000570:	e1ed      	b.n	800094e <__aeabi_ddiv+0x532>
 8000572:	1a88      	subs	r0, r1, r2
 8000574:	4642      	mov	r2, r8
 8000576:	0412      	lsls	r2, r2, #16
 8000578:	431a      	orrs	r2, r3
 800057a:	4690      	mov	r8, r2
 800057c:	4641      	mov	r1, r8
 800057e:	9b00      	ldr	r3, [sp, #0]
 8000580:	040e      	lsls	r6, r1, #16
 8000582:	0c1b      	lsrs	r3, r3, #16
 8000584:	001f      	movs	r7, r3
 8000586:	9302      	str	r3, [sp, #8]
 8000588:	9b00      	ldr	r3, [sp, #0]
 800058a:	0c36      	lsrs	r6, r6, #16
 800058c:	041b      	lsls	r3, r3, #16
 800058e:	0c19      	lsrs	r1, r3, #16
 8000590:	000b      	movs	r3, r1
 8000592:	4373      	muls	r3, r6
 8000594:	0c12      	lsrs	r2, r2, #16
 8000596:	437e      	muls	r6, r7
 8000598:	9103      	str	r1, [sp, #12]
 800059a:	4351      	muls	r1, r2
 800059c:	437a      	muls	r2, r7
 800059e:	0c1f      	lsrs	r7, r3, #16
 80005a0:	46bc      	mov	ip, r7
 80005a2:	1876      	adds	r6, r6, r1
 80005a4:	4466      	add	r6, ip
 80005a6:	42b1      	cmp	r1, r6
 80005a8:	d903      	bls.n	80005b2 <__aeabi_ddiv+0x196>
 80005aa:	2180      	movs	r1, #128	; 0x80
 80005ac:	0249      	lsls	r1, r1, #9
 80005ae:	468c      	mov	ip, r1
 80005b0:	4462      	add	r2, ip
 80005b2:	0c31      	lsrs	r1, r6, #16
 80005b4:	188a      	adds	r2, r1, r2
 80005b6:	0431      	lsls	r1, r6, #16
 80005b8:	041e      	lsls	r6, r3, #16
 80005ba:	0c36      	lsrs	r6, r6, #16
 80005bc:	198e      	adds	r6, r1, r6
 80005be:	4290      	cmp	r0, r2
 80005c0:	d302      	bcc.n	80005c8 <__aeabi_ddiv+0x1ac>
 80005c2:	d112      	bne.n	80005ea <__aeabi_ddiv+0x1ce>
 80005c4:	42b5      	cmp	r5, r6
 80005c6:	d210      	bcs.n	80005ea <__aeabi_ddiv+0x1ce>
 80005c8:	4643      	mov	r3, r8
 80005ca:	1e59      	subs	r1, r3, #1
 80005cc:	9b00      	ldr	r3, [sp, #0]
 80005ce:	469c      	mov	ip, r3
 80005d0:	4465      	add	r5, ip
 80005d2:	001f      	movs	r7, r3
 80005d4:	429d      	cmp	r5, r3
 80005d6:	419b      	sbcs	r3, r3
 80005d8:	425b      	negs	r3, r3
 80005da:	191b      	adds	r3, r3, r4
 80005dc:	18c0      	adds	r0, r0, r3
 80005de:	4284      	cmp	r4, r0
 80005e0:	d200      	bcs.n	80005e4 <__aeabi_ddiv+0x1c8>
 80005e2:	e1a0      	b.n	8000926 <__aeabi_ddiv+0x50a>
 80005e4:	d100      	bne.n	80005e8 <__aeabi_ddiv+0x1cc>
 80005e6:	e19b      	b.n	8000920 <__aeabi_ddiv+0x504>
 80005e8:	4688      	mov	r8, r1
 80005ea:	1bae      	subs	r6, r5, r6
 80005ec:	42b5      	cmp	r5, r6
 80005ee:	41ad      	sbcs	r5, r5
 80005f0:	1a80      	subs	r0, r0, r2
 80005f2:	426d      	negs	r5, r5
 80005f4:	1b40      	subs	r0, r0, r5
 80005f6:	4284      	cmp	r4, r0
 80005f8:	d100      	bne.n	80005fc <__aeabi_ddiv+0x1e0>
 80005fa:	e1d5      	b.n	80009a8 <__aeabi_ddiv+0x58c>
 80005fc:	4649      	mov	r1, r9
 80005fe:	f7ff fe1d 	bl	800023c <__aeabi_uidivmod>
 8000602:	9a01      	ldr	r2, [sp, #4]
 8000604:	040b      	lsls	r3, r1, #16
 8000606:	4342      	muls	r2, r0
 8000608:	0c31      	lsrs	r1, r6, #16
 800060a:	0005      	movs	r5, r0
 800060c:	4319      	orrs	r1, r3
 800060e:	428a      	cmp	r2, r1
 8000610:	d900      	bls.n	8000614 <__aeabi_ddiv+0x1f8>
 8000612:	e16c      	b.n	80008ee <__aeabi_ddiv+0x4d2>
 8000614:	1a88      	subs	r0, r1, r2
 8000616:	4649      	mov	r1, r9
 8000618:	f7ff fe10 	bl	800023c <__aeabi_uidivmod>
 800061c:	9a01      	ldr	r2, [sp, #4]
 800061e:	0436      	lsls	r6, r6, #16
 8000620:	4342      	muls	r2, r0
 8000622:	0409      	lsls	r1, r1, #16
 8000624:	0c36      	lsrs	r6, r6, #16
 8000626:	0003      	movs	r3, r0
 8000628:	430e      	orrs	r6, r1
 800062a:	42b2      	cmp	r2, r6
 800062c:	d900      	bls.n	8000630 <__aeabi_ddiv+0x214>
 800062e:	e153      	b.n	80008d8 <__aeabi_ddiv+0x4bc>
 8000630:	9803      	ldr	r0, [sp, #12]
 8000632:	1ab6      	subs	r6, r6, r2
 8000634:	0002      	movs	r2, r0
 8000636:	042d      	lsls	r5, r5, #16
 8000638:	431d      	orrs	r5, r3
 800063a:	9f02      	ldr	r7, [sp, #8]
 800063c:	042b      	lsls	r3, r5, #16
 800063e:	0c1b      	lsrs	r3, r3, #16
 8000640:	435a      	muls	r2, r3
 8000642:	437b      	muls	r3, r7
 8000644:	469c      	mov	ip, r3
 8000646:	0c29      	lsrs	r1, r5, #16
 8000648:	4348      	muls	r0, r1
 800064a:	0c13      	lsrs	r3, r2, #16
 800064c:	4484      	add	ip, r0
 800064e:	4463      	add	r3, ip
 8000650:	4379      	muls	r1, r7
 8000652:	4298      	cmp	r0, r3
 8000654:	d903      	bls.n	800065e <__aeabi_ddiv+0x242>
 8000656:	2080      	movs	r0, #128	; 0x80
 8000658:	0240      	lsls	r0, r0, #9
 800065a:	4684      	mov	ip, r0
 800065c:	4461      	add	r1, ip
 800065e:	0c18      	lsrs	r0, r3, #16
 8000660:	0412      	lsls	r2, r2, #16
 8000662:	041b      	lsls	r3, r3, #16
 8000664:	0c12      	lsrs	r2, r2, #16
 8000666:	1841      	adds	r1, r0, r1
 8000668:	189b      	adds	r3, r3, r2
 800066a:	428e      	cmp	r6, r1
 800066c:	d200      	bcs.n	8000670 <__aeabi_ddiv+0x254>
 800066e:	e0ff      	b.n	8000870 <__aeabi_ddiv+0x454>
 8000670:	d100      	bne.n	8000674 <__aeabi_ddiv+0x258>
 8000672:	e0fa      	b.n	800086a <__aeabi_ddiv+0x44e>
 8000674:	2301      	movs	r3, #1
 8000676:	431d      	orrs	r5, r3
 8000678:	4a49      	ldr	r2, [pc, #292]	; (80007a0 <__aeabi_ddiv+0x384>)
 800067a:	445a      	add	r2, fp
 800067c:	2a00      	cmp	r2, #0
 800067e:	dc00      	bgt.n	8000682 <__aeabi_ddiv+0x266>
 8000680:	e0aa      	b.n	80007d8 <__aeabi_ddiv+0x3bc>
 8000682:	076b      	lsls	r3, r5, #29
 8000684:	d000      	beq.n	8000688 <__aeabi_ddiv+0x26c>
 8000686:	e13d      	b.n	8000904 <__aeabi_ddiv+0x4e8>
 8000688:	08ed      	lsrs	r5, r5, #3
 800068a:	4643      	mov	r3, r8
 800068c:	01db      	lsls	r3, r3, #7
 800068e:	d506      	bpl.n	800069e <__aeabi_ddiv+0x282>
 8000690:	4642      	mov	r2, r8
 8000692:	4b44      	ldr	r3, [pc, #272]	; (80007a4 <__aeabi_ddiv+0x388>)
 8000694:	401a      	ands	r2, r3
 8000696:	4690      	mov	r8, r2
 8000698:	2280      	movs	r2, #128	; 0x80
 800069a:	00d2      	lsls	r2, r2, #3
 800069c:	445a      	add	r2, fp
 800069e:	4b42      	ldr	r3, [pc, #264]	; (80007a8 <__aeabi_ddiv+0x38c>)
 80006a0:	429a      	cmp	r2, r3
 80006a2:	dd00      	ble.n	80006a6 <__aeabi_ddiv+0x28a>
 80006a4:	e71f      	b.n	80004e6 <__aeabi_ddiv+0xca>
 80006a6:	4643      	mov	r3, r8
 80006a8:	075b      	lsls	r3, r3, #29
 80006aa:	431d      	orrs	r5, r3
 80006ac:	4643      	mov	r3, r8
 80006ae:	0552      	lsls	r2, r2, #21
 80006b0:	025c      	lsls	r4, r3, #9
 80006b2:	0b24      	lsrs	r4, r4, #12
 80006b4:	0d53      	lsrs	r3, r2, #21
 80006b6:	e708      	b.n	80004ca <__aeabi_ddiv+0xae>
 80006b8:	4652      	mov	r2, sl
 80006ba:	4322      	orrs	r2, r4
 80006bc:	d100      	bne.n	80006c0 <__aeabi_ddiv+0x2a4>
 80006be:	e07b      	b.n	80007b8 <__aeabi_ddiv+0x39c>
 80006c0:	2c00      	cmp	r4, #0
 80006c2:	d100      	bne.n	80006c6 <__aeabi_ddiv+0x2aa>
 80006c4:	e0fa      	b.n	80008bc <__aeabi_ddiv+0x4a0>
 80006c6:	0020      	movs	r0, r4
 80006c8:	f000 fc70 	bl	8000fac <__clzsi2>
 80006cc:	0002      	movs	r2, r0
 80006ce:	3a0b      	subs	r2, #11
 80006d0:	231d      	movs	r3, #29
 80006d2:	0001      	movs	r1, r0
 80006d4:	1a9b      	subs	r3, r3, r2
 80006d6:	4652      	mov	r2, sl
 80006d8:	3908      	subs	r1, #8
 80006da:	40da      	lsrs	r2, r3
 80006dc:	408c      	lsls	r4, r1
 80006de:	4314      	orrs	r4, r2
 80006e0:	4652      	mov	r2, sl
 80006e2:	408a      	lsls	r2, r1
 80006e4:	4b31      	ldr	r3, [pc, #196]	; (80007ac <__aeabi_ddiv+0x390>)
 80006e6:	4458      	add	r0, fp
 80006e8:	469b      	mov	fp, r3
 80006ea:	4483      	add	fp, r0
 80006ec:	2000      	movs	r0, #0
 80006ee:	e6d5      	b.n	800049c <__aeabi_ddiv+0x80>
 80006f0:	464b      	mov	r3, r9
 80006f2:	4323      	orrs	r3, r4
 80006f4:	4698      	mov	r8, r3
 80006f6:	d044      	beq.n	8000782 <__aeabi_ddiv+0x366>
 80006f8:	2c00      	cmp	r4, #0
 80006fa:	d100      	bne.n	80006fe <__aeabi_ddiv+0x2e2>
 80006fc:	e0ce      	b.n	800089c <__aeabi_ddiv+0x480>
 80006fe:	0020      	movs	r0, r4
 8000700:	f000 fc54 	bl	8000fac <__clzsi2>
 8000704:	0001      	movs	r1, r0
 8000706:	0002      	movs	r2, r0
 8000708:	390b      	subs	r1, #11
 800070a:	231d      	movs	r3, #29
 800070c:	1a5b      	subs	r3, r3, r1
 800070e:	4649      	mov	r1, r9
 8000710:	0010      	movs	r0, r2
 8000712:	40d9      	lsrs	r1, r3
 8000714:	3808      	subs	r0, #8
 8000716:	4084      	lsls	r4, r0
 8000718:	000b      	movs	r3, r1
 800071a:	464d      	mov	r5, r9
 800071c:	4323      	orrs	r3, r4
 800071e:	4698      	mov	r8, r3
 8000720:	4085      	lsls	r5, r0
 8000722:	4823      	ldr	r0, [pc, #140]	; (80007b0 <__aeabi_ddiv+0x394>)
 8000724:	1a83      	subs	r3, r0, r2
 8000726:	469b      	mov	fp, r3
 8000728:	2300      	movs	r3, #0
 800072a:	4699      	mov	r9, r3
 800072c:	9300      	str	r3, [sp, #0]
 800072e:	e69a      	b.n	8000466 <__aeabi_ddiv+0x4a>
 8000730:	464b      	mov	r3, r9
 8000732:	4323      	orrs	r3, r4
 8000734:	4698      	mov	r8, r3
 8000736:	d11d      	bne.n	8000774 <__aeabi_ddiv+0x358>
 8000738:	2308      	movs	r3, #8
 800073a:	4699      	mov	r9, r3
 800073c:	3b06      	subs	r3, #6
 800073e:	2500      	movs	r5, #0
 8000740:	4683      	mov	fp, r0
 8000742:	9300      	str	r3, [sp, #0]
 8000744:	e68f      	b.n	8000466 <__aeabi_ddiv+0x4a>
 8000746:	4652      	mov	r2, sl
 8000748:	4322      	orrs	r2, r4
 800074a:	d109      	bne.n	8000760 <__aeabi_ddiv+0x344>
 800074c:	2302      	movs	r3, #2
 800074e:	4649      	mov	r1, r9
 8000750:	4319      	orrs	r1, r3
 8000752:	4b18      	ldr	r3, [pc, #96]	; (80007b4 <__aeabi_ddiv+0x398>)
 8000754:	4689      	mov	r9, r1
 8000756:	469c      	mov	ip, r3
 8000758:	2400      	movs	r4, #0
 800075a:	2002      	movs	r0, #2
 800075c:	44e3      	add	fp, ip
 800075e:	e69d      	b.n	800049c <__aeabi_ddiv+0x80>
 8000760:	2303      	movs	r3, #3
 8000762:	464a      	mov	r2, r9
 8000764:	431a      	orrs	r2, r3
 8000766:	4b13      	ldr	r3, [pc, #76]	; (80007b4 <__aeabi_ddiv+0x398>)
 8000768:	4691      	mov	r9, r2
 800076a:	469c      	mov	ip, r3
 800076c:	4652      	mov	r2, sl
 800076e:	2003      	movs	r0, #3
 8000770:	44e3      	add	fp, ip
 8000772:	e693      	b.n	800049c <__aeabi_ddiv+0x80>
 8000774:	230c      	movs	r3, #12
 8000776:	4699      	mov	r9, r3
 8000778:	3b09      	subs	r3, #9
 800077a:	46a0      	mov	r8, r4
 800077c:	4683      	mov	fp, r0
 800077e:	9300      	str	r3, [sp, #0]
 8000780:	e671      	b.n	8000466 <__aeabi_ddiv+0x4a>
 8000782:	2304      	movs	r3, #4
 8000784:	4699      	mov	r9, r3
 8000786:	2300      	movs	r3, #0
 8000788:	469b      	mov	fp, r3
 800078a:	3301      	adds	r3, #1
 800078c:	2500      	movs	r5, #0
 800078e:	9300      	str	r3, [sp, #0]
 8000790:	e669      	b.n	8000466 <__aeabi_ddiv+0x4a>
 8000792:	46c0      	nop			; (mov r8, r8)
 8000794:	000007ff 	.word	0x000007ff
 8000798:	fffffc01 	.word	0xfffffc01
 800079c:	08002ee4 	.word	0x08002ee4
 80007a0:	000003ff 	.word	0x000003ff
 80007a4:	feffffff 	.word	0xfeffffff
 80007a8:	000007fe 	.word	0x000007fe
 80007ac:	000003f3 	.word	0x000003f3
 80007b0:	fffffc0d 	.word	0xfffffc0d
 80007b4:	fffff801 	.word	0xfffff801
 80007b8:	4649      	mov	r1, r9
 80007ba:	2301      	movs	r3, #1
 80007bc:	4319      	orrs	r1, r3
 80007be:	4689      	mov	r9, r1
 80007c0:	2400      	movs	r4, #0
 80007c2:	2001      	movs	r0, #1
 80007c4:	e66a      	b.n	800049c <__aeabi_ddiv+0x80>
 80007c6:	2300      	movs	r3, #0
 80007c8:	2480      	movs	r4, #128	; 0x80
 80007ca:	469a      	mov	sl, r3
 80007cc:	2500      	movs	r5, #0
 80007ce:	4b8a      	ldr	r3, [pc, #552]	; (80009f8 <__aeabi_ddiv+0x5dc>)
 80007d0:	0324      	lsls	r4, r4, #12
 80007d2:	e67a      	b.n	80004ca <__aeabi_ddiv+0xae>
 80007d4:	2501      	movs	r5, #1
 80007d6:	426d      	negs	r5, r5
 80007d8:	2301      	movs	r3, #1
 80007da:	1a9b      	subs	r3, r3, r2
 80007dc:	2b38      	cmp	r3, #56	; 0x38
 80007de:	dd00      	ble.n	80007e2 <__aeabi_ddiv+0x3c6>
 80007e0:	e670      	b.n	80004c4 <__aeabi_ddiv+0xa8>
 80007e2:	2b1f      	cmp	r3, #31
 80007e4:	dc00      	bgt.n	80007e8 <__aeabi_ddiv+0x3cc>
 80007e6:	e0bf      	b.n	8000968 <__aeabi_ddiv+0x54c>
 80007e8:	211f      	movs	r1, #31
 80007ea:	4249      	negs	r1, r1
 80007ec:	1a8a      	subs	r2, r1, r2
 80007ee:	4641      	mov	r1, r8
 80007f0:	40d1      	lsrs	r1, r2
 80007f2:	000a      	movs	r2, r1
 80007f4:	2b20      	cmp	r3, #32
 80007f6:	d004      	beq.n	8000802 <__aeabi_ddiv+0x3e6>
 80007f8:	4641      	mov	r1, r8
 80007fa:	4b80      	ldr	r3, [pc, #512]	; (80009fc <__aeabi_ddiv+0x5e0>)
 80007fc:	445b      	add	r3, fp
 80007fe:	4099      	lsls	r1, r3
 8000800:	430d      	orrs	r5, r1
 8000802:	1e6b      	subs	r3, r5, #1
 8000804:	419d      	sbcs	r5, r3
 8000806:	2307      	movs	r3, #7
 8000808:	432a      	orrs	r2, r5
 800080a:	001d      	movs	r5, r3
 800080c:	2400      	movs	r4, #0
 800080e:	4015      	ands	r5, r2
 8000810:	4213      	tst	r3, r2
 8000812:	d100      	bne.n	8000816 <__aeabi_ddiv+0x3fa>
 8000814:	e0d4      	b.n	80009c0 <__aeabi_ddiv+0x5a4>
 8000816:	210f      	movs	r1, #15
 8000818:	2300      	movs	r3, #0
 800081a:	4011      	ands	r1, r2
 800081c:	2904      	cmp	r1, #4
 800081e:	d100      	bne.n	8000822 <__aeabi_ddiv+0x406>
 8000820:	e0cb      	b.n	80009ba <__aeabi_ddiv+0x59e>
 8000822:	1d11      	adds	r1, r2, #4
 8000824:	4291      	cmp	r1, r2
 8000826:	4192      	sbcs	r2, r2
 8000828:	4252      	negs	r2, r2
 800082a:	189b      	adds	r3, r3, r2
 800082c:	000a      	movs	r2, r1
 800082e:	0219      	lsls	r1, r3, #8
 8000830:	d400      	bmi.n	8000834 <__aeabi_ddiv+0x418>
 8000832:	e0c2      	b.n	80009ba <__aeabi_ddiv+0x59e>
 8000834:	2301      	movs	r3, #1
 8000836:	2400      	movs	r4, #0
 8000838:	2500      	movs	r5, #0
 800083a:	e646      	b.n	80004ca <__aeabi_ddiv+0xae>
 800083c:	2380      	movs	r3, #128	; 0x80
 800083e:	4641      	mov	r1, r8
 8000840:	031b      	lsls	r3, r3, #12
 8000842:	4219      	tst	r1, r3
 8000844:	d008      	beq.n	8000858 <__aeabi_ddiv+0x43c>
 8000846:	421c      	tst	r4, r3
 8000848:	d106      	bne.n	8000858 <__aeabi_ddiv+0x43c>
 800084a:	431c      	orrs	r4, r3
 800084c:	0324      	lsls	r4, r4, #12
 800084e:	46ba      	mov	sl, r7
 8000850:	0015      	movs	r5, r2
 8000852:	4b69      	ldr	r3, [pc, #420]	; (80009f8 <__aeabi_ddiv+0x5dc>)
 8000854:	0b24      	lsrs	r4, r4, #12
 8000856:	e638      	b.n	80004ca <__aeabi_ddiv+0xae>
 8000858:	2480      	movs	r4, #128	; 0x80
 800085a:	4643      	mov	r3, r8
 800085c:	0324      	lsls	r4, r4, #12
 800085e:	431c      	orrs	r4, r3
 8000860:	0324      	lsls	r4, r4, #12
 8000862:	46b2      	mov	sl, r6
 8000864:	4b64      	ldr	r3, [pc, #400]	; (80009f8 <__aeabi_ddiv+0x5dc>)
 8000866:	0b24      	lsrs	r4, r4, #12
 8000868:	e62f      	b.n	80004ca <__aeabi_ddiv+0xae>
 800086a:	2b00      	cmp	r3, #0
 800086c:	d100      	bne.n	8000870 <__aeabi_ddiv+0x454>
 800086e:	e703      	b.n	8000678 <__aeabi_ddiv+0x25c>
 8000870:	19a6      	adds	r6, r4, r6
 8000872:	1e68      	subs	r0, r5, #1
 8000874:	42a6      	cmp	r6, r4
 8000876:	d200      	bcs.n	800087a <__aeabi_ddiv+0x45e>
 8000878:	e08d      	b.n	8000996 <__aeabi_ddiv+0x57a>
 800087a:	428e      	cmp	r6, r1
 800087c:	d200      	bcs.n	8000880 <__aeabi_ddiv+0x464>
 800087e:	e0a3      	b.n	80009c8 <__aeabi_ddiv+0x5ac>
 8000880:	d100      	bne.n	8000884 <__aeabi_ddiv+0x468>
 8000882:	e0b3      	b.n	80009ec <__aeabi_ddiv+0x5d0>
 8000884:	0005      	movs	r5, r0
 8000886:	e6f5      	b.n	8000674 <__aeabi_ddiv+0x258>
 8000888:	42aa      	cmp	r2, r5
 800088a:	d900      	bls.n	800088e <__aeabi_ddiv+0x472>
 800088c:	e639      	b.n	8000502 <__aeabi_ddiv+0xe6>
 800088e:	4643      	mov	r3, r8
 8000890:	07de      	lsls	r6, r3, #31
 8000892:	0858      	lsrs	r0, r3, #1
 8000894:	086b      	lsrs	r3, r5, #1
 8000896:	431e      	orrs	r6, r3
 8000898:	07ed      	lsls	r5, r5, #31
 800089a:	e639      	b.n	8000510 <__aeabi_ddiv+0xf4>
 800089c:	4648      	mov	r0, r9
 800089e:	f000 fb85 	bl	8000fac <__clzsi2>
 80008a2:	0001      	movs	r1, r0
 80008a4:	0002      	movs	r2, r0
 80008a6:	3115      	adds	r1, #21
 80008a8:	3220      	adds	r2, #32
 80008aa:	291c      	cmp	r1, #28
 80008ac:	dc00      	bgt.n	80008b0 <__aeabi_ddiv+0x494>
 80008ae:	e72c      	b.n	800070a <__aeabi_ddiv+0x2ee>
 80008b0:	464b      	mov	r3, r9
 80008b2:	3808      	subs	r0, #8
 80008b4:	4083      	lsls	r3, r0
 80008b6:	2500      	movs	r5, #0
 80008b8:	4698      	mov	r8, r3
 80008ba:	e732      	b.n	8000722 <__aeabi_ddiv+0x306>
 80008bc:	f000 fb76 	bl	8000fac <__clzsi2>
 80008c0:	0003      	movs	r3, r0
 80008c2:	001a      	movs	r2, r3
 80008c4:	3215      	adds	r2, #21
 80008c6:	3020      	adds	r0, #32
 80008c8:	2a1c      	cmp	r2, #28
 80008ca:	dc00      	bgt.n	80008ce <__aeabi_ddiv+0x4b2>
 80008cc:	e700      	b.n	80006d0 <__aeabi_ddiv+0x2b4>
 80008ce:	4654      	mov	r4, sl
 80008d0:	3b08      	subs	r3, #8
 80008d2:	2200      	movs	r2, #0
 80008d4:	409c      	lsls	r4, r3
 80008d6:	e705      	b.n	80006e4 <__aeabi_ddiv+0x2c8>
 80008d8:	1936      	adds	r6, r6, r4
 80008da:	3b01      	subs	r3, #1
 80008dc:	42b4      	cmp	r4, r6
 80008de:	d900      	bls.n	80008e2 <__aeabi_ddiv+0x4c6>
 80008e0:	e6a6      	b.n	8000630 <__aeabi_ddiv+0x214>
 80008e2:	42b2      	cmp	r2, r6
 80008e4:	d800      	bhi.n	80008e8 <__aeabi_ddiv+0x4cc>
 80008e6:	e6a3      	b.n	8000630 <__aeabi_ddiv+0x214>
 80008e8:	1e83      	subs	r3, r0, #2
 80008ea:	1936      	adds	r6, r6, r4
 80008ec:	e6a0      	b.n	8000630 <__aeabi_ddiv+0x214>
 80008ee:	1909      	adds	r1, r1, r4
 80008f0:	3d01      	subs	r5, #1
 80008f2:	428c      	cmp	r4, r1
 80008f4:	d900      	bls.n	80008f8 <__aeabi_ddiv+0x4dc>
 80008f6:	e68d      	b.n	8000614 <__aeabi_ddiv+0x1f8>
 80008f8:	428a      	cmp	r2, r1
 80008fa:	d800      	bhi.n	80008fe <__aeabi_ddiv+0x4e2>
 80008fc:	e68a      	b.n	8000614 <__aeabi_ddiv+0x1f8>
 80008fe:	1e85      	subs	r5, r0, #2
 8000900:	1909      	adds	r1, r1, r4
 8000902:	e687      	b.n	8000614 <__aeabi_ddiv+0x1f8>
 8000904:	230f      	movs	r3, #15
 8000906:	402b      	ands	r3, r5
 8000908:	2b04      	cmp	r3, #4
 800090a:	d100      	bne.n	800090e <__aeabi_ddiv+0x4f2>
 800090c:	e6bc      	b.n	8000688 <__aeabi_ddiv+0x26c>
 800090e:	2305      	movs	r3, #5
 8000910:	425b      	negs	r3, r3
 8000912:	42ab      	cmp	r3, r5
 8000914:	419b      	sbcs	r3, r3
 8000916:	3504      	adds	r5, #4
 8000918:	425b      	negs	r3, r3
 800091a:	08ed      	lsrs	r5, r5, #3
 800091c:	4498      	add	r8, r3
 800091e:	e6b4      	b.n	800068a <__aeabi_ddiv+0x26e>
 8000920:	42af      	cmp	r7, r5
 8000922:	d900      	bls.n	8000926 <__aeabi_ddiv+0x50a>
 8000924:	e660      	b.n	80005e8 <__aeabi_ddiv+0x1cc>
 8000926:	4282      	cmp	r2, r0
 8000928:	d804      	bhi.n	8000934 <__aeabi_ddiv+0x518>
 800092a:	d000      	beq.n	800092e <__aeabi_ddiv+0x512>
 800092c:	e65c      	b.n	80005e8 <__aeabi_ddiv+0x1cc>
 800092e:	42ae      	cmp	r6, r5
 8000930:	d800      	bhi.n	8000934 <__aeabi_ddiv+0x518>
 8000932:	e659      	b.n	80005e8 <__aeabi_ddiv+0x1cc>
 8000934:	2302      	movs	r3, #2
 8000936:	425b      	negs	r3, r3
 8000938:	469c      	mov	ip, r3
 800093a:	9b00      	ldr	r3, [sp, #0]
 800093c:	44e0      	add	r8, ip
 800093e:	469c      	mov	ip, r3
 8000940:	4465      	add	r5, ip
 8000942:	429d      	cmp	r5, r3
 8000944:	419b      	sbcs	r3, r3
 8000946:	425b      	negs	r3, r3
 8000948:	191b      	adds	r3, r3, r4
 800094a:	18c0      	adds	r0, r0, r3
 800094c:	e64d      	b.n	80005ea <__aeabi_ddiv+0x1ce>
 800094e:	428a      	cmp	r2, r1
 8000950:	d800      	bhi.n	8000954 <__aeabi_ddiv+0x538>
 8000952:	e60e      	b.n	8000572 <__aeabi_ddiv+0x156>
 8000954:	1e83      	subs	r3, r0, #2
 8000956:	1909      	adds	r1, r1, r4
 8000958:	e60b      	b.n	8000572 <__aeabi_ddiv+0x156>
 800095a:	428a      	cmp	r2, r1
 800095c:	d800      	bhi.n	8000960 <__aeabi_ddiv+0x544>
 800095e:	e5f4      	b.n	800054a <__aeabi_ddiv+0x12e>
 8000960:	1e83      	subs	r3, r0, #2
 8000962:	4698      	mov	r8, r3
 8000964:	1909      	adds	r1, r1, r4
 8000966:	e5f0      	b.n	800054a <__aeabi_ddiv+0x12e>
 8000968:	4925      	ldr	r1, [pc, #148]	; (8000a00 <__aeabi_ddiv+0x5e4>)
 800096a:	0028      	movs	r0, r5
 800096c:	4459      	add	r1, fp
 800096e:	408d      	lsls	r5, r1
 8000970:	4642      	mov	r2, r8
 8000972:	408a      	lsls	r2, r1
 8000974:	1e69      	subs	r1, r5, #1
 8000976:	418d      	sbcs	r5, r1
 8000978:	4641      	mov	r1, r8
 800097a:	40d8      	lsrs	r0, r3
 800097c:	40d9      	lsrs	r1, r3
 800097e:	4302      	orrs	r2, r0
 8000980:	432a      	orrs	r2, r5
 8000982:	000b      	movs	r3, r1
 8000984:	0751      	lsls	r1, r2, #29
 8000986:	d100      	bne.n	800098a <__aeabi_ddiv+0x56e>
 8000988:	e751      	b.n	800082e <__aeabi_ddiv+0x412>
 800098a:	210f      	movs	r1, #15
 800098c:	4011      	ands	r1, r2
 800098e:	2904      	cmp	r1, #4
 8000990:	d000      	beq.n	8000994 <__aeabi_ddiv+0x578>
 8000992:	e746      	b.n	8000822 <__aeabi_ddiv+0x406>
 8000994:	e74b      	b.n	800082e <__aeabi_ddiv+0x412>
 8000996:	0005      	movs	r5, r0
 8000998:	428e      	cmp	r6, r1
 800099a:	d000      	beq.n	800099e <__aeabi_ddiv+0x582>
 800099c:	e66a      	b.n	8000674 <__aeabi_ddiv+0x258>
 800099e:	9a00      	ldr	r2, [sp, #0]
 80009a0:	4293      	cmp	r3, r2
 80009a2:	d000      	beq.n	80009a6 <__aeabi_ddiv+0x58a>
 80009a4:	e666      	b.n	8000674 <__aeabi_ddiv+0x258>
 80009a6:	e667      	b.n	8000678 <__aeabi_ddiv+0x25c>
 80009a8:	4a16      	ldr	r2, [pc, #88]	; (8000a04 <__aeabi_ddiv+0x5e8>)
 80009aa:	445a      	add	r2, fp
 80009ac:	2a00      	cmp	r2, #0
 80009ae:	dc00      	bgt.n	80009b2 <__aeabi_ddiv+0x596>
 80009b0:	e710      	b.n	80007d4 <__aeabi_ddiv+0x3b8>
 80009b2:	2301      	movs	r3, #1
 80009b4:	2500      	movs	r5, #0
 80009b6:	4498      	add	r8, r3
 80009b8:	e667      	b.n	800068a <__aeabi_ddiv+0x26e>
 80009ba:	075d      	lsls	r5, r3, #29
 80009bc:	025b      	lsls	r3, r3, #9
 80009be:	0b1c      	lsrs	r4, r3, #12
 80009c0:	08d2      	lsrs	r2, r2, #3
 80009c2:	2300      	movs	r3, #0
 80009c4:	4315      	orrs	r5, r2
 80009c6:	e580      	b.n	80004ca <__aeabi_ddiv+0xae>
 80009c8:	9800      	ldr	r0, [sp, #0]
 80009ca:	3d02      	subs	r5, #2
 80009cc:	0042      	lsls	r2, r0, #1
 80009ce:	4282      	cmp	r2, r0
 80009d0:	41bf      	sbcs	r7, r7
 80009d2:	427f      	negs	r7, r7
 80009d4:	193c      	adds	r4, r7, r4
 80009d6:	1936      	adds	r6, r6, r4
 80009d8:	9200      	str	r2, [sp, #0]
 80009da:	e7dd      	b.n	8000998 <__aeabi_ddiv+0x57c>
 80009dc:	2480      	movs	r4, #128	; 0x80
 80009de:	4643      	mov	r3, r8
 80009e0:	0324      	lsls	r4, r4, #12
 80009e2:	431c      	orrs	r4, r3
 80009e4:	0324      	lsls	r4, r4, #12
 80009e6:	4b04      	ldr	r3, [pc, #16]	; (80009f8 <__aeabi_ddiv+0x5dc>)
 80009e8:	0b24      	lsrs	r4, r4, #12
 80009ea:	e56e      	b.n	80004ca <__aeabi_ddiv+0xae>
 80009ec:	9a00      	ldr	r2, [sp, #0]
 80009ee:	429a      	cmp	r2, r3
 80009f0:	d3ea      	bcc.n	80009c8 <__aeabi_ddiv+0x5ac>
 80009f2:	0005      	movs	r5, r0
 80009f4:	e7d3      	b.n	800099e <__aeabi_ddiv+0x582>
 80009f6:	46c0      	nop			; (mov r8, r8)
 80009f8:	000007ff 	.word	0x000007ff
 80009fc:	0000043e 	.word	0x0000043e
 8000a00:	0000041e 	.word	0x0000041e
 8000a04:	000003ff 	.word	0x000003ff

08000a08 <__aeabi_dmul>:
 8000a08:	b5f0      	push	{r4, r5, r6, r7, lr}
 8000a0a:	4657      	mov	r7, sl
 8000a0c:	464e      	mov	r6, r9
 8000a0e:	4645      	mov	r5, r8
 8000a10:	46de      	mov	lr, fp
 8000a12:	b5e0      	push	{r5, r6, r7, lr}
 8000a14:	4698      	mov	r8, r3
 8000a16:	030c      	lsls	r4, r1, #12
 8000a18:	004b      	lsls	r3, r1, #1
 8000a1a:	0006      	movs	r6, r0
 8000a1c:	4692      	mov	sl, r2
 8000a1e:	b087      	sub	sp, #28
 8000a20:	0b24      	lsrs	r4, r4, #12
 8000a22:	0d5b      	lsrs	r3, r3, #21
 8000a24:	0fcf      	lsrs	r7, r1, #31
 8000a26:	2b00      	cmp	r3, #0
 8000a28:	d100      	bne.n	8000a2c <__aeabi_dmul+0x24>
 8000a2a:	e15c      	b.n	8000ce6 <__aeabi_dmul+0x2de>
 8000a2c:	4ad9      	ldr	r2, [pc, #868]	; (8000d94 <__aeabi_dmul+0x38c>)
 8000a2e:	4293      	cmp	r3, r2
 8000a30:	d100      	bne.n	8000a34 <__aeabi_dmul+0x2c>
 8000a32:	e175      	b.n	8000d20 <__aeabi_dmul+0x318>
 8000a34:	0f42      	lsrs	r2, r0, #29
 8000a36:	00e4      	lsls	r4, r4, #3
 8000a38:	4314      	orrs	r4, r2
 8000a3a:	2280      	movs	r2, #128	; 0x80
 8000a3c:	0412      	lsls	r2, r2, #16
 8000a3e:	4314      	orrs	r4, r2
 8000a40:	4ad5      	ldr	r2, [pc, #852]	; (8000d98 <__aeabi_dmul+0x390>)
 8000a42:	00c5      	lsls	r5, r0, #3
 8000a44:	4694      	mov	ip, r2
 8000a46:	4463      	add	r3, ip
 8000a48:	9300      	str	r3, [sp, #0]
 8000a4a:	2300      	movs	r3, #0
 8000a4c:	4699      	mov	r9, r3
 8000a4e:	469b      	mov	fp, r3
 8000a50:	4643      	mov	r3, r8
 8000a52:	4642      	mov	r2, r8
 8000a54:	031e      	lsls	r6, r3, #12
 8000a56:	0fd2      	lsrs	r2, r2, #31
 8000a58:	005b      	lsls	r3, r3, #1
 8000a5a:	4650      	mov	r0, sl
 8000a5c:	4690      	mov	r8, r2
 8000a5e:	0b36      	lsrs	r6, r6, #12
 8000a60:	0d5b      	lsrs	r3, r3, #21
 8000a62:	d100      	bne.n	8000a66 <__aeabi_dmul+0x5e>
 8000a64:	e120      	b.n	8000ca8 <__aeabi_dmul+0x2a0>
 8000a66:	4acb      	ldr	r2, [pc, #812]	; (8000d94 <__aeabi_dmul+0x38c>)
 8000a68:	4293      	cmp	r3, r2
 8000a6a:	d100      	bne.n	8000a6e <__aeabi_dmul+0x66>
 8000a6c:	e162      	b.n	8000d34 <__aeabi_dmul+0x32c>
 8000a6e:	49ca      	ldr	r1, [pc, #808]	; (8000d98 <__aeabi_dmul+0x390>)
 8000a70:	0f42      	lsrs	r2, r0, #29
 8000a72:	468c      	mov	ip, r1
 8000a74:	9900      	ldr	r1, [sp, #0]
 8000a76:	4463      	add	r3, ip
 8000a78:	00f6      	lsls	r6, r6, #3
 8000a7a:	468c      	mov	ip, r1
 8000a7c:	4316      	orrs	r6, r2
 8000a7e:	2280      	movs	r2, #128	; 0x80
 8000a80:	449c      	add	ip, r3
 8000a82:	0412      	lsls	r2, r2, #16
 8000a84:	4663      	mov	r3, ip
 8000a86:	4316      	orrs	r6, r2
 8000a88:	00c2      	lsls	r2, r0, #3
 8000a8a:	2000      	movs	r0, #0
 8000a8c:	9300      	str	r3, [sp, #0]
 8000a8e:	9900      	ldr	r1, [sp, #0]
 8000a90:	4643      	mov	r3, r8
 8000a92:	3101      	adds	r1, #1
 8000a94:	468c      	mov	ip, r1
 8000a96:	4649      	mov	r1, r9
 8000a98:	407b      	eors	r3, r7
 8000a9a:	9301      	str	r3, [sp, #4]
 8000a9c:	290f      	cmp	r1, #15
 8000a9e:	d826      	bhi.n	8000aee <__aeabi_dmul+0xe6>
 8000aa0:	4bbe      	ldr	r3, [pc, #760]	; (8000d9c <__aeabi_dmul+0x394>)
 8000aa2:	0089      	lsls	r1, r1, #2
 8000aa4:	5859      	ldr	r1, [r3, r1]
 8000aa6:	468f      	mov	pc, r1
 8000aa8:	4643      	mov	r3, r8
 8000aaa:	9301      	str	r3, [sp, #4]
 8000aac:	0034      	movs	r4, r6
 8000aae:	0015      	movs	r5, r2
 8000ab0:	4683      	mov	fp, r0
 8000ab2:	465b      	mov	r3, fp
 8000ab4:	2b02      	cmp	r3, #2
 8000ab6:	d016      	beq.n	8000ae6 <__aeabi_dmul+0xde>
 8000ab8:	2b03      	cmp	r3, #3
 8000aba:	d100      	bne.n	8000abe <__aeabi_dmul+0xb6>
 8000abc:	e203      	b.n	8000ec6 <__aeabi_dmul+0x4be>
 8000abe:	2b01      	cmp	r3, #1
 8000ac0:	d000      	beq.n	8000ac4 <__aeabi_dmul+0xbc>
 8000ac2:	e0cd      	b.n	8000c60 <__aeabi_dmul+0x258>
 8000ac4:	2200      	movs	r2, #0
 8000ac6:	2400      	movs	r4, #0
 8000ac8:	2500      	movs	r5, #0
 8000aca:	9b01      	ldr	r3, [sp, #4]
 8000acc:	0512      	lsls	r2, r2, #20
 8000ace:	4322      	orrs	r2, r4
 8000ad0:	07db      	lsls	r3, r3, #31
 8000ad2:	431a      	orrs	r2, r3
 8000ad4:	0028      	movs	r0, r5
 8000ad6:	0011      	movs	r1, r2
 8000ad8:	b007      	add	sp, #28
 8000ada:	bcf0      	pop	{r4, r5, r6, r7}
 8000adc:	46bb      	mov	fp, r7
 8000ade:	46b2      	mov	sl, r6
 8000ae0:	46a9      	mov	r9, r5
 8000ae2:	46a0      	mov	r8, r4
 8000ae4:	bdf0      	pop	{r4, r5, r6, r7, pc}
 8000ae6:	2400      	movs	r4, #0
 8000ae8:	2500      	movs	r5, #0
 8000aea:	4aaa      	ldr	r2, [pc, #680]	; (8000d94 <__aeabi_dmul+0x38c>)
 8000aec:	e7ed      	b.n	8000aca <__aeabi_dmul+0xc2>
 8000aee:	0c28      	lsrs	r0, r5, #16
 8000af0:	042d      	lsls	r5, r5, #16
 8000af2:	0c2d      	lsrs	r5, r5, #16
 8000af4:	002b      	movs	r3, r5
 8000af6:	0c11      	lsrs	r1, r2, #16
 8000af8:	0412      	lsls	r2, r2, #16
 8000afa:	0c12      	lsrs	r2, r2, #16
 8000afc:	4353      	muls	r3, r2
 8000afe:	4698      	mov	r8, r3
 8000b00:	0013      	movs	r3, r2
 8000b02:	002f      	movs	r7, r5
 8000b04:	4343      	muls	r3, r0
 8000b06:	4699      	mov	r9, r3
 8000b08:	434f      	muls	r7, r1
 8000b0a:	444f      	add	r7, r9
 8000b0c:	46bb      	mov	fp, r7
 8000b0e:	4647      	mov	r7, r8
 8000b10:	000b      	movs	r3, r1
 8000b12:	0c3f      	lsrs	r7, r7, #16
 8000b14:	46ba      	mov	sl, r7
 8000b16:	4343      	muls	r3, r0
 8000b18:	44da      	add	sl, fp
 8000b1a:	9302      	str	r3, [sp, #8]
 8000b1c:	45d1      	cmp	r9, sl
 8000b1e:	d904      	bls.n	8000b2a <__aeabi_dmul+0x122>
 8000b20:	2780      	movs	r7, #128	; 0x80
 8000b22:	027f      	lsls	r7, r7, #9
 8000b24:	46b9      	mov	r9, r7
 8000b26:	444b      	add	r3, r9
 8000b28:	9302      	str	r3, [sp, #8]
 8000b2a:	4653      	mov	r3, sl
 8000b2c:	0c1b      	lsrs	r3, r3, #16
 8000b2e:	469b      	mov	fp, r3
 8000b30:	4653      	mov	r3, sl
 8000b32:	041f      	lsls	r7, r3, #16
 8000b34:	4643      	mov	r3, r8
 8000b36:	041b      	lsls	r3, r3, #16
 8000b38:	0c1b      	lsrs	r3, r3, #16
 8000b3a:	4698      	mov	r8, r3
 8000b3c:	003b      	movs	r3, r7
 8000b3e:	4443      	add	r3, r8
 8000b40:	9304      	str	r3, [sp, #16]
 8000b42:	0c33      	lsrs	r3, r6, #16
 8000b44:	0436      	lsls	r6, r6, #16
 8000b46:	0c36      	lsrs	r6, r6, #16
 8000b48:	4698      	mov	r8, r3
 8000b4a:	0033      	movs	r3, r6
 8000b4c:	4343      	muls	r3, r0
 8000b4e:	4699      	mov	r9, r3
 8000b50:	4643      	mov	r3, r8
 8000b52:	4343      	muls	r3, r0
 8000b54:	002f      	movs	r7, r5
 8000b56:	469a      	mov	sl, r3
 8000b58:	4643      	mov	r3, r8
 8000b5a:	4377      	muls	r7, r6
 8000b5c:	435d      	muls	r5, r3
 8000b5e:	0c38      	lsrs	r0, r7, #16
 8000b60:	444d      	add	r5, r9
 8000b62:	1945      	adds	r5, r0, r5
 8000b64:	45a9      	cmp	r9, r5
 8000b66:	d903      	bls.n	8000b70 <__aeabi_dmul+0x168>
 8000b68:	2380      	movs	r3, #128	; 0x80
 8000b6a:	025b      	lsls	r3, r3, #9
 8000b6c:	4699      	mov	r9, r3
 8000b6e:	44ca      	add	sl, r9
 8000b70:	043f      	lsls	r7, r7, #16
 8000b72:	0c28      	lsrs	r0, r5, #16
 8000b74:	0c3f      	lsrs	r7, r7, #16
 8000b76:	042d      	lsls	r5, r5, #16
 8000b78:	19ed      	adds	r5, r5, r7
 8000b7a:	0c27      	lsrs	r7, r4, #16
 8000b7c:	0424      	lsls	r4, r4, #16
 8000b7e:	0c24      	lsrs	r4, r4, #16
 8000b80:	0003      	movs	r3, r0
 8000b82:	0020      	movs	r0, r4
 8000b84:	4350      	muls	r0, r2
 8000b86:	437a      	muls	r2, r7
 8000b88:	4691      	mov	r9, r2
 8000b8a:	003a      	movs	r2, r7
 8000b8c:	4453      	add	r3, sl
 8000b8e:	9305      	str	r3, [sp, #20]
 8000b90:	0c03      	lsrs	r3, r0, #16
 8000b92:	469a      	mov	sl, r3
 8000b94:	434a      	muls	r2, r1
 8000b96:	4361      	muls	r1, r4
 8000b98:	4449      	add	r1, r9
 8000b9a:	4451      	add	r1, sl
 8000b9c:	44ab      	add	fp, r5
 8000b9e:	4589      	cmp	r9, r1
 8000ba0:	d903      	bls.n	8000baa <__aeabi_dmul+0x1a2>
 8000ba2:	2380      	movs	r3, #128	; 0x80
 8000ba4:	025b      	lsls	r3, r3, #9
 8000ba6:	4699      	mov	r9, r3
 8000ba8:	444a      	add	r2, r9
 8000baa:	0400      	lsls	r0, r0, #16
 8000bac:	0c0b      	lsrs	r3, r1, #16
 8000bae:	0c00      	lsrs	r0, r0, #16
 8000bb0:	0409      	lsls	r1, r1, #16
 8000bb2:	1809      	adds	r1, r1, r0
 8000bb4:	0020      	movs	r0, r4
 8000bb6:	4699      	mov	r9, r3
 8000bb8:	4643      	mov	r3, r8
 8000bba:	4370      	muls	r0, r6
 8000bbc:	435c      	muls	r4, r3
 8000bbe:	437e      	muls	r6, r7
 8000bc0:	435f      	muls	r7, r3
 8000bc2:	0c03      	lsrs	r3, r0, #16
 8000bc4:	4698      	mov	r8, r3
 8000bc6:	19a4      	adds	r4, r4, r6
 8000bc8:	4444      	add	r4, r8
 8000bca:	444a      	add	r2, r9
 8000bcc:	9703      	str	r7, [sp, #12]
 8000bce:	42a6      	cmp	r6, r4
 8000bd0:	d904      	bls.n	8000bdc <__aeabi_dmul+0x1d4>
 8000bd2:	2380      	movs	r3, #128	; 0x80
 8000bd4:	025b      	lsls	r3, r3, #9
 8000bd6:	4698      	mov	r8, r3
 8000bd8:	4447      	add	r7, r8
 8000bda:	9703      	str	r7, [sp, #12]
 8000bdc:	0423      	lsls	r3, r4, #16
 8000bde:	9e02      	ldr	r6, [sp, #8]
 8000be0:	469a      	mov	sl, r3
 8000be2:	9b05      	ldr	r3, [sp, #20]
 8000be4:	445e      	add	r6, fp
 8000be6:	4698      	mov	r8, r3
 8000be8:	42ae      	cmp	r6, r5
 8000bea:	41ad      	sbcs	r5, r5
 8000bec:	1876      	adds	r6, r6, r1
 8000bee:	428e      	cmp	r6, r1
 8000bf0:	4189      	sbcs	r1, r1
 8000bf2:	0400      	lsls	r0, r0, #16
 8000bf4:	0c00      	lsrs	r0, r0, #16
 8000bf6:	4450      	add	r0, sl
 8000bf8:	4440      	add	r0, r8
 8000bfa:	426d      	negs	r5, r5
 8000bfc:	1947      	adds	r7, r0, r5
 8000bfe:	46b8      	mov	r8, r7
 8000c00:	4693      	mov	fp, r2
 8000c02:	4249      	negs	r1, r1
 8000c04:	4689      	mov	r9, r1
 8000c06:	44c3      	add	fp, r8
 8000c08:	44d9      	add	r9, fp
 8000c0a:	4298      	cmp	r0, r3
 8000c0c:	4180      	sbcs	r0, r0
 8000c0e:	45a8      	cmp	r8, r5
 8000c10:	41ad      	sbcs	r5, r5
 8000c12:	4593      	cmp	fp, r2
 8000c14:	4192      	sbcs	r2, r2
 8000c16:	4589      	cmp	r9, r1
 8000c18:	4189      	sbcs	r1, r1
 8000c1a:	426d      	negs	r5, r5
 8000c1c:	4240      	negs	r0, r0
 8000c1e:	4328      	orrs	r0, r5
 8000c20:	0c24      	lsrs	r4, r4, #16
 8000c22:	4252      	negs	r2, r2
 8000c24:	4249      	negs	r1, r1
 8000c26:	430a      	orrs	r2, r1
 8000c28:	9b03      	ldr	r3, [sp, #12]
 8000c2a:	1900      	adds	r0, r0, r4
 8000c2c:	1880      	adds	r0, r0, r2
 8000c2e:	18c7      	adds	r7, r0, r3
 8000c30:	464b      	mov	r3, r9
 8000c32:	0ddc      	lsrs	r4, r3, #23
 8000c34:	9b04      	ldr	r3, [sp, #16]
 8000c36:	0275      	lsls	r5, r6, #9
 8000c38:	431d      	orrs	r5, r3
 8000c3a:	1e6a      	subs	r2, r5, #1
 8000c3c:	4195      	sbcs	r5, r2
 8000c3e:	464b      	mov	r3, r9
 8000c40:	0df6      	lsrs	r6, r6, #23
 8000c42:	027f      	lsls	r7, r7, #9
 8000c44:	4335      	orrs	r5, r6
 8000c46:	025a      	lsls	r2, r3, #9
 8000c48:	433c      	orrs	r4, r7
 8000c4a:	4315      	orrs	r5, r2
 8000c4c:	01fb      	lsls	r3, r7, #7
 8000c4e:	d400      	bmi.n	8000c52 <__aeabi_dmul+0x24a>
 8000c50:	e11c      	b.n	8000e8c <__aeabi_dmul+0x484>
 8000c52:	2101      	movs	r1, #1
 8000c54:	086a      	lsrs	r2, r5, #1
 8000c56:	400d      	ands	r5, r1
 8000c58:	4315      	orrs	r5, r2
 8000c5a:	07e2      	lsls	r2, r4, #31
 8000c5c:	4315      	orrs	r5, r2
 8000c5e:	0864      	lsrs	r4, r4, #1
 8000c60:	494f      	ldr	r1, [pc, #316]	; (8000da0 <__aeabi_dmul+0x398>)
 8000c62:	4461      	add	r1, ip
 8000c64:	2900      	cmp	r1, #0
 8000c66:	dc00      	bgt.n	8000c6a <__aeabi_dmul+0x262>
 8000c68:	e0b0      	b.n	8000dcc <__aeabi_dmul+0x3c4>
 8000c6a:	076b      	lsls	r3, r5, #29
 8000c6c:	d009      	beq.n	8000c82 <__aeabi_dmul+0x27a>
 8000c6e:	220f      	movs	r2, #15
 8000c70:	402a      	ands	r2, r5
 8000c72:	2a04      	cmp	r2, #4
 8000c74:	d005      	beq.n	8000c82 <__aeabi_dmul+0x27a>
 8000c76:	1d2a      	adds	r2, r5, #4
 8000c78:	42aa      	cmp	r2, r5
 8000c7a:	41ad      	sbcs	r5, r5
 8000c7c:	426d      	negs	r5, r5
 8000c7e:	1964      	adds	r4, r4, r5
 8000c80:	0015      	movs	r5, r2
 8000c82:	01e3      	lsls	r3, r4, #7
 8000c84:	d504      	bpl.n	8000c90 <__aeabi_dmul+0x288>
 8000c86:	2180      	movs	r1, #128	; 0x80
 8000c88:	4a46      	ldr	r2, [pc, #280]	; (8000da4 <__aeabi_dmul+0x39c>)
 8000c8a:	00c9      	lsls	r1, r1, #3
 8000c8c:	4014      	ands	r4, r2
 8000c8e:	4461      	add	r1, ip
 8000c90:	4a45      	ldr	r2, [pc, #276]	; (8000da8 <__aeabi_dmul+0x3a0>)
 8000c92:	4291      	cmp	r1, r2
 8000c94:	dd00      	ble.n	8000c98 <__aeabi_dmul+0x290>
 8000c96:	e726      	b.n	8000ae6 <__aeabi_dmul+0xde>
 8000c98:	0762      	lsls	r2, r4, #29
 8000c9a:	08ed      	lsrs	r5, r5, #3
 8000c9c:	0264      	lsls	r4, r4, #9
 8000c9e:	0549      	lsls	r1, r1, #21
 8000ca0:	4315      	orrs	r5, r2
 8000ca2:	0b24      	lsrs	r4, r4, #12
 8000ca4:	0d4a      	lsrs	r2, r1, #21
 8000ca6:	e710      	b.n	8000aca <__aeabi_dmul+0xc2>
 8000ca8:	4652      	mov	r2, sl
 8000caa:	4332      	orrs	r2, r6
 8000cac:	d100      	bne.n	8000cb0 <__aeabi_dmul+0x2a8>
 8000cae:	e07f      	b.n	8000db0 <__aeabi_dmul+0x3a8>
 8000cb0:	2e00      	cmp	r6, #0
 8000cb2:	d100      	bne.n	8000cb6 <__aeabi_dmul+0x2ae>
 8000cb4:	e0dc      	b.n	8000e70 <__aeabi_dmul+0x468>
 8000cb6:	0030      	movs	r0, r6
 8000cb8:	f000 f978 	bl	8000fac <__clzsi2>
 8000cbc:	0002      	movs	r2, r0
 8000cbe:	3a0b      	subs	r2, #11
 8000cc0:	231d      	movs	r3, #29
 8000cc2:	0001      	movs	r1, r0
 8000cc4:	1a9b      	subs	r3, r3, r2
 8000cc6:	4652      	mov	r2, sl
 8000cc8:	3908      	subs	r1, #8
 8000cca:	40da      	lsrs	r2, r3
 8000ccc:	408e      	lsls	r6, r1
 8000cce:	4316      	orrs	r6, r2
 8000cd0:	4652      	mov	r2, sl
 8000cd2:	408a      	lsls	r2, r1
 8000cd4:	9b00      	ldr	r3, [sp, #0]
 8000cd6:	4935      	ldr	r1, [pc, #212]	; (8000dac <__aeabi_dmul+0x3a4>)
 8000cd8:	1a18      	subs	r0, r3, r0
 8000cda:	0003      	movs	r3, r0
 8000cdc:	468c      	mov	ip, r1
 8000cde:	4463      	add	r3, ip
 8000ce0:	2000      	movs	r0, #0
 8000ce2:	9300      	str	r3, [sp, #0]
 8000ce4:	e6d3      	b.n	8000a8e <__aeabi_dmul+0x86>
 8000ce6:	0025      	movs	r5, r4
 8000ce8:	4305      	orrs	r5, r0
 8000cea:	d04a      	beq.n	8000d82 <__aeabi_dmul+0x37a>
 8000cec:	2c00      	cmp	r4, #0
 8000cee:	d100      	bne.n	8000cf2 <__aeabi_dmul+0x2ea>
 8000cf0:	e0b0      	b.n	8000e54 <__aeabi_dmul+0x44c>
 8000cf2:	0020      	movs	r0, r4
 8000cf4:	f000 f95a 	bl	8000fac <__clzsi2>
 8000cf8:	0001      	movs	r1, r0
 8000cfa:	0002      	movs	r2, r0
 8000cfc:	390b      	subs	r1, #11
 8000cfe:	231d      	movs	r3, #29
 8000d00:	0010      	movs	r0, r2
 8000d02:	1a5b      	subs	r3, r3, r1
 8000d04:	0031      	movs	r1, r6
 8000d06:	0035      	movs	r5, r6
 8000d08:	3808      	subs	r0, #8
 8000d0a:	4084      	lsls	r4, r0
 8000d0c:	40d9      	lsrs	r1, r3
 8000d0e:	4085      	lsls	r5, r0
 8000d10:	430c      	orrs	r4, r1
 8000d12:	4826      	ldr	r0, [pc, #152]	; (8000dac <__aeabi_dmul+0x3a4>)
 8000d14:	1a83      	subs	r3, r0, r2
 8000d16:	9300      	str	r3, [sp, #0]
 8000d18:	2300      	movs	r3, #0
 8000d1a:	4699      	mov	r9, r3
 8000d1c:	469b      	mov	fp, r3
 8000d1e:	e697      	b.n	8000a50 <__aeabi_dmul+0x48>
 8000d20:	0005      	movs	r5, r0
 8000d22:	4325      	orrs	r5, r4
 8000d24:	d126      	bne.n	8000d74 <__aeabi_dmul+0x36c>
 8000d26:	2208      	movs	r2, #8
 8000d28:	9300      	str	r3, [sp, #0]
 8000d2a:	2302      	movs	r3, #2
 8000d2c:	2400      	movs	r4, #0
 8000d2e:	4691      	mov	r9, r2
 8000d30:	469b      	mov	fp, r3
 8000d32:	e68d      	b.n	8000a50 <__aeabi_dmul+0x48>
 8000d34:	4652      	mov	r2, sl
 8000d36:	9b00      	ldr	r3, [sp, #0]
 8000d38:	4332      	orrs	r2, r6
 8000d3a:	d110      	bne.n	8000d5e <__aeabi_dmul+0x356>
 8000d3c:	4915      	ldr	r1, [pc, #84]	; (8000d94 <__aeabi_dmul+0x38c>)
 8000d3e:	2600      	movs	r6, #0
 8000d40:	468c      	mov	ip, r1
 8000d42:	4463      	add	r3, ip
 8000d44:	4649      	mov	r1, r9
 8000d46:	9300      	str	r3, [sp, #0]
 8000d48:	2302      	movs	r3, #2
 8000d4a:	4319      	orrs	r1, r3
 8000d4c:	4689      	mov	r9, r1
 8000d4e:	2002      	movs	r0, #2
 8000d50:	e69d      	b.n	8000a8e <__aeabi_dmul+0x86>
 8000d52:	465b      	mov	r3, fp
 8000d54:	9701      	str	r7, [sp, #4]
 8000d56:	2b02      	cmp	r3, #2
 8000d58:	d000      	beq.n	8000d5c <__aeabi_dmul+0x354>
 8000d5a:	e6ad      	b.n	8000ab8 <__aeabi_dmul+0xb0>
 8000d5c:	e6c3      	b.n	8000ae6 <__aeabi_dmul+0xde>
 8000d5e:	4a0d      	ldr	r2, [pc, #52]	; (8000d94 <__aeabi_dmul+0x38c>)
 8000d60:	2003      	movs	r0, #3
 8000d62:	4694      	mov	ip, r2
 8000d64:	4463      	add	r3, ip
 8000d66:	464a      	mov	r2, r9
 8000d68:	9300      	str	r3, [sp, #0]
 8000d6a:	2303      	movs	r3, #3
 8000d6c:	431a      	orrs	r2, r3
 8000d6e:	4691      	mov	r9, r2
 8000d70:	4652      	mov	r2, sl
 8000d72:	e68c      	b.n	8000a8e <__aeabi_dmul+0x86>
 8000d74:	220c      	movs	r2, #12
 8000d76:	9300      	str	r3, [sp, #0]
 8000d78:	2303      	movs	r3, #3
 8000d7a:	0005      	movs	r5, r0
 8000d7c:	4691      	mov	r9, r2
 8000d7e:	469b      	mov	fp, r3
 8000d80:	e666      	b.n	8000a50 <__aeabi_dmul+0x48>
 8000d82:	2304      	movs	r3, #4
 8000d84:	4699      	mov	r9, r3
 8000d86:	2300      	movs	r3, #0
 8000d88:	9300      	str	r3, [sp, #0]
 8000d8a:	3301      	adds	r3, #1
 8000d8c:	2400      	movs	r4, #0
 8000d8e:	469b      	mov	fp, r3
 8000d90:	e65e      	b.n	8000a50 <__aeabi_dmul+0x48>
 8000d92:	46c0      	nop			; (mov r8, r8)
 8000d94:	000007ff 	.word	0x000007ff
 8000d98:	fffffc01 	.word	0xfffffc01
 8000d9c:	08002f24 	.word	0x08002f24
 8000da0:	000003ff 	.word	0x000003ff
 8000da4:	feffffff 	.word	0xfeffffff
 8000da8:	000007fe 	.word	0x000007fe
 8000dac:	fffffc0d 	.word	0xfffffc0d
 8000db0:	4649      	mov	r1, r9
 8000db2:	2301      	movs	r3, #1
 8000db4:	4319      	orrs	r1, r3
 8000db6:	4689      	mov	r9, r1
 8000db8:	2600      	movs	r6, #0
 8000dba:	2001      	movs	r0, #1
 8000dbc:	e667      	b.n	8000a8e <__aeabi_dmul+0x86>
 8000dbe:	2300      	movs	r3, #0
 8000dc0:	2480      	movs	r4, #128	; 0x80
 8000dc2:	2500      	movs	r5, #0
 8000dc4:	4a43      	ldr	r2, [pc, #268]	; (8000ed4 <__aeabi_dmul+0x4cc>)
 8000dc6:	9301      	str	r3, [sp, #4]
 8000dc8:	0324      	lsls	r4, r4, #12
 8000dca:	e67e      	b.n	8000aca <__aeabi_dmul+0xc2>
 8000dcc:	2001      	movs	r0, #1
 8000dce:	1a40      	subs	r0, r0, r1
 8000dd0:	2838      	cmp	r0, #56	; 0x38
 8000dd2:	dd00      	ble.n	8000dd6 <__aeabi_dmul+0x3ce>
 8000dd4:	e676      	b.n	8000ac4 <__aeabi_dmul+0xbc>
 8000dd6:	281f      	cmp	r0, #31
 8000dd8:	dd5b      	ble.n	8000e92 <__aeabi_dmul+0x48a>
 8000dda:	221f      	movs	r2, #31
 8000ddc:	0023      	movs	r3, r4
 8000dde:	4252      	negs	r2, r2
 8000de0:	1a51      	subs	r1, r2, r1
 8000de2:	40cb      	lsrs	r3, r1
 8000de4:	0019      	movs	r1, r3
 8000de6:	2820      	cmp	r0, #32
 8000de8:	d003      	beq.n	8000df2 <__aeabi_dmul+0x3ea>
 8000dea:	4a3b      	ldr	r2, [pc, #236]	; (8000ed8 <__aeabi_dmul+0x4d0>)
 8000dec:	4462      	add	r2, ip
 8000dee:	4094      	lsls	r4, r2
 8000df0:	4325      	orrs	r5, r4
 8000df2:	1e6a      	subs	r2, r5, #1
 8000df4:	4195      	sbcs	r5, r2
 8000df6:	002a      	movs	r2, r5
 8000df8:	430a      	orrs	r2, r1
 8000dfa:	2107      	movs	r1, #7
 8000dfc:	000d      	movs	r5, r1
 8000dfe:	2400      	movs	r4, #0
 8000e00:	4015      	ands	r5, r2
 8000e02:	4211      	tst	r1, r2
 8000e04:	d05b      	beq.n	8000ebe <__aeabi_dmul+0x4b6>
 8000e06:	210f      	movs	r1, #15
 8000e08:	2400      	movs	r4, #0
 8000e0a:	4011      	ands	r1, r2
 8000e0c:	2904      	cmp	r1, #4
 8000e0e:	d053      	beq.n	8000eb8 <__aeabi_dmul+0x4b0>
 8000e10:	1d11      	adds	r1, r2, #4
 8000e12:	4291      	cmp	r1, r2
 8000e14:	4192      	sbcs	r2, r2
 8000e16:	4252      	negs	r2, r2
 8000e18:	18a4      	adds	r4, r4, r2
 8000e1a:	000a      	movs	r2, r1
 8000e1c:	0223      	lsls	r3, r4, #8
 8000e1e:	d54b      	bpl.n	8000eb8 <__aeabi_dmul+0x4b0>
 8000e20:	2201      	movs	r2, #1
 8000e22:	2400      	movs	r4, #0
 8000e24:	2500      	movs	r5, #0
 8000e26:	e650      	b.n	8000aca <__aeabi_dmul+0xc2>
 8000e28:	2380      	movs	r3, #128	; 0x80
 8000e2a:	031b      	lsls	r3, r3, #12
 8000e2c:	421c      	tst	r4, r3
 8000e2e:	d009      	beq.n	8000e44 <__aeabi_dmul+0x43c>
 8000e30:	421e      	tst	r6, r3
 8000e32:	d107      	bne.n	8000e44 <__aeabi_dmul+0x43c>
 8000e34:	4333      	orrs	r3, r6
 8000e36:	031c      	lsls	r4, r3, #12
 8000e38:	4643      	mov	r3, r8
 8000e3a:	0015      	movs	r5, r2
 8000e3c:	0b24      	lsrs	r4, r4, #12
 8000e3e:	4a25      	ldr	r2, [pc, #148]	; (8000ed4 <__aeabi_dmul+0x4cc>)
 8000e40:	9301      	str	r3, [sp, #4]
 8000e42:	e642      	b.n	8000aca <__aeabi_dmul+0xc2>
 8000e44:	2280      	movs	r2, #128	; 0x80
 8000e46:	0312      	lsls	r2, r2, #12
 8000e48:	4314      	orrs	r4, r2
 8000e4a:	0324      	lsls	r4, r4, #12
 8000e4c:	4a21      	ldr	r2, [pc, #132]	; (8000ed4 <__aeabi_dmul+0x4cc>)
 8000e4e:	0b24      	lsrs	r4, r4, #12
 8000e50:	9701      	str	r7, [sp, #4]
 8000e52:	e63a      	b.n	8000aca <__aeabi_dmul+0xc2>
 8000e54:	f000 f8aa 	bl	8000fac <__clzsi2>
 8000e58:	0001      	movs	r1, r0
 8000e5a:	0002      	movs	r2, r0
 8000e5c:	3115      	adds	r1, #21
 8000e5e:	3220      	adds	r2, #32
 8000e60:	291c      	cmp	r1, #28
 8000e62:	dc00      	bgt.n	8000e66 <__aeabi_dmul+0x45e>
 8000e64:	e74b      	b.n	8000cfe <__aeabi_dmul+0x2f6>
 8000e66:	0034      	movs	r4, r6
 8000e68:	3808      	subs	r0, #8
 8000e6a:	2500      	movs	r5, #0
 8000e6c:	4084      	lsls	r4, r0
 8000e6e:	e750      	b.n	8000d12 <__aeabi_dmul+0x30a>
 8000e70:	f000 f89c 	bl	8000fac <__clzsi2>
 8000e74:	0003      	movs	r3, r0
 8000e76:	001a      	movs	r2, r3
 8000e78:	3215      	adds	r2, #21
 8000e7a:	3020      	adds	r0, #32
 8000e7c:	2a1c      	cmp	r2, #28
 8000e7e:	dc00      	bgt.n	8000e82 <__aeabi_dmul+0x47a>
 8000e80:	e71e      	b.n	8000cc0 <__aeabi_dmul+0x2b8>
 8000e82:	4656      	mov	r6, sl
 8000e84:	3b08      	subs	r3, #8
 8000e86:	2200      	movs	r2, #0
 8000e88:	409e      	lsls	r6, r3
 8000e8a:	e723      	b.n	8000cd4 <__aeabi_dmul+0x2cc>
 8000e8c:	9b00      	ldr	r3, [sp, #0]
 8000e8e:	469c      	mov	ip, r3
 8000e90:	e6e6      	b.n	8000c60 <__aeabi_dmul+0x258>
 8000e92:	4912      	ldr	r1, [pc, #72]	; (8000edc <__aeabi_dmul+0x4d4>)
 8000e94:	0022      	movs	r2, r4
 8000e96:	4461      	add	r1, ip
 8000e98:	002e      	movs	r6, r5
 8000e9a:	408d      	lsls	r5, r1
 8000e9c:	408a      	lsls	r2, r1
 8000e9e:	40c6      	lsrs	r6, r0
 8000ea0:	1e69      	subs	r1, r5, #1
 8000ea2:	418d      	sbcs	r5, r1
 8000ea4:	4332      	orrs	r2, r6
 8000ea6:	432a      	orrs	r2, r5
 8000ea8:	40c4      	lsrs	r4, r0
 8000eaa:	0753      	lsls	r3, r2, #29
 8000eac:	d0b6      	beq.n	8000e1c <__aeabi_dmul+0x414>
 8000eae:	210f      	movs	r1, #15
 8000eb0:	4011      	ands	r1, r2
 8000eb2:	2904      	cmp	r1, #4
 8000eb4:	d1ac      	bne.n	8000e10 <__aeabi_dmul+0x408>
 8000eb6:	e7b1      	b.n	8000e1c <__aeabi_dmul+0x414>
 8000eb8:	0765      	lsls	r5, r4, #29
 8000eba:	0264      	lsls	r4, r4, #9
 8000ebc:	0b24      	lsrs	r4, r4, #12
 8000ebe:	08d2      	lsrs	r2, r2, #3
 8000ec0:	4315      	orrs	r5, r2
 8000ec2:	2200      	movs	r2, #0
 8000ec4:	e601      	b.n	8000aca <__aeabi_dmul+0xc2>
 8000ec6:	2280      	movs	r2, #128	; 0x80
 8000ec8:	0312      	lsls	r2, r2, #12
 8000eca:	4314      	orrs	r4, r2
 8000ecc:	0324      	lsls	r4, r4, #12
 8000ece:	4a01      	ldr	r2, [pc, #4]	; (8000ed4 <__aeabi_dmul+0x4cc>)
 8000ed0:	0b24      	lsrs	r4, r4, #12
 8000ed2:	e5fa      	b.n	8000aca <__aeabi_dmul+0xc2>
 8000ed4:	000007ff 	.word	0x000007ff
 8000ed8:	0000043e 	.word	0x0000043e
 8000edc:	0000041e 	.word	0x0000041e

08000ee0 <__aeabi_d2iz>:
 8000ee0:	000a      	movs	r2, r1
 8000ee2:	b530      	push	{r4, r5, lr}
 8000ee4:	4c13      	ldr	r4, [pc, #76]	; (8000f34 <__aeabi_d2iz+0x54>)
 8000ee6:	0053      	lsls	r3, r2, #1
 8000ee8:	0309      	lsls	r1, r1, #12
 8000eea:	0005      	movs	r5, r0
 8000eec:	0b09      	lsrs	r1, r1, #12
 8000eee:	2000      	movs	r0, #0
 8000ef0:	0d5b      	lsrs	r3, r3, #21
 8000ef2:	0fd2      	lsrs	r2, r2, #31
 8000ef4:	42a3      	cmp	r3, r4
 8000ef6:	dd04      	ble.n	8000f02 <__aeabi_d2iz+0x22>
 8000ef8:	480f      	ldr	r0, [pc, #60]	; (8000f38 <__aeabi_d2iz+0x58>)
 8000efa:	4283      	cmp	r3, r0
 8000efc:	dd02      	ble.n	8000f04 <__aeabi_d2iz+0x24>
 8000efe:	4b0f      	ldr	r3, [pc, #60]	; (8000f3c <__aeabi_d2iz+0x5c>)
 8000f00:	18d0      	adds	r0, r2, r3
 8000f02:	bd30      	pop	{r4, r5, pc}
 8000f04:	2080      	movs	r0, #128	; 0x80
 8000f06:	0340      	lsls	r0, r0, #13
 8000f08:	4301      	orrs	r1, r0
 8000f0a:	480d      	ldr	r0, [pc, #52]	; (8000f40 <__aeabi_d2iz+0x60>)
 8000f0c:	1ac0      	subs	r0, r0, r3
 8000f0e:	281f      	cmp	r0, #31
 8000f10:	dd08      	ble.n	8000f24 <__aeabi_d2iz+0x44>
 8000f12:	480c      	ldr	r0, [pc, #48]	; (8000f44 <__aeabi_d2iz+0x64>)
 8000f14:	1ac3      	subs	r3, r0, r3
 8000f16:	40d9      	lsrs	r1, r3
 8000f18:	000b      	movs	r3, r1
 8000f1a:	4258      	negs	r0, r3
 8000f1c:	2a00      	cmp	r2, #0
 8000f1e:	d1f0      	bne.n	8000f02 <__aeabi_d2iz+0x22>
 8000f20:	0018      	movs	r0, r3
 8000f22:	e7ee      	b.n	8000f02 <__aeabi_d2iz+0x22>
 8000f24:	4c08      	ldr	r4, [pc, #32]	; (8000f48 <__aeabi_d2iz+0x68>)
 8000f26:	40c5      	lsrs	r5, r0
 8000f28:	46a4      	mov	ip, r4
 8000f2a:	4463      	add	r3, ip
 8000f2c:	4099      	lsls	r1, r3
 8000f2e:	000b      	movs	r3, r1
 8000f30:	432b      	orrs	r3, r5
 8000f32:	e7f2      	b.n	8000f1a <__aeabi_d2iz+0x3a>
 8000f34:	000003fe 	.word	0x000003fe
 8000f38:	0000041d 	.word	0x0000041d
 8000f3c:	7fffffff 	.word	0x7fffffff
 8000f40:	00000433 	.word	0x00000433
 8000f44:	00000413 	.word	0x00000413
 8000f48:	fffffbed 	.word	0xfffffbed

08000f4c <__aeabi_i2d>:
 8000f4c:	b570      	push	{r4, r5, r6, lr}
 8000f4e:	2800      	cmp	r0, #0
 8000f50:	d016      	beq.n	8000f80 <__aeabi_i2d+0x34>
 8000f52:	17c3      	asrs	r3, r0, #31
 8000f54:	18c5      	adds	r5, r0, r3
 8000f56:	405d      	eors	r5, r3
 8000f58:	0fc4      	lsrs	r4, r0, #31
 8000f5a:	0028      	movs	r0, r5
 8000f5c:	f000 f826 	bl	8000fac <__clzsi2>
 8000f60:	4a11      	ldr	r2, [pc, #68]	; (8000fa8 <__aeabi_i2d+0x5c>)
 8000f62:	1a12      	subs	r2, r2, r0
 8000f64:	280a      	cmp	r0, #10
 8000f66:	dc16      	bgt.n	8000f96 <__aeabi_i2d+0x4a>
 8000f68:	0003      	movs	r3, r0
 8000f6a:	002e      	movs	r6, r5
 8000f6c:	3315      	adds	r3, #21
 8000f6e:	409e      	lsls	r6, r3
 8000f70:	230b      	movs	r3, #11
 8000f72:	1a18      	subs	r0, r3, r0
 8000f74:	40c5      	lsrs	r5, r0
 8000f76:	0552      	lsls	r2, r2, #21
 8000f78:	032d      	lsls	r5, r5, #12
 8000f7a:	0b2d      	lsrs	r5, r5, #12
 8000f7c:	0d53      	lsrs	r3, r2, #21
 8000f7e:	e003      	b.n	8000f88 <__aeabi_i2d+0x3c>
 8000f80:	2400      	movs	r4, #0
 8000f82:	2300      	movs	r3, #0
 8000f84:	2500      	movs	r5, #0
 8000f86:	2600      	movs	r6, #0
 8000f88:	051b      	lsls	r3, r3, #20
 8000f8a:	432b      	orrs	r3, r5
 8000f8c:	07e4      	lsls	r4, r4, #31
 8000f8e:	4323      	orrs	r3, r4
 8000f90:	0030      	movs	r0, r6
 8000f92:	0019      	movs	r1, r3
 8000f94:	bd70      	pop	{r4, r5, r6, pc}
 8000f96:	380b      	subs	r0, #11
 8000f98:	4085      	lsls	r5, r0
 8000f9a:	0552      	lsls	r2, r2, #21
 8000f9c:	032d      	lsls	r5, r5, #12
 8000f9e:	2600      	movs	r6, #0
 8000fa0:	0b2d      	lsrs	r5, r5, #12
 8000fa2:	0d53      	lsrs	r3, r2, #21
 8000fa4:	e7f0      	b.n	8000f88 <__aeabi_i2d+0x3c>
 8000fa6:	46c0      	nop			; (mov r8, r8)
 8000fa8:	0000041e 	.word	0x0000041e

08000fac <__clzsi2>:
 8000fac:	211c      	movs	r1, #28
 8000fae:	2301      	movs	r3, #1
 8000fb0:	041b      	lsls	r3, r3, #16
 8000fb2:	4298      	cmp	r0, r3
 8000fb4:	d301      	bcc.n	8000fba <__clzsi2+0xe>
 8000fb6:	0c00      	lsrs	r0, r0, #16
 8000fb8:	3910      	subs	r1, #16
 8000fba:	0a1b      	lsrs	r3, r3, #8
 8000fbc:	4298      	cmp	r0, r3
 8000fbe:	d301      	bcc.n	8000fc4 <__clzsi2+0x18>
 8000fc0:	0a00      	lsrs	r0, r0, #8
 8000fc2:	3908      	subs	r1, #8
 8000fc4:	091b      	lsrs	r3, r3, #4
 8000fc6:	4298      	cmp	r0, r3
 8000fc8:	d301      	bcc.n	8000fce <__clzsi2+0x22>
 8000fca:	0900      	lsrs	r0, r0, #4
 8000fcc:	3904      	subs	r1, #4
 8000fce:	a202      	add	r2, pc, #8	; (adr r2, 8000fd8 <__clzsi2+0x2c>)
 8000fd0:	5c10      	ldrb	r0, [r2, r0]
 8000fd2:	1840      	adds	r0, r0, r1
 8000fd4:	4770      	bx	lr
 8000fd6:	46c0      	nop			; (mov r8, r8)
 8000fd8:	02020304 	.word	0x02020304
 8000fdc:	01010101 	.word	0x01010101
	...

08000fe8 <_ZN6AS5600C1EP19__I2C_HandleTypeDef>:
 8000fe8:	4b03      	ldr	r3, [pc, #12]	; (8000ff8 <_ZN6AS5600C1EP19__I2C_HandleTypeDef+0x10>)
 8000fea:	6001      	str	r1, [r0, #0]
 8000fec:	8083      	strh	r3, [r0, #4]
 8000fee:	2300      	movs	r3, #0
 8000ff0:	6083      	str	r3, [r0, #8]
 8000ff2:	60c3      	str	r3, [r0, #12]
 8000ff4:	4770      	bx	lr
 8000ff6:	46c0      	nop			; (mov r8, r8)
 8000ff8:	00000e6c 	.word	0x00000e6c

08000ffc <_ZN6AS560010get_travelEv>:
 8000ffc:	b573      	push	{r0, r1, r4, r5, r6, lr}
 8000ffe:	25fa      	movs	r5, #250	; 0xfa
 8001000:	0004      	movs	r4, r0
 8001002:	00ad      	lsls	r5, r5, #2
 8001004:	7901      	ldrb	r1, [r0, #4]
 8001006:	9500      	str	r5, [sp, #0]
 8001008:	1d42      	adds	r2, r0, #5
 800100a:	2301      	movs	r3, #1
 800100c:	6800      	ldr	r0, [r0, #0]
 800100e:	f000 ff21 	bl	8001e54 <HAL_I2C_Master_Transmit>
 8001012:	2302      	movs	r3, #2
 8001014:	7921      	ldrb	r1, [r4, #4]
 8001016:	1da2      	adds	r2, r4, #6
 8001018:	6820      	ldr	r0, [r4, #0]
 800101a:	9500      	str	r5, [sp, #0]
 800101c:	f000 ffac 	bl	8001f78 <HAL_I2C_Master_Receive>
 8001020:	79a3      	ldrb	r3, [r4, #6]
 8001022:	79e1      	ldrb	r1, [r4, #7]
 8001024:	021b      	lsls	r3, r3, #8
 8001026:	18c9      	adds	r1, r1, r3
 8001028:	8a60      	ldrh	r0, [r4, #18]
 800102a:	b289      	uxth	r1, r1
 800102c:	68a2      	ldr	r2, [r4, #8]
 800102e:	8221      	strh	r1, [r4, #16]
 8001030:	1a0b      	subs	r3, r1, r0
 8001032:	2b00      	cmp	r3, #0
 8001034:	dd16      	ble.n	8001064 <_ZN6AS560010get_travelEv+0x68>
 8001036:	4d18      	ldr	r5, [pc, #96]	; (8001098 <_ZN6AS560010get_travelEv+0x9c>)
 8001038:	4e18      	ldr	r6, [pc, #96]	; (800109c <_ZN6AS560010get_travelEv+0xa0>)
 800103a:	195d      	adds	r5, r3, r5
 800103c:	42b5      	cmp	r5, r6
 800103e:	d820      	bhi.n	8001082 <_ZN6AS560010get_travelEv+0x86>
 8001040:	189b      	adds	r3, r3, r2
 8001042:	60a3      	str	r3, [r4, #8]
 8001044:	68a0      	ldr	r0, [r4, #8]
 8001046:	8261      	strh	r1, [r4, #18]
 8001048:	60e0      	str	r0, [r4, #12]
 800104a:	f7ff ff7f 	bl	8000f4c <__aeabi_i2d>
 800104e:	4a14      	ldr	r2, [pc, #80]	; (80010a0 <_ZN6AS560010get_travelEv+0xa4>)
 8001050:	4b14      	ldr	r3, [pc, #80]	; (80010a4 <_ZN6AS560010get_travelEv+0xa8>)
 8001052:	f7ff fcd9 	bl	8000a08 <__aeabi_dmul>
 8001056:	2200      	movs	r2, #0
 8001058:	4b13      	ldr	r3, [pc, #76]	; (80010a8 <_ZN6AS560010get_travelEv+0xac>)
 800105a:	f7ff f9df 	bl	800041c <__aeabi_ddiv>
 800105e:	f7ff ff3f 	bl	8000ee0 <__aeabi_d2iz>
 8001062:	bd76      	pop	{r1, r2, r4, r5, r6, pc}
 8001064:	2b00      	cmp	r3, #0
 8001066:	d004      	beq.n	8001072 <_ZN6AS560010get_travelEv+0x76>
 8001068:	4d0b      	ldr	r5, [pc, #44]	; (8001098 <_ZN6AS560010get_travelEv+0x9c>)
 800106a:	4e0c      	ldr	r6, [pc, #48]	; (800109c <_ZN6AS560010get_travelEv+0xa0>)
 800106c:	195d      	adds	r5, r3, r5
 800106e:	42b5      	cmp	r5, r6
 8001070:	d9e6      	bls.n	8001040 <_ZN6AS560010get_travelEv+0x44>
 8001072:	4d0e      	ldr	r5, [pc, #56]	; (80010ac <_ZN6AS560010get_travelEv+0xb0>)
 8001074:	42ab      	cmp	r3, r5
 8001076:	dae5      	bge.n	8001044 <_ZN6AS560010get_travelEv+0x48>
 8001078:	4b0d      	ldr	r3, [pc, #52]	; (80010b0 <_ZN6AS560010get_travelEv+0xb4>)
 800107a:	188a      	adds	r2, r1, r2
 800107c:	1a12      	subs	r2, r2, r0
 800107e:	18d2      	adds	r2, r2, r3
 8001080:	e007      	b.n	8001092 <_ZN6AS560010get_travelEv+0x96>
 8001082:	25fa      	movs	r5, #250	; 0xfa
 8001084:	012d      	lsls	r5, r5, #4
 8001086:	42ab      	cmp	r3, r5
 8001088:	d0dc      	beq.n	8001044 <_ZN6AS560010get_travelEv+0x48>
 800108a:	4b09      	ldr	r3, [pc, #36]	; (80010b0 <_ZN6AS560010get_travelEv+0xb4>)
 800108c:	1a40      	subs	r0, r0, r1
 800108e:	18c0      	adds	r0, r0, r3
 8001090:	1a12      	subs	r2, r2, r0
 8001092:	60a2      	str	r2, [r4, #8]
 8001094:	e7d6      	b.n	8001044 <_ZN6AS560010get_travelEv+0x48>
 8001096:	46c0      	nop			; (mov r8, r8)
 8001098:	00000f9f 	.word	0x00000f9f
 800109c:	00001f3e 	.word	0x00001f3e
 80010a0:	66666666 	.word	0x66666666
 80010a4:	402f6666 	.word	0x402f6666
 80010a8:	40affe00 	.word	0x40affe00
 80010ac:	fffff060 	.word	0xfffff060
 80010b0:	00000fff 	.word	0x00000fff

080010b4 <_Z6readIDv>:
 80010b4:	20a0      	movs	r0, #160	; 0xa0
 80010b6:	2120      	movs	r1, #32
 80010b8:	b510      	push	{r4, lr}
 80010ba:	05c0      	lsls	r0, r0, #23
 80010bc:	f000 fcee 	bl	8001a9c <HAL_GPIO_ReadPin>
 80010c0:	2300      	movs	r3, #0
 80010c2:	2801      	cmp	r0, #1
 80010c4:	d022      	beq.n	800110c <_Z6readIDv+0x58>
 80010c6:	20a0      	movs	r0, #160	; 0xa0
 80010c8:	2140      	movs	r1, #64	; 0x40
 80010ca:	05c0      	lsls	r0, r0, #23
 80010cc:	f000 fce6 	bl	8001a9c <HAL_GPIO_ReadPin>
 80010d0:	0003      	movs	r3, r0
 80010d2:	2801      	cmp	r0, #1
 80010d4:	d01a      	beq.n	800110c <_Z6readIDv+0x58>
 80010d6:	20a0      	movs	r0, #160	; 0xa0
 80010d8:	2180      	movs	r1, #128	; 0x80
 80010da:	05c0      	lsls	r0, r0, #23
 80010dc:	f000 fcde 	bl	8001a9c <HAL_GPIO_ReadPin>
 80010e0:	2302      	movs	r3, #2
 80010e2:	2801      	cmp	r0, #1
 80010e4:	d012      	beq.n	800110c <_Z6readIDv+0x58>
 80010e6:	2180      	movs	r1, #128	; 0x80
 80010e8:	20a0      	movs	r0, #160	; 0xa0
 80010ea:	0049      	lsls	r1, r1, #1
 80010ec:	05c0      	lsls	r0, r0, #23
 80010ee:	f000 fcd5 	bl	8001a9c <HAL_GPIO_ReadPin>
 80010f2:	2303      	movs	r3, #3
 80010f4:	2801      	cmp	r0, #1
 80010f6:	d009      	beq.n	800110c <_Z6readIDv+0x58>
 80010f8:	2180      	movs	r1, #128	; 0x80
 80010fa:	20a0      	movs	r0, #160	; 0xa0
 80010fc:	0109      	lsls	r1, r1, #4
 80010fe:	05c0      	lsls	r0, r0, #23
 8001100:	f000 fccc 	bl	8001a9c <HAL_GPIO_ReadPin>
 8001104:	3801      	subs	r0, #1
 8001106:	1e43      	subs	r3, r0, #1
 8001108:	4198      	sbcs	r0, r3
 800110a:	1d03      	adds	r3, r0, #4
 800110c:	0018      	movs	r0, r3
 800110e:	bd10      	pop	{r4, pc}

08001110 <_Z18SystemClock_Configv>:
 8001110:	b500      	push	{lr}
 8001112:	b08d      	sub	sp, #52	; 0x34
 8001114:	2218      	movs	r2, #24
 8001116:	2100      	movs	r1, #0
 8001118:	a806      	add	r0, sp, #24
 800111a:	f001 fecf 	bl	8002ebc <memset>
 800111e:	2100      	movs	r1, #0
 8001120:	2214      	movs	r2, #20
 8001122:	4668      	mov	r0, sp
 8001124:	f001 feca 	bl	8002ebc <memset>
 8001128:	2302      	movs	r3, #2
 800112a:	9305      	str	r3, [sp, #20]
 800112c:	33fe      	adds	r3, #254	; 0xfe
 800112e:	9308      	str	r3, [sp, #32]
 8001130:	2380      	movs	r3, #128	; 0x80
 8001132:	015b      	lsls	r3, r3, #5
 8001134:	9309      	str	r3, [sp, #36]	; 0x24
 8001136:	2340      	movs	r3, #64	; 0x40
 8001138:	a805      	add	r0, sp, #20
 800113a:	930a      	str	r3, [sp, #40]	; 0x28
 800113c:	f000 fff8 	bl	8002130 <HAL_RCC_OscConfig>
 8001140:	1e01      	subs	r1, r0, #0
 8001142:	d001      	beq.n	8001148 <_Z18SystemClock_Configv+0x38>
 8001144:	b672      	cpsid	i
 8001146:	e7fe      	b.n	8001146 <_Z18SystemClock_Configv+0x36>
 8001148:	2307      	movs	r3, #7
 800114a:	9001      	str	r0, [sp, #4]
 800114c:	9002      	str	r0, [sp, #8]
 800114e:	9003      	str	r0, [sp, #12]
 8001150:	9004      	str	r0, [sp, #16]
 8001152:	4668      	mov	r0, sp
 8001154:	9300      	str	r3, [sp, #0]
 8001156:	f001 f95b 	bl	8002410 <HAL_RCC_ClockConfig>
 800115a:	2800      	cmp	r0, #0
 800115c:	d001      	beq.n	8001162 <_Z18SystemClock_Configv+0x52>
 800115e:	b672      	cpsid	i
 8001160:	e7fe      	b.n	8001160 <_Z18SystemClock_Configv+0x50>
 8001162:	b00d      	add	sp, #52	; 0x34
 8001164:	bd00      	pop	{pc}
	...

08001168 <main>:
 8001168:	b5f0      	push	{r4, r5, r6, r7, lr}
 800116a:	b0a9      	sub	sp, #164	; 0xa4
 800116c:	f000 fa32 	bl	80015d4 <HAL_Init>
 8001170:	f7ff ffce 	bl	8001110 <_Z18SystemClock_Configv>
 8001174:	2214      	movs	r2, #20
 8001176:	2100      	movs	r1, #0
 8001178:	a803      	add	r0, sp, #12
 800117a:	f001 fe9f 	bl	8002ebc <memset>
 800117e:	2102      	movs	r1, #2
 8001180:	2501      	movs	r5, #1
 8001182:	20a0      	movs	r0, #160	; 0xa0
 8001184:	4c46      	ldr	r4, [pc, #280]	; (80012a0 <main+0x138>)
 8001186:	05c0      	lsls	r0, r0, #23
 8001188:	6b62      	ldr	r2, [r4, #52]	; 0x34
 800118a:	2700      	movs	r7, #0
 800118c:	430a      	orrs	r2, r1
 800118e:	6362      	str	r2, [r4, #52]	; 0x34
 8001190:	6b63      	ldr	r3, [r4, #52]	; 0x34
 8001192:	2200      	movs	r2, #0
 8001194:	400b      	ands	r3, r1
 8001196:	9301      	str	r3, [sp, #4]
 8001198:	9b01      	ldr	r3, [sp, #4]
 800119a:	6b63      	ldr	r3, [r4, #52]	; 0x34
 800119c:	310e      	adds	r1, #14
 800119e:	432b      	orrs	r3, r5
 80011a0:	6363      	str	r3, [r4, #52]	; 0x34
 80011a2:	6b63      	ldr	r3, [r4, #52]	; 0x34
 80011a4:	2610      	movs	r6, #16
 80011a6:	402b      	ands	r3, r5
 80011a8:	9302      	str	r3, [sp, #8]
 80011aa:	9b02      	ldr	r3, [sp, #8]
 80011ac:	f000 fc7c 	bl	8001aa8 <HAL_GPIO_WritePin>
 80011b0:	20a0      	movs	r0, #160	; 0xa0
 80011b2:	a903      	add	r1, sp, #12
 80011b4:	05c0      	lsls	r0, r0, #23
 80011b6:	9603      	str	r6, [sp, #12]
 80011b8:	9504      	str	r5, [sp, #16]
 80011ba:	9705      	str	r7, [sp, #20]
 80011bc:	9706      	str	r7, [sp, #24]
 80011be:	f000 fbbb 	bl	8001938 <HAL_GPIO_Init>
 80011c2:	239e      	movs	r3, #158	; 0x9e
 80011c4:	20a0      	movs	r0, #160	; 0xa0
 80011c6:	011b      	lsls	r3, r3, #4
 80011c8:	a903      	add	r1, sp, #12
 80011ca:	05c0      	lsls	r0, r0, #23
 80011cc:	9303      	str	r3, [sp, #12]
 80011ce:	9704      	str	r7, [sp, #16]
 80011d0:	9705      	str	r7, [sp, #20]
 80011d2:	f000 fbb1 	bl	8001938 <HAL_GPIO_Init>
 80011d6:	6ba3      	ldr	r3, [r4, #56]	; 0x38
 80011d8:	0039      	movs	r1, r7
 80011da:	432b      	orrs	r3, r5
 80011dc:	63a3      	str	r3, [r4, #56]	; 0x38
 80011de:	6ba3      	ldr	r3, [r4, #56]	; 0x38
 80011e0:	003a      	movs	r2, r7
 80011e2:	402b      	ands	r3, r5
 80011e4:	2009      	movs	r0, #9
 80011e6:	9300      	str	r3, [sp, #0]
 80011e8:	9b00      	ldr	r3, [sp, #0]
 80011ea:	f000 fa23 	bl	8001634 <HAL_NVIC_SetPriority>
 80011ee:	2009      	movs	r0, #9
 80011f0:	f000 fa4a 	bl	8001688 <HAL_NVIC_EnableIRQ>
 80011f4:	4c2b      	ldr	r4, [pc, #172]	; (80012a4 <main+0x13c>)
 80011f6:	4b2c      	ldr	r3, [pc, #176]	; (80012a8 <main+0x140>)
 80011f8:	0020      	movs	r0, r4
 80011fa:	6023      	str	r3, [r4, #0]
 80011fc:	4b2b      	ldr	r3, [pc, #172]	; (80012ac <main+0x144>)
 80011fe:	60a7      	str	r7, [r4, #8]
 8001200:	6063      	str	r3, [r4, #4]
 8001202:	60e5      	str	r5, [r4, #12]
 8001204:	6127      	str	r7, [r4, #16]
 8001206:	6167      	str	r7, [r4, #20]
 8001208:	61a7      	str	r7, [r4, #24]
 800120a:	61e7      	str	r7, [r4, #28]
 800120c:	6227      	str	r7, [r4, #32]
 800120e:	f000 fdcb 	bl	8001da8 <HAL_I2C_Init>
 8001212:	0001      	movs	r1, r0
 8001214:	42b8      	cmp	r0, r7
 8001216:	d001      	beq.n	800121c <main+0xb4>
 8001218:	b672      	cpsid	i
 800121a:	e7fe      	b.n	800121a <main+0xb2>
 800121c:	0020      	movs	r0, r4
 800121e:	f000 ff3d 	bl	800209c <HAL_I2CEx_ConfigAnalogFilter>
 8001222:	1e01      	subs	r1, r0, #0
 8001224:	d001      	beq.n	800122a <main+0xc2>
 8001226:	b672      	cpsid	i
 8001228:	e7fe      	b.n	8001228 <main+0xc0>
 800122a:	0020      	movs	r0, r4
 800122c:	f000 ff5c 	bl	80020e8 <HAL_I2CEx_ConfigDigitalFilter>
 8001230:	2800      	cmp	r0, #0
 8001232:	d001      	beq.n	8001238 <main+0xd0>
 8001234:	b672      	cpsid	i
 8001236:	e7fe      	b.n	8001236 <main+0xce>
 8001238:	4c1d      	ldr	r4, [pc, #116]	; (80012b0 <main+0x148>)
 800123a:	4b1e      	ldr	r3, [pc, #120]	; (80012b4 <main+0x14c>)
 800123c:	60a0      	str	r0, [r4, #8]
 800123e:	6023      	str	r3, [r4, #0]
 8001240:	23e1      	movs	r3, #225	; 0xe1
 8001242:	025b      	lsls	r3, r3, #9
 8001244:	6063      	str	r3, [r4, #4]
 8001246:	230c      	movs	r3, #12
 8001248:	60e0      	str	r0, [r4, #12]
 800124a:	6120      	str	r0, [r4, #16]
 800124c:	61a0      	str	r0, [r4, #24]
 800124e:	61e0      	str	r0, [r4, #28]
 8001250:	6220      	str	r0, [r4, #32]
 8001252:	6260      	str	r0, [r4, #36]	; 0x24
 8001254:	62a0      	str	r0, [r4, #40]	; 0x28
 8001256:	0020      	movs	r0, r4
 8001258:	6163      	str	r3, [r4, #20]
 800125a:	f001 fd41 	bl	8002ce0 <HAL_UART_Init>
 800125e:	2800      	cmp	r0, #0
 8001260:	d001      	beq.n	8001266 <main+0xfe>
 8001262:	b672      	cpsid	i
 8001264:	e7fe      	b.n	8001264 <main+0xfc>
 8001266:	20a0      	movs	r0, #160	; 0xa0
 8001268:	002a      	movs	r2, r5
 800126a:	0031      	movs	r1, r6
 800126c:	05c0      	lsls	r0, r0, #23
 800126e:	f000 fc1b 	bl	8001aa8 <HAL_GPIO_WritePin>
 8001272:	f7ff ff1f 	bl	80010b4 <_Z6readIDv>
 8001276:	4b10      	ldr	r3, [pc, #64]	; (80012b8 <main+0x150>)
 8001278:	0002      	movs	r2, r0
 800127a:	6018      	str	r0, [r3, #0]
 800127c:	0021      	movs	r1, r4
 800127e:	a803      	add	r0, sp, #12
 8001280:	f000 f82c 	bl	80012dc <_ZN13SDMA_TRANSMITC1EP20__UART_HandleTypeDefh>
 8001284:	a803      	add	r0, sp, #12
 8001286:	f000 f835 	bl	80012f4 <_ZN13SDMA_TRANSMIT9begin_dmaEv>
 800128a:	480c      	ldr	r0, [pc, #48]	; (80012bc <main+0x154>)
 800128c:	f7ff feb6 	bl	8000ffc <_ZN6AS560010get_travelEv>
 8001290:	4b0b      	ldr	r3, [pc, #44]	; (80012c0 <main+0x158>)
 8001292:	0001      	movs	r1, r0
 8001294:	6018      	str	r0, [r3, #0]
 8001296:	a803      	add	r0, sp, #12
 8001298:	f000 f864 	bl	8001364 <_ZN13SDMA_TRANSMIT9check_bufEl>
 800129c:	e7f5      	b.n	800128a <main+0x122>
 800129e:	46c0      	nop			; (mov r8, r8)
 80012a0:	40021000 	.word	0x40021000
 80012a4:	20000098 	.word	0x20000098
 80012a8:	40005400 	.word	0x40005400
 80012ac:	40000a0b 	.word	0x40000a0b
 80012b0:	200000e4 	.word	0x200000e4
 80012b4:	40004400 	.word	0x40004400
 80012b8:	20000174 	.word	0x20000174
 80012bc:	20000028 	.word	0x20000028
 80012c0:	20000178 	.word	0x20000178

080012c4 <Error_Handler>:
 80012c4:	b672      	cpsid	i
 80012c6:	e7fe      	b.n	80012c6 <Error_Handler+0x2>

080012c8 <_GLOBAL__sub_I_hi2c1>:
 80012c8:	b510      	push	{r4, lr}
 80012ca:	4902      	ldr	r1, [pc, #8]	; (80012d4 <_GLOBAL__sub_I_hi2c1+0xc>)
 80012cc:	4802      	ldr	r0, [pc, #8]	; (80012d8 <_GLOBAL__sub_I_hi2c1+0x10>)
 80012ce:	f7ff fe8b 	bl	8000fe8 <_ZN6AS5600C1EP19__I2C_HandleTypeDef>
 80012d2:	bd10      	pop	{r4, pc}
 80012d4:	20000098 	.word	0x20000098
 80012d8:	20000028 	.word	0x20000028

080012dc <_ZN13SDMA_TRANSMITC1EP20__UART_HandleTypeDefh>:
 80012dc:	2300      	movs	r3, #0
 80012de:	b510      	push	{r4, lr}
 80012e0:	1d04      	adds	r4, r0, #4
 80012e2:	67e3      	str	r3, [r4, #124]	; 0x7c
 80012e4:	3480      	adds	r4, #128	; 0x80
 80012e6:	7023      	strb	r3, [r4, #0]
 80012e8:	0003      	movs	r3, r0
 80012ea:	338c      	adds	r3, #140	; 0x8c
 80012ec:	6019      	str	r1, [r3, #0]
 80012ee:	3b07      	subs	r3, #7
 80012f0:	701a      	strb	r2, [r3, #0]
 80012f2:	bd10      	pop	{r4, pc}

080012f4 <_ZN13SDMA_TRANSMIT9begin_dmaEv>:
 80012f4:	0003      	movs	r3, r0
 80012f6:	b510      	push	{r4, lr}
 80012f8:	338c      	adds	r3, #140	; 0x8c
 80012fa:	0001      	movs	r1, r0
 80012fc:	2280      	movs	r2, #128	; 0x80
 80012fe:	6818      	ldr	r0, [r3, #0]
 8001300:	f001 fd80 	bl	8002e04 <HAL_UART_Receive_DMA>
 8001304:	2001      	movs	r0, #1
 8001306:	f000 f983 	bl	8001610 <HAL_Delay>
 800130a:	bd10      	pop	{r4, pc}

0800130c <_ZN13SDMA_TRANSMIT9send_dataEl>:
 800130c:	0003      	movs	r3, r0
 800130e:	b570      	push	{r4, r5, r6, lr}
 8001310:	0006      	movs	r6, r0
 8001312:	3385      	adds	r3, #133	; 0x85
 8001314:	781b      	ldrb	r3, [r3, #0]
 8001316:	3686      	adds	r6, #134	; 0x86
 8001318:	3b42      	subs	r3, #66	; 0x42
 800131a:	7033      	strb	r3, [r6, #0]
 800131c:	4a0f      	ldr	r2, [pc, #60]	; (800135c <_ZN13SDMA_TRANSMIT9send_dataEl+0x50>)
 800131e:	4b10      	ldr	r3, [pc, #64]	; (8001360 <_ZN13SDMA_TRANSMIT9send_dataEl+0x54>)
 8001320:	0004      	movs	r4, r0
 8001322:	001d      	movs	r5, r3
 8001324:	1889      	adds	r1, r1, r2
 8001326:	d403      	bmi.n	8001330 <_ZN13SDMA_TRANSMIT9send_dataEl+0x24>
 8001328:	000d      	movs	r5, r1
 800132a:	4299      	cmp	r1, r3
 800132c:	dd00      	ble.n	8001330 <_ZN13SDMA_TRANSMIT9send_dataEl+0x24>
 800132e:	001d      	movs	r5, r3
 8001330:	0028      	movs	r0, r5
 8001332:	2164      	movs	r1, #100	; 0x64
 8001334:	f7ff f86c 	bl	8000410 <__aeabi_idivmod>
 8001338:	0023      	movs	r3, r4
 800133a:	3387      	adds	r3, #135	; 0x87
 800133c:	0028      	movs	r0, r5
 800133e:	7019      	strb	r1, [r3, #0]
 8001340:	2164      	movs	r1, #100	; 0x64
 8001342:	f7fe ff7f 	bl	8000244 <__divsi3>
 8001346:	0023      	movs	r3, r4
 8001348:	3388      	adds	r3, #136	; 0x88
 800134a:	7018      	strb	r0, [r3, #0]
 800134c:	348c      	adds	r4, #140	; 0x8c
 800134e:	0031      	movs	r1, r6
 8001350:	2364      	movs	r3, #100	; 0x64
 8001352:	2203      	movs	r2, #3
 8001354:	6820      	ldr	r0, [r4, #0]
 8001356:	f001 fc17 	bl	8002b88 <HAL_UART_Transmit>
 800135a:	bd70      	pop	{r4, r5, r6, pc}
 800135c:	00001388 	.word	0x00001388
 8001360:	0000270f 	.word	0x0000270f

08001364 <_ZN13SDMA_TRANSMIT9check_bufEl>:
 8001364:	0003      	movs	r3, r0
 8001366:	338c      	adds	r3, #140	; 0x8c
 8001368:	681b      	ldr	r3, [r3, #0]
 800136a:	b510      	push	{r4, lr}
 800136c:	6fdb      	ldr	r3, [r3, #124]	; 0x7c
 800136e:	1d04      	adds	r4, r0, #4
 8001370:	681b      	ldr	r3, [r3, #0]
 8001372:	685a      	ldr	r2, [r3, #4]
 8001374:	2380      	movs	r3, #128	; 0x80
 8001376:	1a9b      	subs	r3, r3, r2
 8001378:	0002      	movs	r2, r0
 800137a:	3290      	adds	r2, #144	; 0x90
 800137c:	6013      	str	r3, [r2, #0]
 800137e:	6fe2      	ldr	r2, [r4, #124]	; 0x7c
 8001380:	1a9b      	subs	r3, r3, r2
 8001382:	d500      	bpl.n	8001386 <_ZN13SDMA_TRANSMIT9check_bufEl+0x22>
 8001384:	3380      	adds	r3, #128	; 0x80
 8001386:	2b00      	cmp	r3, #0
 8001388:	dd0f      	ble.n	80013aa <_ZN13SDMA_TRANSMIT9check_bufEl+0x46>
 800138a:	0003      	movs	r3, r0
 800138c:	5c82      	ldrb	r2, [r0, r2]
 800138e:	3384      	adds	r3, #132	; 0x84
 8001390:	701a      	strb	r2, [r3, #0]
 8001392:	3301      	adds	r3, #1
 8001394:	781b      	ldrb	r3, [r3, #0]
 8001396:	33be      	adds	r3, #190	; 0xbe
 8001398:	429a      	cmp	r2, r3
 800139a:	d101      	bne.n	80013a0 <_ZN13SDMA_TRANSMIT9check_bufEl+0x3c>
 800139c:	f7ff ffb6 	bl	800130c <_ZN13SDMA_TRANSMIT9send_dataEl>
 80013a0:	6fe3      	ldr	r3, [r4, #124]	; 0x7c
 80013a2:	1c5a      	adds	r2, r3, #1
 80013a4:	2b7f      	cmp	r3, #127	; 0x7f
 80013a6:	d001      	beq.n	80013ac <_ZN13SDMA_TRANSMIT9check_bufEl+0x48>
 80013a8:	67e2      	str	r2, [r4, #124]	; 0x7c
 80013aa:	bd10      	pop	{r4, pc}
 80013ac:	2300      	movs	r3, #0
 80013ae:	67e3      	str	r3, [r4, #124]	; 0x7c
 80013b0:	e7fb      	b.n	80013aa <_ZN13SDMA_TRANSMIT9check_bufEl+0x46>
	...

080013b4 <HAL_MspInit>:
 80013b4:	2001      	movs	r0, #1
 80013b6:	4b0a      	ldr	r3, [pc, #40]	; (80013e0 <HAL_MspInit+0x2c>)
 80013b8:	b082      	sub	sp, #8
 80013ba:	6c19      	ldr	r1, [r3, #64]	; 0x40
 80013bc:	4301      	orrs	r1, r0
 80013be:	6419      	str	r1, [r3, #64]	; 0x40
 80013c0:	2180      	movs	r1, #128	; 0x80
 80013c2:	6c1a      	ldr	r2, [r3, #64]	; 0x40
 80013c4:	0549      	lsls	r1, r1, #21
 80013c6:	4002      	ands	r2, r0
 80013c8:	9200      	str	r2, [sp, #0]
 80013ca:	9a00      	ldr	r2, [sp, #0]
 80013cc:	6bda      	ldr	r2, [r3, #60]	; 0x3c
 80013ce:	430a      	orrs	r2, r1
 80013d0:	63da      	str	r2, [r3, #60]	; 0x3c
 80013d2:	6bdb      	ldr	r3, [r3, #60]	; 0x3c
 80013d4:	400b      	ands	r3, r1
 80013d6:	9301      	str	r3, [sp, #4]
 80013d8:	9b01      	ldr	r3, [sp, #4]
 80013da:	b002      	add	sp, #8
 80013dc:	4770      	bx	lr
 80013de:	46c0      	nop			; (mov r8, r8)
 80013e0:	40021000 	.word	0x40021000

080013e4 <HAL_I2C_MspInit>:
 80013e4:	b510      	push	{r4, lr}
 80013e6:	0004      	movs	r4, r0
 80013e8:	b08e      	sub	sp, #56	; 0x38
 80013ea:	2214      	movs	r2, #20
 80013ec:	2100      	movs	r1, #0
 80013ee:	a802      	add	r0, sp, #8
 80013f0:	f001 fd64 	bl	8002ebc <memset>
 80013f4:	221c      	movs	r2, #28
 80013f6:	2100      	movs	r1, #0
 80013f8:	a807      	add	r0, sp, #28
 80013fa:	f001 fd5f 	bl	8002ebc <memset>
 80013fe:	4b17      	ldr	r3, [pc, #92]	; (800145c <HAL_I2C_MspInit+0x78>)
 8001400:	6822      	ldr	r2, [r4, #0]
 8001402:	429a      	cmp	r2, r3
 8001404:	d127      	bne.n	8001456 <HAL_I2C_MspInit+0x72>
 8001406:	2340      	movs	r3, #64	; 0x40
 8001408:	a807      	add	r0, sp, #28
 800140a:	9307      	str	r3, [sp, #28]
 800140c:	f001 f8c6 	bl	800259c <HAL_RCCEx_PeriphCLKConfig>
 8001410:	2800      	cmp	r0, #0
 8001412:	d001      	beq.n	8001418 <HAL_I2C_MspInit+0x34>
 8001414:	f7ff ff56 	bl	80012c4 <Error_Handler>
 8001418:	2102      	movs	r1, #2
 800141a:	4c11      	ldr	r4, [pc, #68]	; (8001460 <HAL_I2C_MspInit+0x7c>)
 800141c:	4811      	ldr	r0, [pc, #68]	; (8001464 <HAL_I2C_MspInit+0x80>)
 800141e:	6b62      	ldr	r2, [r4, #52]	; 0x34
 8001420:	430a      	orrs	r2, r1
 8001422:	6362      	str	r2, [r4, #52]	; 0x34
 8001424:	6b63      	ldr	r3, [r4, #52]	; 0x34
 8001426:	400b      	ands	r3, r1
 8001428:	9300      	str	r3, [sp, #0]
 800142a:	9b00      	ldr	r3, [sp, #0]
 800142c:	23c0      	movs	r3, #192	; 0xc0
 800142e:	9302      	str	r3, [sp, #8]
 8001430:	3bae      	subs	r3, #174	; 0xae
 8001432:	9303      	str	r3, [sp, #12]
 8001434:	2300      	movs	r3, #0
 8001436:	a902      	add	r1, sp, #8
 8001438:	9304      	str	r3, [sp, #16]
 800143a:	9305      	str	r3, [sp, #20]
 800143c:	3306      	adds	r3, #6
 800143e:	9306      	str	r3, [sp, #24]
 8001440:	f000 fa7a 	bl	8001938 <HAL_GPIO_Init>
 8001444:	2180      	movs	r1, #128	; 0x80
 8001446:	6be2      	ldr	r2, [r4, #60]	; 0x3c
 8001448:	0389      	lsls	r1, r1, #14
 800144a:	430a      	orrs	r2, r1
 800144c:	63e2      	str	r2, [r4, #60]	; 0x3c
 800144e:	6be3      	ldr	r3, [r4, #60]	; 0x3c
 8001450:	400b      	ands	r3, r1
 8001452:	9301      	str	r3, [sp, #4]
 8001454:	9b01      	ldr	r3, [sp, #4]
 8001456:	b00e      	add	sp, #56	; 0x38
 8001458:	bd10      	pop	{r4, pc}
 800145a:	46c0      	nop			; (mov r8, r8)
 800145c:	40005400 	.word	0x40005400
 8001460:	40021000 	.word	0x40021000
 8001464:	50000400 	.word	0x50000400

08001468 <HAL_UART_MspInit>:
 8001468:	b530      	push	{r4, r5, lr}
 800146a:	0005      	movs	r5, r0
 800146c:	b089      	sub	sp, #36	; 0x24
 800146e:	2214      	movs	r2, #20
 8001470:	2100      	movs	r1, #0
 8001472:	a803      	add	r0, sp, #12
 8001474:	f001 fd22 	bl	8002ebc <memset>
 8001478:	4b1d      	ldr	r3, [pc, #116]	; (80014f0 <HAL_UART_MspInit+0x88>)
 800147a:	682a      	ldr	r2, [r5, #0]
 800147c:	429a      	cmp	r2, r3
 800147e:	d135      	bne.n	80014ec <HAL_UART_MspInit+0x84>
 8001480:	2080      	movs	r0, #128	; 0x80
 8001482:	4b1c      	ldr	r3, [pc, #112]	; (80014f4 <HAL_UART_MspInit+0x8c>)
 8001484:	0280      	lsls	r0, r0, #10
 8001486:	6bd9      	ldr	r1, [r3, #60]	; 0x3c
 8001488:	4301      	orrs	r1, r0
 800148a:	63d9      	str	r1, [r3, #60]	; 0x3c
 800148c:	6bda      	ldr	r2, [r3, #60]	; 0x3c
 800148e:	4002      	ands	r2, r0
 8001490:	9201      	str	r2, [sp, #4]
 8001492:	9a01      	ldr	r2, [sp, #4]
 8001494:	2201      	movs	r2, #1
 8001496:	6b59      	ldr	r1, [r3, #52]	; 0x34
 8001498:	20a0      	movs	r0, #160	; 0xa0
 800149a:	4311      	orrs	r1, r2
 800149c:	6359      	str	r1, [r3, #52]	; 0x34
 800149e:	6b5b      	ldr	r3, [r3, #52]	; 0x34
 80014a0:	05c0      	lsls	r0, r0, #23
 80014a2:	4013      	ands	r3, r2
 80014a4:	9302      	str	r3, [sp, #8]
 80014a6:	9b02      	ldr	r3, [sp, #8]
 80014a8:	230c      	movs	r3, #12
 80014aa:	a903      	add	r1, sp, #12
 80014ac:	9303      	str	r3, [sp, #12]
 80014ae:	3b0a      	subs	r3, #10
 80014b0:	9304      	str	r3, [sp, #16]
 80014b2:	9207      	str	r2, [sp, #28]
 80014b4:	f000 fa40 	bl	8001938 <HAL_GPIO_Init>
 80014b8:	4c0f      	ldr	r4, [pc, #60]	; (80014f8 <HAL_UART_MspInit+0x90>)
 80014ba:	4b10      	ldr	r3, [pc, #64]	; (80014fc <HAL_UART_MspInit+0x94>)
 80014bc:	2280      	movs	r2, #128	; 0x80
 80014be:	6023      	str	r3, [r4, #0]
 80014c0:	2334      	movs	r3, #52	; 0x34
 80014c2:	6063      	str	r3, [r4, #4]
 80014c4:	2300      	movs	r3, #0
 80014c6:	60a3      	str	r3, [r4, #8]
 80014c8:	60e3      	str	r3, [r4, #12]
 80014ca:	6163      	str	r3, [r4, #20]
 80014cc:	61a3      	str	r3, [r4, #24]
 80014ce:	3320      	adds	r3, #32
 80014d0:	61e3      	str	r3, [r4, #28]
 80014d2:	2380      	movs	r3, #128	; 0x80
 80014d4:	0020      	movs	r0, r4
 80014d6:	019b      	lsls	r3, r3, #6
 80014d8:	6122      	str	r2, [r4, #16]
 80014da:	6223      	str	r3, [r4, #32]
 80014dc:	f000 f934 	bl	8001748 <HAL_DMA_Init>
 80014e0:	2800      	cmp	r0, #0
 80014e2:	d001      	beq.n	80014e8 <HAL_UART_MspInit+0x80>
 80014e4:	f7ff feee 	bl	80012c4 <Error_Handler>
 80014e8:	67ec      	str	r4, [r5, #124]	; 0x7c
 80014ea:	62a5      	str	r5, [r4, #40]	; 0x28
 80014ec:	b009      	add	sp, #36	; 0x24
 80014ee:	bd30      	pop	{r4, r5, pc}
 80014f0:	40004400 	.word	0x40004400
 80014f4:	40021000 	.word	0x40021000
 80014f8:	2000003c 	.word	0x2000003c
 80014fc:	40020008 	.word	0x40020008

08001500 <NMI_Handler>:
 8001500:	e7fe      	b.n	8001500 <NMI_Handler>

08001502 <HardFault_Handler>:
 8001502:	e7fe      	b.n	8001502 <HardFault_Handler>

08001504 <SVC_Handler>:
 8001504:	4770      	bx	lr

08001506 <PendSV_Handler>:
 8001506:	4770      	bx	lr

08001508 <SysTick_Handler>:
 8001508:	b510      	push	{r4, lr}
 800150a:	f000 f86f 	bl	80015ec <HAL_IncTick>
 800150e:	bd10      	pop	{r4, pc}

08001510 <DMA1_Channel1_IRQHandler>:
 8001510:	b510      	push	{r4, lr}
 8001512:	4802      	ldr	r0, [pc, #8]	; (800151c <DMA1_Channel1_IRQHandler+0xc>)
 8001514:	f000 f9bc 	bl	8001890 <HAL_DMA_IRQHandler>
 8001518:	bd10      	pop	{r4, pc}
 800151a:	46c0      	nop			; (mov r8, r8)
 800151c:	2000003c 	.word	0x2000003c

08001520 <SystemInit>:
 8001520:	2280      	movs	r2, #128	; 0x80
 8001522:	4b02      	ldr	r3, [pc, #8]	; (800152c <SystemInit+0xc>)
 8001524:	0512      	lsls	r2, r2, #20
 8001526:	609a      	str	r2, [r3, #8]
 8001528:	4770      	bx	lr
 800152a:	46c0      	nop			; (mov r8, r8)
 800152c:	e000ed00 	.word	0xe000ed00

08001530 <Reset_Handler>:
 8001530:	480d      	ldr	r0, [pc, #52]	; (8001568 <LoopForever+0x2>)
 8001532:	4685      	mov	sp, r0
 8001534:	2100      	movs	r1, #0
 8001536:	e003      	b.n	8001540 <LoopCopyDataInit>

08001538 <CopyDataInit>:
 8001538:	4b0c      	ldr	r3, [pc, #48]	; (800156c <LoopForever+0x6>)
 800153a:	585b      	ldr	r3, [r3, r1]
 800153c:	5043      	str	r3, [r0, r1]
 800153e:	3104      	adds	r1, #4

08001540 <LoopCopyDataInit>:
 8001540:	480b      	ldr	r0, [pc, #44]	; (8001570 <LoopForever+0xa>)
 8001542:	4b0c      	ldr	r3, [pc, #48]	; (8001574 <LoopForever+0xe>)
 8001544:	1842      	adds	r2, r0, r1
 8001546:	429a      	cmp	r2, r3
 8001548:	d3f6      	bcc.n	8001538 <CopyDataInit>
 800154a:	4a0b      	ldr	r2, [pc, #44]	; (8001578 <LoopForever+0x12>)
 800154c:	e002      	b.n	8001554 <LoopFillZerobss>

0800154e <FillZerobss>:
 800154e:	2300      	movs	r3, #0
 8001550:	6013      	str	r3, [r2, #0]
 8001552:	3204      	adds	r2, #4

08001554 <LoopFillZerobss>:
 8001554:	4b09      	ldr	r3, [pc, #36]	; (800157c <LoopForever+0x16>)
 8001556:	429a      	cmp	r2, r3
 8001558:	d3f9      	bcc.n	800154e <FillZerobss>
 800155a:	f7ff ffe1 	bl	8001520 <SystemInit>
 800155e:	f001 fc89 	bl	8002e74 <__libc_init_array>
 8001562:	f7ff fe01 	bl	8001168 <main>

08001566 <LoopForever>:
 8001566:	e7fe      	b.n	8001566 <LoopForever>
 8001568:	20001800 	.word	0x20001800
 800156c:	08002fec 	.word	0x08002fec
 8001570:	20000000 	.word	0x20000000
 8001574:	2000000c 	.word	0x2000000c
 8001578:	2000000c 	.word	0x2000000c
 800157c:	20000180 	.word	0x20000180

08001580 <ADC1_IRQHandler>:
 8001580:	e7fe      	b.n	8001580 <ADC1_IRQHandler>
	...

08001584 <HAL_InitTick>:
 8001584:	4b10      	ldr	r3, [pc, #64]	; (80015c8 <HAL_InitTick+0x44>)
 8001586:	b570      	push	{r4, r5, r6, lr}
 8001588:	6819      	ldr	r1, [r3, #0]
 800158a:	0005      	movs	r5, r0
 800158c:	2900      	cmp	r1, #0
 800158e:	d101      	bne.n	8001594 <HAL_InitTick+0x10>
 8001590:	2001      	movs	r0, #1
 8001592:	bd70      	pop	{r4, r5, r6, pc}
 8001594:	20fa      	movs	r0, #250	; 0xfa
 8001596:	0080      	lsls	r0, r0, #2
 8001598:	f7fe fdca 	bl	8000130 <__udivsi3>
 800159c:	4b0b      	ldr	r3, [pc, #44]	; (80015cc <HAL_InitTick+0x48>)
 800159e:	0001      	movs	r1, r0
 80015a0:	6818      	ldr	r0, [r3, #0]
 80015a2:	f7fe fdc5 	bl	8000130 <__udivsi3>
 80015a6:	f000 f87b 	bl	80016a0 <HAL_SYSTICK_Config>
 80015aa:	1e04      	subs	r4, r0, #0
 80015ac:	d1f0      	bne.n	8001590 <HAL_InitTick+0xc>
 80015ae:	2d03      	cmp	r5, #3
 80015b0:	d8ee      	bhi.n	8001590 <HAL_InitTick+0xc>
 80015b2:	0002      	movs	r2, r0
 80015b4:	2001      	movs	r0, #1
 80015b6:	0029      	movs	r1, r5
 80015b8:	4240      	negs	r0, r0
 80015ba:	f000 f83b 	bl	8001634 <HAL_NVIC_SetPriority>
 80015be:	4b04      	ldr	r3, [pc, #16]	; (80015d0 <HAL_InitTick+0x4c>)
 80015c0:	0020      	movs	r0, r4
 80015c2:	601d      	str	r5, [r3, #0]
 80015c4:	e7e5      	b.n	8001592 <HAL_InitTick+0xe>
 80015c6:	46c0      	nop			; (mov r8, r8)
 80015c8:	20000004 	.word	0x20000004
 80015cc:	20000000 	.word	0x20000000
 80015d0:	20000008 	.word	0x20000008

080015d4 <HAL_Init>:
 80015d4:	b510      	push	{r4, lr}
 80015d6:	2003      	movs	r0, #3
 80015d8:	f7ff ffd4 	bl	8001584 <HAL_InitTick>
 80015dc:	1e04      	subs	r4, r0, #0
 80015de:	d103      	bne.n	80015e8 <HAL_Init+0x14>
 80015e0:	f7ff fee8 	bl	80013b4 <HAL_MspInit>
 80015e4:	0020      	movs	r0, r4
 80015e6:	bd10      	pop	{r4, pc}
 80015e8:	2401      	movs	r4, #1
 80015ea:	e7fb      	b.n	80015e4 <HAL_Init+0x10>

080015ec <HAL_IncTick>:
 80015ec:	4a03      	ldr	r2, [pc, #12]	; (80015fc <HAL_IncTick+0x10>)
 80015ee:	4904      	ldr	r1, [pc, #16]	; (8001600 <HAL_IncTick+0x14>)
 80015f0:	6813      	ldr	r3, [r2, #0]
 80015f2:	6809      	ldr	r1, [r1, #0]
 80015f4:	185b      	adds	r3, r3, r1
 80015f6:	6013      	str	r3, [r2, #0]
 80015f8:	4770      	bx	lr
 80015fa:	46c0      	nop			; (mov r8, r8)
 80015fc:	2000017c 	.word	0x2000017c
 8001600:	20000004 	.word	0x20000004

08001604 <HAL_GetTick>:
 8001604:	4b01      	ldr	r3, [pc, #4]	; (800160c <HAL_GetTick+0x8>)
 8001606:	6818      	ldr	r0, [r3, #0]
 8001608:	4770      	bx	lr
 800160a:	46c0      	nop			; (mov r8, r8)
 800160c:	2000017c 	.word	0x2000017c

08001610 <HAL_Delay>:
 8001610:	b570      	push	{r4, r5, r6, lr}
 8001612:	0004      	movs	r4, r0
 8001614:	f7ff fff6 	bl	8001604 <HAL_GetTick>
 8001618:	0005      	movs	r5, r0
 800161a:	1c63      	adds	r3, r4, #1
 800161c:	d002      	beq.n	8001624 <HAL_Delay+0x14>
 800161e:	4b04      	ldr	r3, [pc, #16]	; (8001630 <HAL_Delay+0x20>)
 8001620:	681b      	ldr	r3, [r3, #0]
 8001622:	18e4      	adds	r4, r4, r3
 8001624:	f7ff ffee 	bl	8001604 <HAL_GetTick>
 8001628:	1b40      	subs	r0, r0, r5
 800162a:	42a0      	cmp	r0, r4
 800162c:	d3fa      	bcc.n	8001624 <HAL_Delay+0x14>
 800162e:	bd70      	pop	{r4, r5, r6, pc}
 8001630:	20000004 	.word	0x20000004

08001634 <HAL_NVIC_SetPriority>:
 8001634:	b530      	push	{r4, r5, lr}
 8001636:	25ff      	movs	r5, #255	; 0xff
 8001638:	2403      	movs	r4, #3
 800163a:	002a      	movs	r2, r5
 800163c:	4004      	ands	r4, r0
 800163e:	00e4      	lsls	r4, r4, #3
 8001640:	40a2      	lsls	r2, r4
 8001642:	0189      	lsls	r1, r1, #6
 8001644:	4029      	ands	r1, r5
 8001646:	43d2      	mvns	r2, r2
 8001648:	40a1      	lsls	r1, r4
 800164a:	b2c3      	uxtb	r3, r0
 800164c:	2800      	cmp	r0, #0
 800164e:	db0a      	blt.n	8001666 <HAL_NVIC_SetPriority+0x32>
 8001650:	24c0      	movs	r4, #192	; 0xc0
 8001652:	4b0b      	ldr	r3, [pc, #44]	; (8001680 <HAL_NVIC_SetPriority+0x4c>)
 8001654:	0880      	lsrs	r0, r0, #2
 8001656:	0080      	lsls	r0, r0, #2
 8001658:	18c0      	adds	r0, r0, r3
 800165a:	00a4      	lsls	r4, r4, #2
 800165c:	5903      	ldr	r3, [r0, r4]
 800165e:	401a      	ands	r2, r3
 8001660:	4311      	orrs	r1, r2
 8001662:	5101      	str	r1, [r0, r4]
 8001664:	bd30      	pop	{r4, r5, pc}
 8001666:	200f      	movs	r0, #15
 8001668:	4003      	ands	r3, r0
 800166a:	3b08      	subs	r3, #8
 800166c:	4805      	ldr	r0, [pc, #20]	; (8001684 <HAL_NVIC_SetPriority+0x50>)
 800166e:	089b      	lsrs	r3, r3, #2
 8001670:	009b      	lsls	r3, r3, #2
 8001672:	181b      	adds	r3, r3, r0
 8001674:	69d8      	ldr	r0, [r3, #28]
 8001676:	4002      	ands	r2, r0
 8001678:	4311      	orrs	r1, r2
 800167a:	61d9      	str	r1, [r3, #28]
 800167c:	e7f2      	b.n	8001664 <HAL_NVIC_SetPriority+0x30>
 800167e:	46c0      	nop			; (mov r8, r8)
 8001680:	e000e100 	.word	0xe000e100
 8001684:	e000ed00 	.word	0xe000ed00

08001688 <HAL_NVIC_EnableIRQ>:
 8001688:	2800      	cmp	r0, #0
 800168a:	db05      	blt.n	8001698 <HAL_NVIC_EnableIRQ+0x10>
 800168c:	231f      	movs	r3, #31
 800168e:	4018      	ands	r0, r3
 8001690:	3b1e      	subs	r3, #30
 8001692:	4083      	lsls	r3, r0
 8001694:	4a01      	ldr	r2, [pc, #4]	; (800169c <HAL_NVIC_EnableIRQ+0x14>)
 8001696:	6013      	str	r3, [r2, #0]
 8001698:	4770      	bx	lr
 800169a:	46c0      	nop			; (mov r8, r8)
 800169c:	e000e100 	.word	0xe000e100

080016a0 <HAL_SYSTICK_Config>:
 80016a0:	2280      	movs	r2, #128	; 0x80
 80016a2:	1e43      	subs	r3, r0, #1
 80016a4:	0452      	lsls	r2, r2, #17
 80016a6:	2001      	movs	r0, #1
 80016a8:	4293      	cmp	r3, r2
 80016aa:	d20d      	bcs.n	80016c8 <HAL_SYSTICK_Config+0x28>
 80016ac:	21c0      	movs	r1, #192	; 0xc0
 80016ae:	4a07      	ldr	r2, [pc, #28]	; (80016cc <HAL_SYSTICK_Config+0x2c>)
 80016b0:	4807      	ldr	r0, [pc, #28]	; (80016d0 <HAL_SYSTICK_Config+0x30>)
 80016b2:	6053      	str	r3, [r2, #4]
 80016b4:	6a03      	ldr	r3, [r0, #32]
 80016b6:	0609      	lsls	r1, r1, #24
 80016b8:	021b      	lsls	r3, r3, #8
 80016ba:	0a1b      	lsrs	r3, r3, #8
 80016bc:	430b      	orrs	r3, r1
 80016be:	6203      	str	r3, [r0, #32]
 80016c0:	2000      	movs	r0, #0
 80016c2:	2307      	movs	r3, #7
 80016c4:	6090      	str	r0, [r2, #8]
 80016c6:	6013      	str	r3, [r2, #0]
 80016c8:	4770      	bx	lr
 80016ca:	46c0      	nop			; (mov r8, r8)
 80016cc:	e000e010 	.word	0xe000e010
 80016d0:	e000ed00 	.word	0xe000ed00

080016d4 <DMA_SetConfig>:
 80016d4:	b5f0      	push	{r4, r5, r6, r7, lr}
 80016d6:	6c84      	ldr	r4, [r0, #72]	; 0x48
 80016d8:	6cc5      	ldr	r5, [r0, #76]	; 0x4c
 80016da:	6065      	str	r5, [r4, #4]
 80016dc:	6d04      	ldr	r4, [r0, #80]	; 0x50
 80016de:	2c00      	cmp	r4, #0
 80016e0:	d002      	beq.n	80016e8 <DMA_SetConfig+0x14>
 80016e2:	6d44      	ldr	r4, [r0, #84]	; 0x54
 80016e4:	6d85      	ldr	r5, [r0, #88]	; 0x58
 80016e6:	6065      	str	r5, [r4, #4]
 80016e8:	251c      	movs	r5, #28
 80016ea:	6c04      	ldr	r4, [r0, #64]	; 0x40
 80016ec:	4e08      	ldr	r6, [pc, #32]	; (8001710 <DMA_SetConfig+0x3c>)
 80016ee:	4025      	ands	r5, r4
 80016f0:	2401      	movs	r4, #1
 80016f2:	40ac      	lsls	r4, r5
 80016f4:	6877      	ldr	r7, [r6, #4]
 80016f6:	433c      	orrs	r4, r7
 80016f8:	6074      	str	r4, [r6, #4]
 80016fa:	6804      	ldr	r4, [r0, #0]
 80016fc:	6063      	str	r3, [r4, #4]
 80016fe:	6883      	ldr	r3, [r0, #8]
 8001700:	2b10      	cmp	r3, #16
 8001702:	d102      	bne.n	800170a <DMA_SetConfig+0x36>
 8001704:	60a2      	str	r2, [r4, #8]
 8001706:	60e1      	str	r1, [r4, #12]
 8001708:	bdf0      	pop	{r4, r5, r6, r7, pc}
 800170a:	60a1      	str	r1, [r4, #8]
 800170c:	60e2      	str	r2, [r4, #12]
 800170e:	e7fb      	b.n	8001708 <DMA_SetConfig+0x34>
 8001710:	40020000 	.word	0x40020000

08001714 <DMA_CalcDMAMUXChannelBaseAndMask>:
 8001714:	b510      	push	{r4, lr}
 8001716:	0004      	movs	r4, r0
 8001718:	6803      	ldr	r3, [r0, #0]
 800171a:	2114      	movs	r1, #20
 800171c:	b2d8      	uxtb	r0, r3
 800171e:	3808      	subs	r0, #8
 8001720:	f7fe fd06 	bl	8000130 <__udivsi3>
 8001724:	6c23      	ldr	r3, [r4, #64]	; 0x40
 8001726:	4a06      	ldr	r2, [pc, #24]	; (8001740 <DMA_CalcDMAMUXChannelBaseAndMask+0x2c>)
 8001728:	089b      	lsrs	r3, r3, #2
 800172a:	189b      	adds	r3, r3, r2
 800172c:	009b      	lsls	r3, r3, #2
 800172e:	6463      	str	r3, [r4, #68]	; 0x44
 8001730:	4b04      	ldr	r3, [pc, #16]	; (8001744 <DMA_CalcDMAMUXChannelBaseAndMask+0x30>)
 8001732:	64a3      	str	r3, [r4, #72]	; 0x48
 8001734:	231c      	movs	r3, #28
 8001736:	4018      	ands	r0, r3
 8001738:	3b1b      	subs	r3, #27
 800173a:	4083      	lsls	r3, r0
 800173c:	64e3      	str	r3, [r4, #76]	; 0x4c
 800173e:	bd10      	pop	{r4, pc}
 8001740:	10008200 	.word	0x10008200
 8001744:	40020880 	.word	0x40020880

08001748 <HAL_DMA_Init>:
 8001748:	b570      	push	{r4, r5, r6, lr}
 800174a:	0004      	movs	r4, r0
 800174c:	2001      	movs	r0, #1
 800174e:	2c00      	cmp	r4, #0
 8001750:	d048      	beq.n	80017e4 <HAL_DMA_Init+0x9c>
 8001752:	6825      	ldr	r5, [r4, #0]
 8001754:	4b26      	ldr	r3, [pc, #152]	; (80017f0 <HAL_DMA_Init+0xa8>)
 8001756:	2114      	movs	r1, #20
 8001758:	18e8      	adds	r0, r5, r3
 800175a:	f7fe fce9 	bl	8000130 <__udivsi3>
 800175e:	2302      	movs	r3, #2
 8001760:	0080      	lsls	r0, r0, #2
 8001762:	1da6      	adds	r6, r4, #6
 8001764:	6420      	str	r0, [r4, #64]	; 0x40
 8001766:	77f3      	strb	r3, [r6, #31]
 8001768:	682b      	ldr	r3, [r5, #0]
 800176a:	4a22      	ldr	r2, [pc, #136]	; (80017f4 <HAL_DMA_Init+0xac>)
 800176c:	68e1      	ldr	r1, [r4, #12]
 800176e:	4013      	ands	r3, r2
 8001770:	602b      	str	r3, [r5, #0]
 8001772:	68a3      	ldr	r3, [r4, #8]
 8001774:	682a      	ldr	r2, [r5, #0]
 8001776:	430b      	orrs	r3, r1
 8001778:	6921      	ldr	r1, [r4, #16]
 800177a:	0020      	movs	r0, r4
 800177c:	430b      	orrs	r3, r1
 800177e:	6961      	ldr	r1, [r4, #20]
 8001780:	430b      	orrs	r3, r1
 8001782:	69a1      	ldr	r1, [r4, #24]
 8001784:	430b      	orrs	r3, r1
 8001786:	69e1      	ldr	r1, [r4, #28]
 8001788:	430b      	orrs	r3, r1
 800178a:	6a21      	ldr	r1, [r4, #32]
 800178c:	430b      	orrs	r3, r1
 800178e:	4313      	orrs	r3, r2
 8001790:	602b      	str	r3, [r5, #0]
 8001792:	f7ff ffbf 	bl	8001714 <DMA_CalcDMAMUXChannelBaseAndMask>
 8001796:	2380      	movs	r3, #128	; 0x80
 8001798:	68a2      	ldr	r2, [r4, #8]
 800179a:	01db      	lsls	r3, r3, #7
 800179c:	429a      	cmp	r2, r3
 800179e:	d101      	bne.n	80017a4 <HAL_DMA_Init+0x5c>
 80017a0:	2300      	movs	r3, #0
 80017a2:	6063      	str	r3, [r4, #4]
 80017a4:	6862      	ldr	r2, [r4, #4]
 80017a6:	6c61      	ldr	r1, [r4, #68]	; 0x44
 80017a8:	b2d3      	uxtb	r3, r2
 80017aa:	600b      	str	r3, [r1, #0]
 80017ac:	6ce0      	ldr	r0, [r4, #76]	; 0x4c
 80017ae:	6ca1      	ldr	r1, [r4, #72]	; 0x48
 80017b0:	3a01      	subs	r2, #1
 80017b2:	6048      	str	r0, [r1, #4]
 80017b4:	2a03      	cmp	r2, #3
 80017b6:	d816      	bhi.n	80017e6 <HAL_DMA_Init+0x9e>
 80017b8:	4a0f      	ldr	r2, [pc, #60]	; (80017f8 <HAL_DMA_Init+0xb0>)
 80017ba:	4810      	ldr	r0, [pc, #64]	; (80017fc <HAL_DMA_Init+0xb4>)
 80017bc:	1899      	adds	r1, r3, r2
 80017be:	2203      	movs	r2, #3
 80017c0:	3b01      	subs	r3, #1
 80017c2:	4013      	ands	r3, r2
 80017c4:	3a02      	subs	r2, #2
 80017c6:	409a      	lsls	r2, r3
 80017c8:	65a2      	str	r2, [r4, #88]	; 0x58
 80017ca:	0013      	movs	r3, r2
 80017cc:	2200      	movs	r2, #0
 80017ce:	0089      	lsls	r1, r1, #2
 80017d0:	6521      	str	r1, [r4, #80]	; 0x50
 80017d2:	6560      	str	r0, [r4, #84]	; 0x54
 80017d4:	600a      	str	r2, [r1, #0]
 80017d6:	6043      	str	r3, [r0, #4]
 80017d8:	2000      	movs	r0, #0
 80017da:	2301      	movs	r3, #1
 80017dc:	63e0      	str	r0, [r4, #60]	; 0x3c
 80017de:	3405      	adds	r4, #5
 80017e0:	77f3      	strb	r3, [r6, #31]
 80017e2:	77e0      	strb	r0, [r4, #31]
 80017e4:	bd70      	pop	{r4, r5, r6, pc}
 80017e6:	2300      	movs	r3, #0
 80017e8:	6523      	str	r3, [r4, #80]	; 0x50
 80017ea:	6563      	str	r3, [r4, #84]	; 0x54
 80017ec:	65a3      	str	r3, [r4, #88]	; 0x58
 80017ee:	e7f3      	b.n	80017d8 <HAL_DMA_Init+0x90>
 80017f0:	bffdfff8 	.word	0xbffdfff8
 80017f4:	ffff800f 	.word	0xffff800f
 80017f8:	1000823f 	.word	0x1000823f
 80017fc:	40020940 	.word	0x40020940

08001800 <HAL_DMA_Start_IT>:
 8001800:	b5f7      	push	{r0, r1, r2, r4, r5, r6, r7, lr}
 8001802:	1d45      	adds	r5, r0, #5
 8001804:	9301      	str	r3, [sp, #4]
 8001806:	7fee      	ldrb	r6, [r5, #31]
 8001808:	0004      	movs	r4, r0
 800180a:	2002      	movs	r0, #2
 800180c:	2e01      	cmp	r6, #1
 800180e:	d037      	beq.n	8001880 <HAL_DMA_Start_IT+0x80>
 8001810:	3801      	subs	r0, #1
 8001812:	77e8      	strb	r0, [r5, #31]
 8001814:	1da6      	adds	r6, r4, #6
 8001816:	7ff0      	ldrb	r0, [r6, #31]
 8001818:	2702      	movs	r7, #2
 800181a:	4684      	mov	ip, r0
 800181c:	4663      	mov	r3, ip
 800181e:	b2c0      	uxtb	r0, r0
 8001820:	9000      	str	r0, [sp, #0]
 8001822:	0038      	movs	r0, r7
 8001824:	2b01      	cmp	r3, #1
 8001826:	d129      	bne.n	800187c <HAL_DMA_Start_IT+0x7c>
 8001828:	2000      	movs	r0, #0
 800182a:	77f7      	strb	r7, [r6, #31]
 800182c:	6826      	ldr	r6, [r4, #0]
 800182e:	63e0      	str	r0, [r4, #60]	; 0x3c
 8001830:	6830      	ldr	r0, [r6, #0]
 8001832:	9b00      	ldr	r3, [sp, #0]
 8001834:	4398      	bics	r0, r3
 8001836:	6030      	str	r0, [r6, #0]
 8001838:	9b01      	ldr	r3, [sp, #4]
 800183a:	0020      	movs	r0, r4
 800183c:	f7ff ff4a 	bl	80016d4 <DMA_SetConfig>
 8001840:	6b22      	ldr	r2, [r4, #48]	; 0x30
 8001842:	6823      	ldr	r3, [r4, #0]
 8001844:	2a00      	cmp	r2, #0
 8001846:	d01c      	beq.n	8001882 <HAL_DMA_Start_IT+0x82>
 8001848:	220e      	movs	r2, #14
 800184a:	6819      	ldr	r1, [r3, #0]
 800184c:	430a      	orrs	r2, r1
 800184e:	601a      	str	r2, [r3, #0]
 8001850:	6c62      	ldr	r2, [r4, #68]	; 0x44
 8001852:	6811      	ldr	r1, [r2, #0]
 8001854:	03c9      	lsls	r1, r1, #15
 8001856:	d504      	bpl.n	8001862 <HAL_DMA_Start_IT+0x62>
 8001858:	2180      	movs	r1, #128	; 0x80
 800185a:	6810      	ldr	r0, [r2, #0]
 800185c:	0049      	lsls	r1, r1, #1
 800185e:	4301      	orrs	r1, r0
 8001860:	6011      	str	r1, [r2, #0]
 8001862:	6d22      	ldr	r2, [r4, #80]	; 0x50
 8001864:	2a00      	cmp	r2, #0
 8001866:	d004      	beq.n	8001872 <HAL_DMA_Start_IT+0x72>
 8001868:	2180      	movs	r1, #128	; 0x80
 800186a:	6810      	ldr	r0, [r2, #0]
 800186c:	0049      	lsls	r1, r1, #1
 800186e:	4301      	orrs	r1, r0
 8001870:	6011      	str	r1, [r2, #0]
 8001872:	2201      	movs	r2, #1
 8001874:	2000      	movs	r0, #0
 8001876:	6819      	ldr	r1, [r3, #0]
 8001878:	430a      	orrs	r2, r1
 800187a:	601a      	str	r2, [r3, #0]
 800187c:	2300      	movs	r3, #0
 800187e:	77eb      	strb	r3, [r5, #31]
 8001880:	bdfe      	pop	{r1, r2, r3, r4, r5, r6, r7, pc}
 8001882:	2104      	movs	r1, #4
 8001884:	681a      	ldr	r2, [r3, #0]
 8001886:	438a      	bics	r2, r1
 8001888:	601a      	str	r2, [r3, #0]
 800188a:	6819      	ldr	r1, [r3, #0]
 800188c:	220a      	movs	r2, #10
 800188e:	e7dd      	b.n	800184c <HAL_DMA_Start_IT+0x4c>

08001890 <HAL_DMA_IRQHandler>:
 8001890:	b5f8      	push	{r3, r4, r5, r6, r7, lr}
 8001892:	211c      	movs	r1, #28
 8001894:	2704      	movs	r7, #4
 8001896:	6c04      	ldr	r4, [r0, #64]	; 0x40
 8001898:	4a26      	ldr	r2, [pc, #152]	; (8001934 <HAL_DMA_IRQHandler+0xa4>)
 800189a:	4021      	ands	r1, r4
 800189c:	003c      	movs	r4, r7
 800189e:	408c      	lsls	r4, r1
 80018a0:	6816      	ldr	r6, [r2, #0]
 80018a2:	6803      	ldr	r3, [r0, #0]
 80018a4:	681d      	ldr	r5, [r3, #0]
 80018a6:	4226      	tst	r6, r4
 80018a8:	d00f      	beq.n	80018ca <HAL_DMA_IRQHandler+0x3a>
 80018aa:	423d      	tst	r5, r7
 80018ac:	d00d      	beq.n	80018ca <HAL_DMA_IRQHandler+0x3a>
 80018ae:	6819      	ldr	r1, [r3, #0]
 80018b0:	0689      	lsls	r1, r1, #26
 80018b2:	d402      	bmi.n	80018ba <HAL_DMA_IRQHandler+0x2a>
 80018b4:	6819      	ldr	r1, [r3, #0]
 80018b6:	43b9      	bics	r1, r7
 80018b8:	6019      	str	r1, [r3, #0]
 80018ba:	6853      	ldr	r3, [r2, #4]
 80018bc:	431c      	orrs	r4, r3
 80018be:	6b03      	ldr	r3, [r0, #48]	; 0x30
 80018c0:	6054      	str	r4, [r2, #4]
 80018c2:	2b00      	cmp	r3, #0
 80018c4:	d01b      	beq.n	80018fe <HAL_DMA_IRQHandler+0x6e>
 80018c6:	4798      	blx	r3
 80018c8:	e019      	b.n	80018fe <HAL_DMA_IRQHandler+0x6e>
 80018ca:	2702      	movs	r7, #2
 80018cc:	003c      	movs	r4, r7
 80018ce:	408c      	lsls	r4, r1
 80018d0:	4226      	tst	r6, r4
 80018d2:	d015      	beq.n	8001900 <HAL_DMA_IRQHandler+0x70>
 80018d4:	423d      	tst	r5, r7
 80018d6:	d013      	beq.n	8001900 <HAL_DMA_IRQHandler+0x70>
 80018d8:	6819      	ldr	r1, [r3, #0]
 80018da:	0689      	lsls	r1, r1, #26
 80018dc:	d406      	bmi.n	80018ec <HAL_DMA_IRQHandler+0x5c>
 80018de:	250a      	movs	r5, #10
 80018e0:	6819      	ldr	r1, [r3, #0]
 80018e2:	43a9      	bics	r1, r5
 80018e4:	6019      	str	r1, [r3, #0]
 80018e6:	2101      	movs	r1, #1
 80018e8:	1d83      	adds	r3, r0, #6
 80018ea:	77d9      	strb	r1, [r3, #31]
 80018ec:	6853      	ldr	r3, [r2, #4]
 80018ee:	431c      	orrs	r4, r3
 80018f0:	6054      	str	r4, [r2, #4]
 80018f2:	2200      	movs	r2, #0
 80018f4:	1d43      	adds	r3, r0, #5
 80018f6:	77da      	strb	r2, [r3, #31]
 80018f8:	6ac3      	ldr	r3, [r0, #44]	; 0x2c
 80018fa:	4293      	cmp	r3, r2
 80018fc:	d1e3      	bne.n	80018c6 <HAL_DMA_IRQHandler+0x36>
 80018fe:	bdf8      	pop	{r3, r4, r5, r6, r7, pc}
 8001900:	2408      	movs	r4, #8
 8001902:	0027      	movs	r7, r4
 8001904:	408f      	lsls	r7, r1
 8001906:	423e      	tst	r6, r7
 8001908:	d0f9      	beq.n	80018fe <HAL_DMA_IRQHandler+0x6e>
 800190a:	4225      	tst	r5, r4
 800190c:	d0f7      	beq.n	80018fe <HAL_DMA_IRQHandler+0x6e>
 800190e:	250e      	movs	r5, #14
 8001910:	681c      	ldr	r4, [r3, #0]
 8001912:	43ac      	bics	r4, r5
 8001914:	601c      	str	r4, [r3, #0]
 8001916:	2301      	movs	r3, #1
 8001918:	001d      	movs	r5, r3
 800191a:	408d      	lsls	r5, r1
 800191c:	0029      	movs	r1, r5
 800191e:	6854      	ldr	r4, [r2, #4]
 8001920:	4321      	orrs	r1, r4
 8001922:	6051      	str	r1, [r2, #4]
 8001924:	1d82      	adds	r2, r0, #6
 8001926:	63c3      	str	r3, [r0, #60]	; 0x3c
 8001928:	77d3      	strb	r3, [r2, #31]
 800192a:	2200      	movs	r2, #0
 800192c:	1d43      	adds	r3, r0, #5
 800192e:	77da      	strb	r2, [r3, #31]
 8001930:	6b43      	ldr	r3, [r0, #52]	; 0x34
 8001932:	e7e2      	b.n	80018fa <HAL_DMA_IRQHandler+0x6a>
 8001934:	40020000 	.word	0x40020000

08001938 <HAL_GPIO_Init>:
 8001938:	2300      	movs	r3, #0
 800193a:	b5f0      	push	{r4, r5, r6, r7, lr}
 800193c:	b085      	sub	sp, #20
 800193e:	680a      	ldr	r2, [r1, #0]
 8001940:	0014      	movs	r4, r2
 8001942:	40dc      	lsrs	r4, r3
 8001944:	d101      	bne.n	800194a <HAL_GPIO_Init+0x12>
 8001946:	b005      	add	sp, #20
 8001948:	bdf0      	pop	{r4, r5, r6, r7, pc}
 800194a:	2401      	movs	r4, #1
 800194c:	409c      	lsls	r4, r3
 800194e:	9402      	str	r4, [sp, #8]
 8001950:	4014      	ands	r4, r2
 8001952:	9401      	str	r4, [sp, #4]
 8001954:	9c02      	ldr	r4, [sp, #8]
 8001956:	4222      	tst	r2, r4
 8001958:	d100      	bne.n	800195c <HAL_GPIO_Init+0x24>
 800195a:	e090      	b.n	8001a7e <HAL_GPIO_Init+0x146>
 800195c:	684a      	ldr	r2, [r1, #4]
 800195e:	0015      	movs	r5, r2
 8001960:	4694      	mov	ip, r2
 8001962:	2210      	movs	r2, #16
 8001964:	4395      	bics	r5, r2
 8001966:	2d02      	cmp	r5, #2
 8001968:	d111      	bne.n	800198e <HAL_GPIO_Init+0x56>
 800196a:	270f      	movs	r7, #15
 800196c:	08da      	lsrs	r2, r3, #3
 800196e:	2407      	movs	r4, #7
 8001970:	0092      	lsls	r2, r2, #2
 8001972:	1882      	adds	r2, r0, r2
 8001974:	6a16      	ldr	r6, [r2, #32]
 8001976:	9203      	str	r2, [sp, #12]
 8001978:	003a      	movs	r2, r7
 800197a:	401c      	ands	r4, r3
 800197c:	00a4      	lsls	r4, r4, #2
 800197e:	40a2      	lsls	r2, r4
 8001980:	4396      	bics	r6, r2
 8001982:	690a      	ldr	r2, [r1, #16]
 8001984:	4017      	ands	r7, r2
 8001986:	40a7      	lsls	r7, r4
 8001988:	9a03      	ldr	r2, [sp, #12]
 800198a:	4337      	orrs	r7, r6
 800198c:	6217      	str	r7, [r2, #32]
 800198e:	2203      	movs	r2, #3
 8001990:	005c      	lsls	r4, r3, #1
 8001992:	40a2      	lsls	r2, r4
 8001994:	6806      	ldr	r6, [r0, #0]
 8001996:	43d7      	mvns	r7, r2
 8001998:	4396      	bics	r6, r2
 800199a:	9603      	str	r6, [sp, #12]
 800199c:	4662      	mov	r2, ip
 800199e:	2603      	movs	r6, #3
 80019a0:	4032      	ands	r2, r6
 80019a2:	40a2      	lsls	r2, r4
 80019a4:	9e03      	ldr	r6, [sp, #12]
 80019a6:	3d01      	subs	r5, #1
 80019a8:	4332      	orrs	r2, r6
 80019aa:	6002      	str	r2, [r0, #0]
 80019ac:	2d01      	cmp	r5, #1
 80019ae:	d80f      	bhi.n	80019d0 <HAL_GPIO_Init+0x98>
 80019b0:	68ca      	ldr	r2, [r1, #12]
 80019b2:	6885      	ldr	r5, [r0, #8]
 80019b4:	40a2      	lsls	r2, r4
 80019b6:	403d      	ands	r5, r7
 80019b8:	432a      	orrs	r2, r5
 80019ba:	6082      	str	r2, [r0, #8]
 80019bc:	6845      	ldr	r5, [r0, #4]
 80019be:	9a02      	ldr	r2, [sp, #8]
 80019c0:	2601      	movs	r6, #1
 80019c2:	4395      	bics	r5, r2
 80019c4:	4662      	mov	r2, ip
 80019c6:	0912      	lsrs	r2, r2, #4
 80019c8:	4032      	ands	r2, r6
 80019ca:	409a      	lsls	r2, r3
 80019cc:	432a      	orrs	r2, r5
 80019ce:	6042      	str	r2, [r0, #4]
 80019d0:	4662      	mov	r2, ip
 80019d2:	2a03      	cmp	r2, #3
 80019d4:	d053      	beq.n	8001a7e <HAL_GPIO_Init+0x146>
 80019d6:	68c2      	ldr	r2, [r0, #12]
 80019d8:	403a      	ands	r2, r7
 80019da:	688f      	ldr	r7, [r1, #8]
 80019dc:	40a7      	lsls	r7, r4
 80019de:	2480      	movs	r4, #128	; 0x80
 80019e0:	433a      	orrs	r2, r7
 80019e2:	60c2      	str	r2, [r0, #12]
 80019e4:	4662      	mov	r2, ip
 80019e6:	0564      	lsls	r4, r4, #21
 80019e8:	4222      	tst	r2, r4
 80019ea:	d048      	beq.n	8001a7e <HAL_GPIO_Init+0x146>
 80019ec:	4a25      	ldr	r2, [pc, #148]	; (8001a84 <HAL_GPIO_Init+0x14c>)
 80019ee:	2503      	movs	r5, #3
 80019f0:	089c      	lsrs	r4, r3, #2
 80019f2:	00a4      	lsls	r4, r4, #2
 80019f4:	18a4      	adds	r4, r4, r2
 80019f6:	220f      	movs	r2, #15
 80019f8:	401d      	ands	r5, r3
 80019fa:	00ed      	lsls	r5, r5, #3
 80019fc:	40aa      	lsls	r2, r5
 80019fe:	27a0      	movs	r7, #160	; 0xa0
 8001a00:	6e26      	ldr	r6, [r4, #96]	; 0x60
 8001a02:	05ff      	lsls	r7, r7, #23
 8001a04:	4396      	bics	r6, r2
 8001a06:	2200      	movs	r2, #0
 8001a08:	42b8      	cmp	r0, r7
 8001a0a:	d00c      	beq.n	8001a26 <HAL_GPIO_Init+0xee>
 8001a0c:	4f1e      	ldr	r7, [pc, #120]	; (8001a88 <HAL_GPIO_Init+0x150>)
 8001a0e:	3201      	adds	r2, #1
 8001a10:	42b8      	cmp	r0, r7
 8001a12:	d008      	beq.n	8001a26 <HAL_GPIO_Init+0xee>
 8001a14:	4f1d      	ldr	r7, [pc, #116]	; (8001a8c <HAL_GPIO_Init+0x154>)
 8001a16:	3201      	adds	r2, #1
 8001a18:	42b8      	cmp	r0, r7
 8001a1a:	d004      	beq.n	8001a26 <HAL_GPIO_Init+0xee>
 8001a1c:	4f1c      	ldr	r7, [pc, #112]	; (8001a90 <HAL_GPIO_Init+0x158>)
 8001a1e:	3201      	adds	r2, #1
 8001a20:	42b8      	cmp	r0, r7
 8001a22:	d000      	beq.n	8001a26 <HAL_GPIO_Init+0xee>
 8001a24:	3202      	adds	r2, #2
 8001a26:	40aa      	lsls	r2, r5
 8001a28:	4667      	mov	r7, ip
 8001a2a:	4332      	orrs	r2, r6
 8001a2c:	6622      	str	r2, [r4, #96]	; 0x60
 8001a2e:	4a19      	ldr	r2, [pc, #100]	; (8001a94 <HAL_GPIO_Init+0x15c>)
 8001a30:	9c01      	ldr	r4, [sp, #4]
 8001a32:	6fd6      	ldr	r6, [r2, #124]	; 0x7c
 8001a34:	9d01      	ldr	r5, [sp, #4]
 8001a36:	43e4      	mvns	r4, r4
 8001a38:	4335      	orrs	r5, r6
 8001a3a:	03ff      	lsls	r7, r7, #15
 8001a3c:	d401      	bmi.n	8001a42 <HAL_GPIO_Init+0x10a>
 8001a3e:	0035      	movs	r5, r6
 8001a40:	4025      	ands	r5, r4
 8001a42:	4667      	mov	r7, ip
 8001a44:	67d5      	str	r5, [r2, #124]	; 0x7c
 8001a46:	4d14      	ldr	r5, [pc, #80]	; (8001a98 <HAL_GPIO_Init+0x160>)
 8001a48:	9e01      	ldr	r6, [sp, #4]
 8001a4a:	6fea      	ldr	r2, [r5, #124]	; 0x7c
 8001a4c:	4316      	orrs	r6, r2
 8001a4e:	03bf      	lsls	r7, r7, #14
 8001a50:	d401      	bmi.n	8001a56 <HAL_GPIO_Init+0x11e>
 8001a52:	4022      	ands	r2, r4
 8001a54:	0016      	movs	r6, r2
 8001a56:	4667      	mov	r7, ip
 8001a58:	4a0a      	ldr	r2, [pc, #40]	; (8001a84 <HAL_GPIO_Init+0x14c>)
 8001a5a:	67ee      	str	r6, [r5, #124]	; 0x7c
 8001a5c:	6816      	ldr	r6, [r2, #0]
 8001a5e:	9d01      	ldr	r5, [sp, #4]
 8001a60:	4335      	orrs	r5, r6
 8001a62:	02ff      	lsls	r7, r7, #11
 8001a64:	d401      	bmi.n	8001a6a <HAL_GPIO_Init+0x132>
 8001a66:	0035      	movs	r5, r6
 8001a68:	4025      	ands	r5, r4
 8001a6a:	4667      	mov	r7, ip
 8001a6c:	6015      	str	r5, [r2, #0]
 8001a6e:	6855      	ldr	r5, [r2, #4]
 8001a70:	9e01      	ldr	r6, [sp, #4]
 8001a72:	432e      	orrs	r6, r5
 8001a74:	02bf      	lsls	r7, r7, #10
 8001a76:	d401      	bmi.n	8001a7c <HAL_GPIO_Init+0x144>
 8001a78:	4025      	ands	r5, r4
 8001a7a:	002e      	movs	r6, r5
 8001a7c:	6056      	str	r6, [r2, #4]
 8001a7e:	3301      	adds	r3, #1
 8001a80:	e75d      	b.n	800193e <HAL_GPIO_Init+0x6>
 8001a82:	46c0      	nop			; (mov r8, r8)
 8001a84:	40021800 	.word	0x40021800
 8001a88:	50000400 	.word	0x50000400
 8001a8c:	50000800 	.word	0x50000800
 8001a90:	50001400 	.word	0x50001400
 8001a94:	40021804 	.word	0x40021804
 8001a98:	40021808 	.word	0x40021808

08001a9c <HAL_GPIO_ReadPin>:
 8001a9c:	6900      	ldr	r0, [r0, #16]
 8001a9e:	4008      	ands	r0, r1
 8001aa0:	1e43      	subs	r3, r0, #1
 8001aa2:	4198      	sbcs	r0, r3
 8001aa4:	b2c0      	uxtb	r0, r0
 8001aa6:	4770      	bx	lr

08001aa8 <HAL_GPIO_WritePin>:
 8001aa8:	2a00      	cmp	r2, #0
 8001aaa:	d001      	beq.n	8001ab0 <HAL_GPIO_WritePin+0x8>
 8001aac:	6181      	str	r1, [r0, #24]
 8001aae:	4770      	bx	lr
 8001ab0:	6281      	str	r1, [r0, #40]	; 0x28
 8001ab2:	e7fc      	b.n	8001aae <HAL_GPIO_WritePin+0x6>

08001ab4 <I2C_Flush_TXDR>:
 8001ab4:	6803      	ldr	r3, [r0, #0]
 8001ab6:	699a      	ldr	r2, [r3, #24]
 8001ab8:	0792      	lsls	r2, r2, #30
 8001aba:	d501      	bpl.n	8001ac0 <I2C_Flush_TXDR+0xc>
 8001abc:	2200      	movs	r2, #0
 8001abe:	629a      	str	r2, [r3, #40]	; 0x28
 8001ac0:	2201      	movs	r2, #1
 8001ac2:	6999      	ldr	r1, [r3, #24]
 8001ac4:	4211      	tst	r1, r2
 8001ac6:	d102      	bne.n	8001ace <I2C_Flush_TXDR+0x1a>
 8001ac8:	6999      	ldr	r1, [r3, #24]
 8001aca:	430a      	orrs	r2, r1
 8001acc:	619a      	str	r2, [r3, #24]
 8001ace:	4770      	bx	lr

08001ad0 <I2C_TransferConfig>:
 8001ad0:	b530      	push	{r4, r5, lr}
 8001ad2:	9c03      	ldr	r4, [sp, #12]
 8001ad4:	6800      	ldr	r0, [r0, #0]
 8001ad6:	4323      	orrs	r3, r4
 8001ad8:	0412      	lsls	r2, r2, #16
 8001ada:	0589      	lsls	r1, r1, #22
 8001adc:	431a      	orrs	r2, r3
 8001ade:	0d89      	lsrs	r1, r1, #22
 8001ae0:	4b05      	ldr	r3, [pc, #20]	; (8001af8 <I2C_TransferConfig+0x28>)
 8001ae2:	6845      	ldr	r5, [r0, #4]
 8001ae4:	430a      	orrs	r2, r1
 8001ae6:	0d64      	lsrs	r4, r4, #21
 8001ae8:	431c      	orrs	r4, r3
 8001aea:	0052      	lsls	r2, r2, #1
 8001aec:	43a5      	bics	r5, r4
 8001aee:	0852      	lsrs	r2, r2, #1
 8001af0:	432a      	orrs	r2, r5
 8001af2:	6042      	str	r2, [r0, #4]
 8001af4:	bd30      	pop	{r4, r5, pc}
 8001af6:	46c0      	nop			; (mov r8, r8)
 8001af8:	03ff63ff 	.word	0x03ff63ff

08001afc <I2C_IsErrorOccurred>:
 8001afc:	b5f0      	push	{r4, r5, r6, r7, lr}
 8001afe:	b085      	sub	sp, #20
 8001b00:	9202      	str	r2, [sp, #8]
 8001b02:	6802      	ldr	r2, [r0, #0]
 8001b04:	9101      	str	r1, [sp, #4]
 8001b06:	6991      	ldr	r1, [r2, #24]
 8001b08:	2310      	movs	r3, #16
 8001b0a:	000f      	movs	r7, r1
 8001b0c:	0004      	movs	r4, r0
 8001b0e:	2500      	movs	r5, #0
 8001b10:	401f      	ands	r7, r3
 8001b12:	4219      	tst	r1, r3
 8001b14:	d008      	beq.n	8001b28 <I2C_IsErrorOccurred+0x2c>
 8001b16:	2620      	movs	r6, #32
 8001b18:	61d3      	str	r3, [r2, #28]
 8001b1a:	6823      	ldr	r3, [r4, #0]
 8001b1c:	699a      	ldr	r2, [r3, #24]
 8001b1e:	4232      	tst	r2, r6
 8001b20:	d16e      	bne.n	8001c00 <I2C_IsErrorOccurred+0x104>
 8001b22:	2d00      	cmp	r5, #0
 8001b24:	d02f      	beq.n	8001b86 <I2C_IsErrorOccurred+0x8a>
 8001b26:	2704      	movs	r7, #4
 8001b28:	2180      	movs	r1, #128	; 0x80
 8001b2a:	6823      	ldr	r3, [r4, #0]
 8001b2c:	0049      	lsls	r1, r1, #1
 8001b2e:	699a      	ldr	r2, [r3, #24]
 8001b30:	420a      	tst	r2, r1
 8001b32:	d002      	beq.n	8001b3a <I2C_IsErrorOccurred+0x3e>
 8001b34:	2501      	movs	r5, #1
 8001b36:	61d9      	str	r1, [r3, #28]
 8001b38:	432f      	orrs	r7, r5
 8001b3a:	2180      	movs	r1, #128	; 0x80
 8001b3c:	00c9      	lsls	r1, r1, #3
 8001b3e:	420a      	tst	r2, r1
 8001b40:	d003      	beq.n	8001b4a <I2C_IsErrorOccurred+0x4e>
 8001b42:	2008      	movs	r0, #8
 8001b44:	2501      	movs	r5, #1
 8001b46:	4307      	orrs	r7, r0
 8001b48:	61d9      	str	r1, [r3, #28]
 8001b4a:	2180      	movs	r1, #128	; 0x80
 8001b4c:	0089      	lsls	r1, r1, #2
 8001b4e:	420a      	tst	r2, r1
 8001b50:	d05c      	beq.n	8001c0c <I2C_IsErrorOccurred+0x110>
 8001b52:	2202      	movs	r2, #2
 8001b54:	61d9      	str	r1, [r3, #28]
 8001b56:	4317      	orrs	r7, r2
 8001b58:	0020      	movs	r0, r4
 8001b5a:	f7ff ffab 	bl	8001ab4 <I2C_Flush_TXDR>
 8001b5e:	6822      	ldr	r2, [r4, #0]
 8001b60:	492d      	ldr	r1, [pc, #180]	; (8001c18 <I2C_IsErrorOccurred+0x11c>)
 8001b62:	6853      	ldr	r3, [r2, #4]
 8001b64:	2501      	movs	r5, #1
 8001b66:	400b      	ands	r3, r1
 8001b68:	6053      	str	r3, [r2, #4]
 8001b6a:	6c63      	ldr	r3, [r4, #68]	; 0x44
 8001b6c:	2220      	movs	r2, #32
 8001b6e:	431f      	orrs	r7, r3
 8001b70:	0023      	movs	r3, r4
 8001b72:	3341      	adds	r3, #65	; 0x41
 8001b74:	6467      	str	r7, [r4, #68]	; 0x44
 8001b76:	701a      	strb	r2, [r3, #0]
 8001b78:	0022      	movs	r2, r4
 8001b7a:	2300      	movs	r3, #0
 8001b7c:	3242      	adds	r2, #66	; 0x42
 8001b7e:	3440      	adds	r4, #64	; 0x40
 8001b80:	7013      	strb	r3, [r2, #0]
 8001b82:	7023      	strb	r3, [r4, #0]
 8001b84:	e044      	b.n	8001c10 <I2C_IsErrorOccurred+0x114>
 8001b86:	9a01      	ldr	r2, [sp, #4]
 8001b88:	3201      	adds	r2, #1
 8001b8a:	d0c7      	beq.n	8001b1c <I2C_IsErrorOccurred+0x20>
 8001b8c:	f7ff fd3a 	bl	8001604 <HAL_GetTick>
 8001b90:	9b02      	ldr	r3, [sp, #8]
 8001b92:	1ac0      	subs	r0, r0, r3
 8001b94:	9b01      	ldr	r3, [sp, #4]
 8001b96:	4298      	cmp	r0, r3
 8001b98:	d801      	bhi.n	8001b9e <I2C_IsErrorOccurred+0xa2>
 8001b9a:	2b00      	cmp	r3, #0
 8001b9c:	d1bd      	bne.n	8001b1a <I2C_IsErrorOccurred+0x1e>
 8001b9e:	0022      	movs	r2, r4
 8001ba0:	2780      	movs	r7, #128	; 0x80
 8001ba2:	3242      	adds	r2, #66	; 0x42
 8001ba4:	6823      	ldr	r3, [r4, #0]
 8001ba6:	9203      	str	r2, [sp, #12]
 8001ba8:	6858      	ldr	r0, [r3, #4]
 8001baa:	7811      	ldrb	r1, [r2, #0]
 8001bac:	699a      	ldr	r2, [r3, #24]
 8001bae:	023f      	lsls	r7, r7, #8
 8001bb0:	b2c9      	uxtb	r1, r1
 8001bb2:	423a      	tst	r2, r7
 8001bb4:	d00b      	beq.n	8001bce <I2C_IsErrorOccurred+0xd2>
 8001bb6:	2280      	movs	r2, #128	; 0x80
 8001bb8:	01d2      	lsls	r2, r2, #7
 8001bba:	4210      	tst	r0, r2
 8001bbc:	d107      	bne.n	8001bce <I2C_IsErrorOccurred+0xd2>
 8001bbe:	2920      	cmp	r1, #32
 8001bc0:	d005      	beq.n	8001bce <I2C_IsErrorOccurred+0xd2>
 8001bc2:	6859      	ldr	r1, [r3, #4]
 8001bc4:	430a      	orrs	r2, r1
 8001bc6:	605a      	str	r2, [r3, #4]
 8001bc8:	f7ff fd1c 	bl	8001604 <HAL_GetTick>
 8001bcc:	9002      	str	r0, [sp, #8]
 8001bce:	6823      	ldr	r3, [r4, #0]
 8001bd0:	699b      	ldr	r3, [r3, #24]
 8001bd2:	001f      	movs	r7, r3
 8001bd4:	4037      	ands	r7, r6
 8001bd6:	4233      	tst	r3, r6
 8001bd8:	d19f      	bne.n	8001b1a <I2C_IsErrorOccurred+0x1e>
 8001bda:	f7ff fd13 	bl	8001604 <HAL_GetTick>
 8001bde:	9b02      	ldr	r3, [sp, #8]
 8001be0:	1ac0      	subs	r0, r0, r3
 8001be2:	2819      	cmp	r0, #25
 8001be4:	d9f3      	bls.n	8001bce <I2C_IsErrorOccurred+0xd2>
 8001be6:	6c63      	ldr	r3, [r4, #68]	; 0x44
 8001be8:	2501      	movs	r5, #1
 8001bea:	4333      	orrs	r3, r6
 8001bec:	6463      	str	r3, [r4, #68]	; 0x44
 8001bee:	0023      	movs	r3, r4
 8001bf0:	3341      	adds	r3, #65	; 0x41
 8001bf2:	701e      	strb	r6, [r3, #0]
 8001bf4:	9b03      	ldr	r3, [sp, #12]
 8001bf6:	701f      	strb	r7, [r3, #0]
 8001bf8:	0023      	movs	r3, r4
 8001bfa:	3340      	adds	r3, #64	; 0x40
 8001bfc:	701f      	strb	r7, [r3, #0]
 8001bfe:	e7e6      	b.n	8001bce <I2C_IsErrorOccurred+0xd2>
 8001c00:	2704      	movs	r7, #4
 8001c02:	2d00      	cmp	r5, #0
 8001c04:	d190      	bne.n	8001b28 <I2C_IsErrorOccurred+0x2c>
 8001c06:	61de      	str	r6, [r3, #28]
 8001c08:	3501      	adds	r5, #1
 8001c0a:	e78d      	b.n	8001b28 <I2C_IsErrorOccurred+0x2c>
 8001c0c:	2d00      	cmp	r5, #0
 8001c0e:	d1a3      	bne.n	8001b58 <I2C_IsErrorOccurred+0x5c>
 8001c10:	0028      	movs	r0, r5
 8001c12:	b005      	add	sp, #20
 8001c14:	bdf0      	pop	{r4, r5, r6, r7, pc}
 8001c16:	46c0      	nop			; (mov r8, r8)
 8001c18:	fe00e800 	.word	0xfe00e800

08001c1c <I2C_WaitOnTXISFlagUntilTimeout>:
 8001c1c:	b5f8      	push	{r3, r4, r5, r6, r7, lr}
 8001c1e:	0004      	movs	r4, r0
 8001c20:	000d      	movs	r5, r1
 8001c22:	0016      	movs	r6, r2
 8001c24:	2702      	movs	r7, #2
 8001c26:	6823      	ldr	r3, [r4, #0]
 8001c28:	699b      	ldr	r3, [r3, #24]
 8001c2a:	423b      	tst	r3, r7
 8001c2c:	d001      	beq.n	8001c32 <I2C_WaitOnTXISFlagUntilTimeout+0x16>
 8001c2e:	2000      	movs	r0, #0
 8001c30:	bdf8      	pop	{r3, r4, r5, r6, r7, pc}
 8001c32:	0032      	movs	r2, r6
 8001c34:	0029      	movs	r1, r5
 8001c36:	0020      	movs	r0, r4
 8001c38:	f7ff ff60 	bl	8001afc <I2C_IsErrorOccurred>
 8001c3c:	2800      	cmp	r0, #0
 8001c3e:	d115      	bne.n	8001c6c <I2C_WaitOnTXISFlagUntilTimeout+0x50>
 8001c40:	1c6b      	adds	r3, r5, #1
 8001c42:	d0f0      	beq.n	8001c26 <I2C_WaitOnTXISFlagUntilTimeout+0xa>
 8001c44:	f7ff fcde 	bl	8001604 <HAL_GetTick>
 8001c48:	1b80      	subs	r0, r0, r6
 8001c4a:	42a8      	cmp	r0, r5
 8001c4c:	d801      	bhi.n	8001c52 <I2C_WaitOnTXISFlagUntilTimeout+0x36>
 8001c4e:	2d00      	cmp	r5, #0
 8001c50:	d1e9      	bne.n	8001c26 <I2C_WaitOnTXISFlagUntilTimeout+0xa>
 8001c52:	2220      	movs	r2, #32
 8001c54:	6c63      	ldr	r3, [r4, #68]	; 0x44
 8001c56:	4313      	orrs	r3, r2
 8001c58:	6463      	str	r3, [r4, #68]	; 0x44
 8001c5a:	0023      	movs	r3, r4
 8001c5c:	3341      	adds	r3, #65	; 0x41
 8001c5e:	701a      	strb	r2, [r3, #0]
 8001c60:	0022      	movs	r2, r4
 8001c62:	2300      	movs	r3, #0
 8001c64:	3242      	adds	r2, #66	; 0x42
 8001c66:	3440      	adds	r4, #64	; 0x40
 8001c68:	7013      	strb	r3, [r2, #0]
 8001c6a:	7023      	strb	r3, [r4, #0]
 8001c6c:	2001      	movs	r0, #1
 8001c6e:	e7df      	b.n	8001c30 <I2C_WaitOnTXISFlagUntilTimeout+0x14>

08001c70 <I2C_WaitOnRXNEFlagUntilTimeout>:
 8001c70:	b5f8      	push	{r3, r4, r5, r6, r7, lr}
 8001c72:	0004      	movs	r4, r0
 8001c74:	000d      	movs	r5, r1
 8001c76:	0016      	movs	r6, r2
 8001c78:	2704      	movs	r7, #4
 8001c7a:	6823      	ldr	r3, [r4, #0]
 8001c7c:	699b      	ldr	r3, [r3, #24]
 8001c7e:	423b      	tst	r3, r7
 8001c80:	d111      	bne.n	8001ca6 <I2C_WaitOnRXNEFlagUntilTimeout+0x36>
 8001c82:	0032      	movs	r2, r6
 8001c84:	0029      	movs	r1, r5
 8001c86:	0020      	movs	r0, r4
 8001c88:	f7ff ff38 	bl	8001afc <I2C_IsErrorOccurred>
 8001c8c:	2800      	cmp	r0, #0
 8001c8e:	d124      	bne.n	8001cda <I2C_WaitOnRXNEFlagUntilTimeout+0x6a>
 8001c90:	2120      	movs	r1, #32
 8001c92:	6823      	ldr	r3, [r4, #0]
 8001c94:	699a      	ldr	r2, [r3, #24]
 8001c96:	420a      	tst	r2, r1
 8001c98:	d023      	beq.n	8001ce2 <I2C_WaitOnRXNEFlagUntilTimeout+0x72>
 8001c9a:	699a      	ldr	r2, [r3, #24]
 8001c9c:	423a      	tst	r2, r7
 8001c9e:	d004      	beq.n	8001caa <I2C_WaitOnRXNEFlagUntilTimeout+0x3a>
 8001ca0:	8d22      	ldrh	r2, [r4, #40]	; 0x28
 8001ca2:	2a00      	cmp	r2, #0
 8001ca4:	d001      	beq.n	8001caa <I2C_WaitOnRXNEFlagUntilTimeout+0x3a>
 8001ca6:	2000      	movs	r0, #0
 8001ca8:	bdf8      	pop	{r3, r4, r5, r6, r7, pc}
 8001caa:	6999      	ldr	r1, [r3, #24]
 8001cac:	2210      	movs	r2, #16
 8001cae:	0008      	movs	r0, r1
 8001cb0:	4010      	ands	r0, r2
 8001cb2:	4211      	tst	r1, r2
 8001cb4:	d013      	beq.n	8001cde <I2C_WaitOnRXNEFlagUntilTimeout+0x6e>
 8001cb6:	61da      	str	r2, [r3, #28]
 8001cb8:	3a0c      	subs	r2, #12
 8001cba:	6462      	str	r2, [r4, #68]	; 0x44
 8001cbc:	2120      	movs	r1, #32
 8001cbe:	61d9      	str	r1, [r3, #28]
 8001cc0:	685a      	ldr	r2, [r3, #4]
 8001cc2:	4810      	ldr	r0, [pc, #64]	; (8001d04 <I2C_WaitOnRXNEFlagUntilTimeout+0x94>)
 8001cc4:	4002      	ands	r2, r0
 8001cc6:	605a      	str	r2, [r3, #4]
 8001cc8:	0023      	movs	r3, r4
 8001cca:	0022      	movs	r2, r4
 8001ccc:	3341      	adds	r3, #65	; 0x41
 8001cce:	7019      	strb	r1, [r3, #0]
 8001cd0:	2300      	movs	r3, #0
 8001cd2:	3242      	adds	r2, #66	; 0x42
 8001cd4:	7013      	strb	r3, [r2, #0]
 8001cd6:	3440      	adds	r4, #64	; 0x40
 8001cd8:	7023      	strb	r3, [r4, #0]
 8001cda:	2001      	movs	r0, #1
 8001cdc:	e7e4      	b.n	8001ca8 <I2C_WaitOnRXNEFlagUntilTimeout+0x38>
 8001cde:	6460      	str	r0, [r4, #68]	; 0x44
 8001ce0:	e7ec      	b.n	8001cbc <I2C_WaitOnRXNEFlagUntilTimeout+0x4c>
 8001ce2:	f7ff fc8f 	bl	8001604 <HAL_GetTick>
 8001ce6:	1b80      	subs	r0, r0, r6
 8001ce8:	42a8      	cmp	r0, r5
 8001cea:	d801      	bhi.n	8001cf0 <I2C_WaitOnRXNEFlagUntilTimeout+0x80>
 8001cec:	2d00      	cmp	r5, #0
 8001cee:	d1c4      	bne.n	8001c7a <I2C_WaitOnRXNEFlagUntilTimeout+0xa>
 8001cf0:	2220      	movs	r2, #32
 8001cf2:	6c63      	ldr	r3, [r4, #68]	; 0x44
 8001cf4:	4313      	orrs	r3, r2
 8001cf6:	6463      	str	r3, [r4, #68]	; 0x44
 8001cf8:	0023      	movs	r3, r4
 8001cfa:	3341      	adds	r3, #65	; 0x41
 8001cfc:	701a      	strb	r2, [r3, #0]
 8001cfe:	3440      	adds	r4, #64	; 0x40
 8001d00:	2300      	movs	r3, #0
 8001d02:	e7e9      	b.n	8001cd8 <I2C_WaitOnRXNEFlagUntilTimeout+0x68>
 8001d04:	fe00e800 	.word	0xfe00e800

08001d08 <I2C_WaitOnFlagUntilTimeout>:
 8001d08:	b5f8      	push	{r3, r4, r5, r6, r7, lr}
 8001d0a:	0004      	movs	r4, r0
 8001d0c:	000e      	movs	r6, r1
 8001d0e:	0017      	movs	r7, r2
 8001d10:	001d      	movs	r5, r3
 8001d12:	6822      	ldr	r2, [r4, #0]
 8001d14:	6993      	ldr	r3, [r2, #24]
 8001d16:	4033      	ands	r3, r6
 8001d18:	1b9b      	subs	r3, r3, r6
 8001d1a:	4259      	negs	r1, r3
 8001d1c:	414b      	adcs	r3, r1
 8001d1e:	42bb      	cmp	r3, r7
 8001d20:	d001      	beq.n	8001d26 <I2C_WaitOnFlagUntilTimeout+0x1e>
 8001d22:	2000      	movs	r0, #0
 8001d24:	e017      	b.n	8001d56 <I2C_WaitOnFlagUntilTimeout+0x4e>
 8001d26:	1c6b      	adds	r3, r5, #1
 8001d28:	d0f4      	beq.n	8001d14 <I2C_WaitOnFlagUntilTimeout+0xc>
 8001d2a:	f7ff fc6b 	bl	8001604 <HAL_GetTick>
 8001d2e:	9b06      	ldr	r3, [sp, #24]
 8001d30:	1ac0      	subs	r0, r0, r3
 8001d32:	42a8      	cmp	r0, r5
 8001d34:	d801      	bhi.n	8001d3a <I2C_WaitOnFlagUntilTimeout+0x32>
 8001d36:	2d00      	cmp	r5, #0
 8001d38:	d1eb      	bne.n	8001d12 <I2C_WaitOnFlagUntilTimeout+0xa>
 8001d3a:	2220      	movs	r2, #32
 8001d3c:	6c63      	ldr	r3, [r4, #68]	; 0x44
 8001d3e:	2001      	movs	r0, #1
 8001d40:	4313      	orrs	r3, r2
 8001d42:	6463      	str	r3, [r4, #68]	; 0x44
 8001d44:	0023      	movs	r3, r4
 8001d46:	3341      	adds	r3, #65	; 0x41
 8001d48:	701a      	strb	r2, [r3, #0]
 8001d4a:	0022      	movs	r2, r4
 8001d4c:	2300      	movs	r3, #0
 8001d4e:	3242      	adds	r2, #66	; 0x42
 8001d50:	3440      	adds	r4, #64	; 0x40
 8001d52:	7013      	strb	r3, [r2, #0]
 8001d54:	7023      	strb	r3, [r4, #0]
 8001d56:	bdf8      	pop	{r3, r4, r5, r6, r7, pc}

08001d58 <I2C_WaitOnSTOPFlagUntilTimeout>:
 8001d58:	b5f8      	push	{r3, r4, r5, r6, r7, lr}
 8001d5a:	0004      	movs	r4, r0
 8001d5c:	000d      	movs	r5, r1
 8001d5e:	0016      	movs	r6, r2
 8001d60:	2720      	movs	r7, #32
 8001d62:	6823      	ldr	r3, [r4, #0]
 8001d64:	699b      	ldr	r3, [r3, #24]
 8001d66:	423b      	tst	r3, r7
 8001d68:	d001      	beq.n	8001d6e <I2C_WaitOnSTOPFlagUntilTimeout+0x16>
 8001d6a:	2000      	movs	r0, #0
 8001d6c:	bdf8      	pop	{r3, r4, r5, r6, r7, pc}
 8001d6e:	0032      	movs	r2, r6
 8001d70:	0029      	movs	r1, r5
 8001d72:	0020      	movs	r0, r4
 8001d74:	f7ff fec2 	bl	8001afc <I2C_IsErrorOccurred>
 8001d78:	2800      	cmp	r0, #0
 8001d7a:	d113      	bne.n	8001da4 <I2C_WaitOnSTOPFlagUntilTimeout+0x4c>
 8001d7c:	f7ff fc42 	bl	8001604 <HAL_GetTick>
 8001d80:	1b80      	subs	r0, r0, r6
 8001d82:	42a8      	cmp	r0, r5
 8001d84:	d801      	bhi.n	8001d8a <I2C_WaitOnSTOPFlagUntilTimeout+0x32>
 8001d86:	2d00      	cmp	r5, #0
 8001d88:	d1eb      	bne.n	8001d62 <I2C_WaitOnSTOPFlagUntilTimeout+0xa>
 8001d8a:	2220      	movs	r2, #32
 8001d8c:	6c63      	ldr	r3, [r4, #68]	; 0x44
 8001d8e:	4313      	orrs	r3, r2
 8001d90:	6463      	str	r3, [r4, #68]	; 0x44
 8001d92:	0023      	movs	r3, r4
 8001d94:	3341      	adds	r3, #65	; 0x41
 8001d96:	701a      	strb	r2, [r3, #0]
 8001d98:	0022      	movs	r2, r4
 8001d9a:	2300      	movs	r3, #0
 8001d9c:	3242      	adds	r2, #66	; 0x42
 8001d9e:	3440      	adds	r4, #64	; 0x40
 8001da0:	7013      	strb	r3, [r2, #0]
 8001da2:	7023      	strb	r3, [r4, #0]
 8001da4:	2001      	movs	r0, #1
 8001da6:	e7e1      	b.n	8001d6c <I2C_WaitOnSTOPFlagUntilTimeout+0x14>

08001da8 <HAL_I2C_Init>:
 8001da8:	b570      	push	{r4, r5, r6, lr}
 8001daa:	0004      	movs	r4, r0
 8001dac:	2001      	movs	r0, #1
 8001dae:	2c00      	cmp	r4, #0
 8001db0:	d03f      	beq.n	8001e32 <HAL_I2C_Init+0x8a>
 8001db2:	0025      	movs	r5, r4
 8001db4:	3541      	adds	r5, #65	; 0x41
 8001db6:	782b      	ldrb	r3, [r5, #0]
 8001db8:	b2da      	uxtb	r2, r3
 8001dba:	2b00      	cmp	r3, #0
 8001dbc:	d105      	bne.n	8001dca <HAL_I2C_Init+0x22>
 8001dbe:	0023      	movs	r3, r4
 8001dc0:	3340      	adds	r3, #64	; 0x40
 8001dc2:	0020      	movs	r0, r4
 8001dc4:	701a      	strb	r2, [r3, #0]
 8001dc6:	f7ff fb0d 	bl	80013e4 <HAL_I2C_MspInit>
 8001dca:	2324      	movs	r3, #36	; 0x24
 8001dcc:	2101      	movs	r1, #1
 8001dce:	702b      	strb	r3, [r5, #0]
 8001dd0:	6823      	ldr	r3, [r4, #0]
 8001dd2:	481d      	ldr	r0, [pc, #116]	; (8001e48 <HAL_I2C_Init+0xa0>)
 8001dd4:	681a      	ldr	r2, [r3, #0]
 8001dd6:	68a6      	ldr	r6, [r4, #8]
 8001dd8:	438a      	bics	r2, r1
 8001dda:	601a      	str	r2, [r3, #0]
 8001ddc:	6861      	ldr	r1, [r4, #4]
 8001dde:	4a1b      	ldr	r2, [pc, #108]	; (8001e4c <HAL_I2C_Init+0xa4>)
 8001de0:	400a      	ands	r2, r1
 8001de2:	611a      	str	r2, [r3, #16]
 8001de4:	689a      	ldr	r2, [r3, #8]
 8001de6:	4002      	ands	r2, r0
 8001de8:	609a      	str	r2, [r3, #8]
 8001dea:	68e2      	ldr	r2, [r4, #12]
 8001dec:	2a01      	cmp	r2, #1
 8001dee:	d121      	bne.n	8001e34 <HAL_I2C_Init+0x8c>
 8001df0:	2180      	movs	r1, #128	; 0x80
 8001df2:	0209      	lsls	r1, r1, #8
 8001df4:	4331      	orrs	r1, r6
 8001df6:	6099      	str	r1, [r3, #8]
 8001df8:	685a      	ldr	r2, [r3, #4]
 8001dfa:	4915      	ldr	r1, [pc, #84]	; (8001e50 <HAL_I2C_Init+0xa8>)
 8001dfc:	4311      	orrs	r1, r2
 8001dfe:	6059      	str	r1, [r3, #4]
 8001e00:	68da      	ldr	r2, [r3, #12]
 8001e02:	6961      	ldr	r1, [r4, #20]
 8001e04:	4002      	ands	r2, r0
 8001e06:	60da      	str	r2, [r3, #12]
 8001e08:	6922      	ldr	r2, [r4, #16]
 8001e0a:	2000      	movs	r0, #0
 8001e0c:	430a      	orrs	r2, r1
 8001e0e:	69a1      	ldr	r1, [r4, #24]
 8001e10:	0209      	lsls	r1, r1, #8
 8001e12:	430a      	orrs	r2, r1
 8001e14:	60da      	str	r2, [r3, #12]
 8001e16:	6a21      	ldr	r1, [r4, #32]
 8001e18:	69e2      	ldr	r2, [r4, #28]
 8001e1a:	430a      	orrs	r2, r1
 8001e1c:	601a      	str	r2, [r3, #0]
 8001e1e:	2201      	movs	r2, #1
 8001e20:	6819      	ldr	r1, [r3, #0]
 8001e22:	430a      	orrs	r2, r1
 8001e24:	601a      	str	r2, [r3, #0]
 8001e26:	2320      	movs	r3, #32
 8001e28:	6460      	str	r0, [r4, #68]	; 0x44
 8001e2a:	702b      	strb	r3, [r5, #0]
 8001e2c:	6320      	str	r0, [r4, #48]	; 0x30
 8001e2e:	3442      	adds	r4, #66	; 0x42
 8001e30:	7020      	strb	r0, [r4, #0]
 8001e32:	bd70      	pop	{r4, r5, r6, pc}
 8001e34:	2184      	movs	r1, #132	; 0x84
 8001e36:	0209      	lsls	r1, r1, #8
 8001e38:	4331      	orrs	r1, r6
 8001e3a:	6099      	str	r1, [r3, #8]
 8001e3c:	2a02      	cmp	r2, #2
 8001e3e:	d1db      	bne.n	8001df8 <HAL_I2C_Init+0x50>
 8001e40:	2280      	movs	r2, #128	; 0x80
 8001e42:	0112      	lsls	r2, r2, #4
 8001e44:	605a      	str	r2, [r3, #4]
 8001e46:	e7d7      	b.n	8001df8 <HAL_I2C_Init+0x50>
 8001e48:	ffff7fff 	.word	0xffff7fff
 8001e4c:	f0ffffff 	.word	0xf0ffffff
 8001e50:	02008000 	.word	0x02008000

08001e54 <HAL_I2C_Master_Transmit>:
 8001e54:	b5f0      	push	{r4, r5, r6, r7, lr}
 8001e56:	b087      	sub	sp, #28
 8001e58:	9305      	str	r3, [sp, #20]
 8001e5a:	0003      	movs	r3, r0
 8001e5c:	3341      	adds	r3, #65	; 0x41
 8001e5e:	9204      	str	r2, [sp, #16]
 8001e60:	9303      	str	r3, [sp, #12]
 8001e62:	781b      	ldrb	r3, [r3, #0]
 8001e64:	0004      	movs	r4, r0
 8001e66:	000f      	movs	r7, r1
 8001e68:	2002      	movs	r0, #2
 8001e6a:	2b20      	cmp	r3, #32
 8001e6c:	d114      	bne.n	8001e98 <HAL_I2C_Master_Transmit+0x44>
 8001e6e:	0023      	movs	r3, r4
 8001e70:	3340      	adds	r3, #64	; 0x40
 8001e72:	781a      	ldrb	r2, [r3, #0]
 8001e74:	2a01      	cmp	r2, #1
 8001e76:	d00f      	beq.n	8001e98 <HAL_I2C_Master_Transmit+0x44>
 8001e78:	2601      	movs	r6, #1
 8001e7a:	701e      	strb	r6, [r3, #0]
 8001e7c:	f7ff fbc2 	bl	8001604 <HAL_GetTick>
 8001e80:	2180      	movs	r1, #128	; 0x80
 8001e82:	0005      	movs	r5, r0
 8001e84:	9000      	str	r0, [sp, #0]
 8001e86:	2319      	movs	r3, #25
 8001e88:	0032      	movs	r2, r6
 8001e8a:	0020      	movs	r0, r4
 8001e8c:	0209      	lsls	r1, r1, #8
 8001e8e:	f7ff ff3b 	bl	8001d08 <I2C_WaitOnFlagUntilTimeout>
 8001e92:	2800      	cmp	r0, #0
 8001e94:	d002      	beq.n	8001e9c <HAL_I2C_Master_Transmit+0x48>
 8001e96:	2001      	movs	r0, #1
 8001e98:	b007      	add	sp, #28
 8001e9a:	bdf0      	pop	{r4, r5, r6, r7, pc}
 8001e9c:	2321      	movs	r3, #33	; 0x21
 8001e9e:	0026      	movs	r6, r4
 8001ea0:	9a03      	ldr	r2, [sp, #12]
 8001ea2:	3642      	adds	r6, #66	; 0x42
 8001ea4:	7013      	strb	r3, [r2, #0]
 8001ea6:	3b11      	subs	r3, #17
 8001ea8:	7033      	strb	r3, [r6, #0]
 8001eaa:	9b04      	ldr	r3, [sp, #16]
 8001eac:	6460      	str	r0, [r4, #68]	; 0x44
 8001eae:	6263      	str	r3, [r4, #36]	; 0x24
 8001eb0:	9b05      	ldr	r3, [sp, #20]
 8001eb2:	6360      	str	r0, [r4, #52]	; 0x34
 8001eb4:	8563      	strh	r3, [r4, #42]	; 0x2a
 8001eb6:	8d62      	ldrh	r2, [r4, #42]	; 0x2a
 8001eb8:	4b2d      	ldr	r3, [pc, #180]	; (8001f70 <HAL_I2C_Master_Transmit+0x11c>)
 8001eba:	2aff      	cmp	r2, #255	; 0xff
 8001ebc:	d920      	bls.n	8001f00 <HAL_I2C_Master_Transmit+0xac>
 8001ebe:	22ff      	movs	r2, #255	; 0xff
 8001ec0:	8522      	strh	r2, [r4, #40]	; 0x28
 8001ec2:	9300      	str	r3, [sp, #0]
 8001ec4:	2380      	movs	r3, #128	; 0x80
 8001ec6:	045b      	lsls	r3, r3, #17
 8001ec8:	0039      	movs	r1, r7
 8001eca:	0020      	movs	r0, r4
 8001ecc:	f7ff fe00 	bl	8001ad0 <I2C_TransferConfig>
 8001ed0:	8d63      	ldrh	r3, [r4, #42]	; 0x2a
 8001ed2:	002a      	movs	r2, r5
 8001ed4:	0020      	movs	r0, r4
 8001ed6:	990c      	ldr	r1, [sp, #48]	; 0x30
 8001ed8:	2b00      	cmp	r3, #0
 8001eda:	d119      	bne.n	8001f10 <HAL_I2C_Master_Transmit+0xbc>
 8001edc:	f7ff ff3c 	bl	8001d58 <I2C_WaitOnSTOPFlagUntilTimeout>
 8001ee0:	2800      	cmp	r0, #0
 8001ee2:	d1d8      	bne.n	8001e96 <HAL_I2C_Master_Transmit+0x42>
 8001ee4:	2120      	movs	r1, #32
 8001ee6:	6823      	ldr	r3, [r4, #0]
 8001ee8:	4d22      	ldr	r5, [pc, #136]	; (8001f74 <HAL_I2C_Master_Transmit+0x120>)
 8001eea:	61d9      	str	r1, [r3, #28]
 8001eec:	685a      	ldr	r2, [r3, #4]
 8001eee:	402a      	ands	r2, r5
 8001ef0:	605a      	str	r2, [r3, #4]
 8001ef2:	0023      	movs	r3, r4
 8001ef4:	3440      	adds	r4, #64	; 0x40
 8001ef6:	3341      	adds	r3, #65	; 0x41
 8001ef8:	7019      	strb	r1, [r3, #0]
 8001efa:	7030      	strb	r0, [r6, #0]
 8001efc:	7020      	strb	r0, [r4, #0]
 8001efe:	e7cb      	b.n	8001e98 <HAL_I2C_Master_Transmit+0x44>
 8001f00:	8d62      	ldrh	r2, [r4, #42]	; 0x2a
 8001f02:	b292      	uxth	r2, r2
 8001f04:	8522      	strh	r2, [r4, #40]	; 0x28
 8001f06:	b2d2      	uxtb	r2, r2
 8001f08:	9300      	str	r3, [sp, #0]
 8001f0a:	2380      	movs	r3, #128	; 0x80
 8001f0c:	049b      	lsls	r3, r3, #18
 8001f0e:	e7db      	b.n	8001ec8 <HAL_I2C_Master_Transmit+0x74>
 8001f10:	f7ff fe84 	bl	8001c1c <I2C_WaitOnTXISFlagUntilTimeout>
 8001f14:	2800      	cmp	r0, #0
 8001f16:	d1be      	bne.n	8001e96 <HAL_I2C_Master_Transmit+0x42>
 8001f18:	6a63      	ldr	r3, [r4, #36]	; 0x24
 8001f1a:	6822      	ldr	r2, [r4, #0]
 8001f1c:	7819      	ldrb	r1, [r3, #0]
 8001f1e:	3301      	adds	r3, #1
 8001f20:	6291      	str	r1, [r2, #40]	; 0x28
 8001f22:	6263      	str	r3, [r4, #36]	; 0x24
 8001f24:	8d63      	ldrh	r3, [r4, #42]	; 0x2a
 8001f26:	8d22      	ldrh	r2, [r4, #40]	; 0x28
 8001f28:	3b01      	subs	r3, #1
 8001f2a:	b29b      	uxth	r3, r3
 8001f2c:	8563      	strh	r3, [r4, #42]	; 0x2a
 8001f2e:	3a01      	subs	r2, #1
 8001f30:	8d63      	ldrh	r3, [r4, #42]	; 0x2a
 8001f32:	b292      	uxth	r2, r2
 8001f34:	8522      	strh	r2, [r4, #40]	; 0x28
 8001f36:	2b00      	cmp	r3, #0
 8001f38:	d0ca      	beq.n	8001ed0 <HAL_I2C_Master_Transmit+0x7c>
 8001f3a:	2a00      	cmp	r2, #0
 8001f3c:	d1c8      	bne.n	8001ed0 <HAL_I2C_Master_Transmit+0x7c>
 8001f3e:	2180      	movs	r1, #128	; 0x80
 8001f40:	0020      	movs	r0, r4
 8001f42:	9b0c      	ldr	r3, [sp, #48]	; 0x30
 8001f44:	9500      	str	r5, [sp, #0]
 8001f46:	f7ff fedf 	bl	8001d08 <I2C_WaitOnFlagUntilTimeout>
 8001f4a:	2800      	cmp	r0, #0
 8001f4c:	d1a3      	bne.n	8001e96 <HAL_I2C_Master_Transmit+0x42>
 8001f4e:	8d63      	ldrh	r3, [r4, #42]	; 0x2a
 8001f50:	2bff      	cmp	r3, #255	; 0xff
 8001f52:	d906      	bls.n	8001f62 <HAL_I2C_Master_Transmit+0x10e>
 8001f54:	23ff      	movs	r3, #255	; 0xff
 8001f56:	8523      	strh	r3, [r4, #40]	; 0x28
 8001f58:	2380      	movs	r3, #128	; 0x80
 8001f5a:	22ff      	movs	r2, #255	; 0xff
 8001f5c:	9000      	str	r0, [sp, #0]
 8001f5e:	045b      	lsls	r3, r3, #17
 8001f60:	e7b2      	b.n	8001ec8 <HAL_I2C_Master_Transmit+0x74>
 8001f62:	8d62      	ldrh	r2, [r4, #42]	; 0x2a
 8001f64:	b292      	uxth	r2, r2
 8001f66:	8522      	strh	r2, [r4, #40]	; 0x28
 8001f68:	b2d2      	uxtb	r2, r2
 8001f6a:	9000      	str	r0, [sp, #0]
 8001f6c:	e7cd      	b.n	8001f0a <HAL_I2C_Master_Transmit+0xb6>
 8001f6e:	46c0      	nop			; (mov r8, r8)
 8001f70:	80002000 	.word	0x80002000
 8001f74:	fe00e800 	.word	0xfe00e800

08001f78 <HAL_I2C_Master_Receive>:
 8001f78:	b5f0      	push	{r4, r5, r6, r7, lr}
 8001f7a:	b087      	sub	sp, #28
 8001f7c:	9305      	str	r3, [sp, #20]
 8001f7e:	0003      	movs	r3, r0
 8001f80:	3341      	adds	r3, #65	; 0x41
 8001f82:	9204      	str	r2, [sp, #16]
 8001f84:	9303      	str	r3, [sp, #12]
 8001f86:	781b      	ldrb	r3, [r3, #0]
 8001f88:	0004      	movs	r4, r0
 8001f8a:	000f      	movs	r7, r1
 8001f8c:	2002      	movs	r0, #2
 8001f8e:	2b20      	cmp	r3, #32
 8001f90:	d114      	bne.n	8001fbc <HAL_I2C_Master_Receive+0x44>
 8001f92:	0023      	movs	r3, r4
 8001f94:	3340      	adds	r3, #64	; 0x40
 8001f96:	781a      	ldrb	r2, [r3, #0]
 8001f98:	2a01      	cmp	r2, #1
 8001f9a:	d00f      	beq.n	8001fbc <HAL_I2C_Master_Receive+0x44>
 8001f9c:	2601      	movs	r6, #1
 8001f9e:	701e      	strb	r6, [r3, #0]
 8001fa0:	f7ff fb30 	bl	8001604 <HAL_GetTick>
 8001fa4:	2180      	movs	r1, #128	; 0x80
 8001fa6:	0005      	movs	r5, r0
 8001fa8:	9000      	str	r0, [sp, #0]
 8001faa:	2319      	movs	r3, #25
 8001fac:	0032      	movs	r2, r6
 8001fae:	0020      	movs	r0, r4
 8001fb0:	0209      	lsls	r1, r1, #8
 8001fb2:	f7ff fea9 	bl	8001d08 <I2C_WaitOnFlagUntilTimeout>
 8001fb6:	2800      	cmp	r0, #0
 8001fb8:	d002      	beq.n	8001fc0 <HAL_I2C_Master_Receive+0x48>
 8001fba:	2001      	movs	r0, #1
 8001fbc:	b007      	add	sp, #28
 8001fbe:	bdf0      	pop	{r4, r5, r6, r7, pc}
 8001fc0:	2322      	movs	r3, #34	; 0x22
 8001fc2:	0026      	movs	r6, r4
 8001fc4:	9a03      	ldr	r2, [sp, #12]
 8001fc6:	3642      	adds	r6, #66	; 0x42
 8001fc8:	7013      	strb	r3, [r2, #0]
 8001fca:	3b12      	subs	r3, #18
 8001fcc:	7033      	strb	r3, [r6, #0]
 8001fce:	9b04      	ldr	r3, [sp, #16]
 8001fd0:	6460      	str	r0, [r4, #68]	; 0x44
 8001fd2:	6263      	str	r3, [r4, #36]	; 0x24
 8001fd4:	9b05      	ldr	r3, [sp, #20]
 8001fd6:	6360      	str	r0, [r4, #52]	; 0x34
 8001fd8:	8563      	strh	r3, [r4, #42]	; 0x2a
 8001fda:	8d62      	ldrh	r2, [r4, #42]	; 0x2a
 8001fdc:	4b2d      	ldr	r3, [pc, #180]	; (8002094 <HAL_I2C_Master_Receive+0x11c>)
 8001fde:	2aff      	cmp	r2, #255	; 0xff
 8001fe0:	d920      	bls.n	8002024 <HAL_I2C_Master_Receive+0xac>
 8001fe2:	22ff      	movs	r2, #255	; 0xff
 8001fe4:	8522      	strh	r2, [r4, #40]	; 0x28
 8001fe6:	9300      	str	r3, [sp, #0]
 8001fe8:	2380      	movs	r3, #128	; 0x80
 8001fea:	045b      	lsls	r3, r3, #17
 8001fec:	0039      	movs	r1, r7
 8001fee:	0020      	movs	r0, r4
 8001ff0:	f7ff fd6e 	bl	8001ad0 <I2C_TransferConfig>
 8001ff4:	8d63      	ldrh	r3, [r4, #42]	; 0x2a
 8001ff6:	002a      	movs	r2, r5
 8001ff8:	0020      	movs	r0, r4
 8001ffa:	990c      	ldr	r1, [sp, #48]	; 0x30
 8001ffc:	2b00      	cmp	r3, #0
 8001ffe:	d119      	bne.n	8002034 <HAL_I2C_Master_Receive+0xbc>
 8002000:	f7ff feaa 	bl	8001d58 <I2C_WaitOnSTOPFlagUntilTimeout>
 8002004:	2800      	cmp	r0, #0
 8002006:	d1d8      	bne.n	8001fba <HAL_I2C_Master_Receive+0x42>
 8002008:	2120      	movs	r1, #32
 800200a:	6823      	ldr	r3, [r4, #0]
 800200c:	4d22      	ldr	r5, [pc, #136]	; (8002098 <HAL_I2C_Master_Receive+0x120>)
 800200e:	61d9      	str	r1, [r3, #28]
 8002010:	685a      	ldr	r2, [r3, #4]
 8002012:	402a      	ands	r2, r5
 8002014:	605a      	str	r2, [r3, #4]
 8002016:	0023      	movs	r3, r4
 8002018:	3440      	adds	r4, #64	; 0x40
 800201a:	3341      	adds	r3, #65	; 0x41
 800201c:	7019      	strb	r1, [r3, #0]
 800201e:	7030      	strb	r0, [r6, #0]
 8002020:	7020      	strb	r0, [r4, #0]
 8002022:	e7cb      	b.n	8001fbc <HAL_I2C_Master_Receive+0x44>
 8002024:	8d62      	ldrh	r2, [r4, #42]	; 0x2a
 8002026:	b292      	uxth	r2, r2
 8002028:	8522      	strh	r2, [r4, #40]	; 0x28
 800202a:	b2d2      	uxtb	r2, r2
 800202c:	9300      	str	r3, [sp, #0]
 800202e:	2380      	movs	r3, #128	; 0x80
 8002030:	049b      	lsls	r3, r3, #18
 8002032:	e7db      	b.n	8001fec <HAL_I2C_Master_Receive+0x74>
 8002034:	f7ff fe1c 	bl	8001c70 <I2C_WaitOnRXNEFlagUntilTimeout>
 8002038:	2800      	cmp	r0, #0
 800203a:	d1be      	bne.n	8001fba <HAL_I2C_Master_Receive+0x42>
 800203c:	6823      	ldr	r3, [r4, #0]
 800203e:	6a62      	ldr	r2, [r4, #36]	; 0x24
 8002040:	6a5b      	ldr	r3, [r3, #36]	; 0x24
 8002042:	7013      	strb	r3, [r2, #0]
 8002044:	6a63      	ldr	r3, [r4, #36]	; 0x24
 8002046:	8d22      	ldrh	r2, [r4, #40]	; 0x28
 8002048:	3301      	adds	r3, #1
 800204a:	6263      	str	r3, [r4, #36]	; 0x24
 800204c:	8d63      	ldrh	r3, [r4, #42]	; 0x2a
 800204e:	3a01      	subs	r2, #1
 8002050:	3b01      	subs	r3, #1
 8002052:	b29b      	uxth	r3, r3
 8002054:	8563      	strh	r3, [r4, #42]	; 0x2a
 8002056:	8d63      	ldrh	r3, [r4, #42]	; 0x2a
 8002058:	b292      	uxth	r2, r2
 800205a:	8522      	strh	r2, [r4, #40]	; 0x28
 800205c:	2b00      	cmp	r3, #0
 800205e:	d0c9      	beq.n	8001ff4 <HAL_I2C_Master_Receive+0x7c>
 8002060:	2a00      	cmp	r2, #0
 8002062:	d1c7      	bne.n	8001ff4 <HAL_I2C_Master_Receive+0x7c>
 8002064:	2180      	movs	r1, #128	; 0x80
 8002066:	0020      	movs	r0, r4
 8002068:	9b0c      	ldr	r3, [sp, #48]	; 0x30
 800206a:	9500      	str	r5, [sp, #0]
 800206c:	f7ff fe4c 	bl	8001d08 <I2C_WaitOnFlagUntilTimeout>
 8002070:	2800      	cmp	r0, #0
 8002072:	d1a2      	bne.n	8001fba <HAL_I2C_Master_Receive+0x42>
 8002074:	8d63      	ldrh	r3, [r4, #42]	; 0x2a
 8002076:	2bff      	cmp	r3, #255	; 0xff
 8002078:	d906      	bls.n	8002088 <HAL_I2C_Master_Receive+0x110>
 800207a:	23ff      	movs	r3, #255	; 0xff
 800207c:	8523      	strh	r3, [r4, #40]	; 0x28
 800207e:	2380      	movs	r3, #128	; 0x80
 8002080:	22ff      	movs	r2, #255	; 0xff
 8002082:	9000      	str	r0, [sp, #0]
 8002084:	045b      	lsls	r3, r3, #17
 8002086:	e7b1      	b.n	8001fec <HAL_I2C_Master_Receive+0x74>
 8002088:	8d62      	ldrh	r2, [r4, #42]	; 0x2a
 800208a:	b292      	uxth	r2, r2
 800208c:	8522      	strh	r2, [r4, #40]	; 0x28
 800208e:	b2d2      	uxtb	r2, r2
 8002090:	9000      	str	r0, [sp, #0]
 8002092:	e7cc      	b.n	800202e <HAL_I2C_Master_Receive+0xb6>
 8002094:	80002400 	.word	0x80002400
 8002098:	fe00e800 	.word	0xfe00e800

0800209c <HAL_I2CEx_ConfigAnalogFilter>:
 800209c:	b5f0      	push	{r4, r5, r6, r7, lr}
 800209e:	0004      	movs	r4, r0
 80020a0:	3441      	adds	r4, #65	; 0x41
 80020a2:	7822      	ldrb	r2, [r4, #0]
 80020a4:	0003      	movs	r3, r0
 80020a6:	000f      	movs	r7, r1
 80020a8:	2002      	movs	r0, #2
 80020aa:	b2d6      	uxtb	r6, r2
 80020ac:	2a20      	cmp	r2, #32
 80020ae:	d118      	bne.n	80020e2 <HAL_I2CEx_ConfigAnalogFilter+0x46>
 80020b0:	001d      	movs	r5, r3
 80020b2:	3540      	adds	r5, #64	; 0x40
 80020b4:	782a      	ldrb	r2, [r5, #0]
 80020b6:	2a01      	cmp	r2, #1
 80020b8:	d013      	beq.n	80020e2 <HAL_I2CEx_ConfigAnalogFilter+0x46>
 80020ba:	2224      	movs	r2, #36	; 0x24
 80020bc:	7022      	strb	r2, [r4, #0]
 80020be:	681b      	ldr	r3, [r3, #0]
 80020c0:	3a23      	subs	r2, #35	; 0x23
 80020c2:	6819      	ldr	r1, [r3, #0]
 80020c4:	4807      	ldr	r0, [pc, #28]	; (80020e4 <HAL_I2CEx_ConfigAnalogFilter+0x48>)
 80020c6:	4391      	bics	r1, r2
 80020c8:	6019      	str	r1, [r3, #0]
 80020ca:	6819      	ldr	r1, [r3, #0]
 80020cc:	4001      	ands	r1, r0
 80020ce:	2000      	movs	r0, #0
 80020d0:	6019      	str	r1, [r3, #0]
 80020d2:	6819      	ldr	r1, [r3, #0]
 80020d4:	4339      	orrs	r1, r7
 80020d6:	6019      	str	r1, [r3, #0]
 80020d8:	6819      	ldr	r1, [r3, #0]
 80020da:	430a      	orrs	r2, r1
 80020dc:	601a      	str	r2, [r3, #0]
 80020de:	7026      	strb	r6, [r4, #0]
 80020e0:	7028      	strb	r0, [r5, #0]
 80020e2:	bdf0      	pop	{r4, r5, r6, r7, pc}
 80020e4:	ffffefff 	.word	0xffffefff

080020e8 <HAL_I2CEx_ConfigDigitalFilter>:
 80020e8:	0002      	movs	r2, r0
 80020ea:	b5f0      	push	{r4, r5, r6, r7, lr}
 80020ec:	3241      	adds	r2, #65	; 0x41
 80020ee:	7814      	ldrb	r4, [r2, #0]
 80020f0:	0003      	movs	r3, r0
 80020f2:	b2e5      	uxtb	r5, r4
 80020f4:	2002      	movs	r0, #2
 80020f6:	2c20      	cmp	r4, #32
 80020f8:	d117      	bne.n	800212a <HAL_I2CEx_ConfigDigitalFilter+0x42>
 80020fa:	001c      	movs	r4, r3
 80020fc:	3440      	adds	r4, #64	; 0x40
 80020fe:	7826      	ldrb	r6, [r4, #0]
 8002100:	2e01      	cmp	r6, #1
 8002102:	d012      	beq.n	800212a <HAL_I2CEx_ConfigDigitalFilter+0x42>
 8002104:	3022      	adds	r0, #34	; 0x22
 8002106:	7010      	strb	r0, [r2, #0]
 8002108:	681b      	ldr	r3, [r3, #0]
 800210a:	3823      	subs	r0, #35	; 0x23
 800210c:	681e      	ldr	r6, [r3, #0]
 800210e:	4f07      	ldr	r7, [pc, #28]	; (800212c <HAL_I2CEx_ConfigDigitalFilter+0x44>)
 8002110:	4386      	bics	r6, r0
 8002112:	601e      	str	r6, [r3, #0]
 8002114:	681e      	ldr	r6, [r3, #0]
 8002116:	0209      	lsls	r1, r1, #8
 8002118:	403e      	ands	r6, r7
 800211a:	4331      	orrs	r1, r6
 800211c:	6019      	str	r1, [r3, #0]
 800211e:	6819      	ldr	r1, [r3, #0]
 8002120:	4308      	orrs	r0, r1
 8002122:	6018      	str	r0, [r3, #0]
 8002124:	2000      	movs	r0, #0
 8002126:	7015      	strb	r5, [r2, #0]
 8002128:	7020      	strb	r0, [r4, #0]
 800212a:	bdf0      	pop	{r4, r5, r6, r7, pc}
 800212c:	fffff0ff 	.word	0xfffff0ff

08002130 <HAL_RCC_OscConfig>:
 8002130:	b5f8      	push	{r3, r4, r5, r6, r7, lr}
 8002132:	1e04      	subs	r4, r0, #0
 8002134:	d101      	bne.n	800213a <HAL_RCC_OscConfig+0xa>
 8002136:	2001      	movs	r0, #1
 8002138:	bdf8      	pop	{r3, r4, r5, r6, r7, pc}
 800213a:	6803      	ldr	r3, [r0, #0]
 800213c:	07db      	lsls	r3, r3, #31
 800213e:	d40d      	bmi.n	800215c <HAL_RCC_OscConfig+0x2c>
 8002140:	6823      	ldr	r3, [r4, #0]
 8002142:	079b      	lsls	r3, r3, #30
 8002144:	d453      	bmi.n	80021ee <HAL_RCC_OscConfig+0xbe>
 8002146:	6823      	ldr	r3, [r4, #0]
 8002148:	071b      	lsls	r3, r3, #28
 800214a:	d500      	bpl.n	800214e <HAL_RCC_OscConfig+0x1e>
 800214c:	e0ad      	b.n	80022aa <HAL_RCC_OscConfig+0x17a>
 800214e:	2104      	movs	r1, #4
 8002150:	6823      	ldr	r3, [r4, #0]
 8002152:	420b      	tst	r3, r1
 8002154:	d000      	beq.n	8002158 <HAL_RCC_OscConfig+0x28>
 8002156:	e0dd      	b.n	8002314 <HAL_RCC_OscConfig+0x1e4>
 8002158:	2000      	movs	r0, #0
 800215a:	e7ed      	b.n	8002138 <HAL_RCC_OscConfig+0x8>
 800215c:	2238      	movs	r2, #56	; 0x38
 800215e:	4d8f      	ldr	r5, [pc, #572]	; (800239c <HAL_RCC_OscConfig+0x26c>)
 8002160:	68ab      	ldr	r3, [r5, #8]
 8002162:	4013      	ands	r3, r2
 8002164:	2b08      	cmp	r3, #8
 8002166:	d106      	bne.n	8002176 <HAL_RCC_OscConfig+0x46>
 8002168:	682b      	ldr	r3, [r5, #0]
 800216a:	039b      	lsls	r3, r3, #14
 800216c:	d5e8      	bpl.n	8002140 <HAL_RCC_OscConfig+0x10>
 800216e:	6843      	ldr	r3, [r0, #4]
 8002170:	2b00      	cmp	r3, #0
 8002172:	d1e5      	bne.n	8002140 <HAL_RCC_OscConfig+0x10>
 8002174:	e7df      	b.n	8002136 <HAL_RCC_OscConfig+0x6>
 8002176:	2280      	movs	r2, #128	; 0x80
 8002178:	6843      	ldr	r3, [r0, #4]
 800217a:	0252      	lsls	r2, r2, #9
 800217c:	4293      	cmp	r3, r2
 800217e:	d111      	bne.n	80021a4 <HAL_RCC_OscConfig+0x74>
 8002180:	682a      	ldr	r2, [r5, #0]
 8002182:	4313      	orrs	r3, r2
 8002184:	602b      	str	r3, [r5, #0]
 8002186:	f7ff fa3d 	bl	8001604 <HAL_GetTick>
 800218a:	2780      	movs	r7, #128	; 0x80
 800218c:	0006      	movs	r6, r0
 800218e:	02bf      	lsls	r7, r7, #10
 8002190:	682b      	ldr	r3, [r5, #0]
 8002192:	423b      	tst	r3, r7
 8002194:	d1d4      	bne.n	8002140 <HAL_RCC_OscConfig+0x10>
 8002196:	f7ff fa35 	bl	8001604 <HAL_GetTick>
 800219a:	1b80      	subs	r0, r0, r6
 800219c:	2864      	cmp	r0, #100	; 0x64
 800219e:	d9f7      	bls.n	8002190 <HAL_RCC_OscConfig+0x60>
 80021a0:	2003      	movs	r0, #3
 80021a2:	e7c9      	b.n	8002138 <HAL_RCC_OscConfig+0x8>
 80021a4:	21a0      	movs	r1, #160	; 0xa0
 80021a6:	02c9      	lsls	r1, r1, #11
 80021a8:	428b      	cmp	r3, r1
 80021aa:	d108      	bne.n	80021be <HAL_RCC_OscConfig+0x8e>
 80021ac:	2380      	movs	r3, #128	; 0x80
 80021ae:	6829      	ldr	r1, [r5, #0]
 80021b0:	02db      	lsls	r3, r3, #11
 80021b2:	430b      	orrs	r3, r1
 80021b4:	602b      	str	r3, [r5, #0]
 80021b6:	682b      	ldr	r3, [r5, #0]
 80021b8:	431a      	orrs	r2, r3
 80021ba:	602a      	str	r2, [r5, #0]
 80021bc:	e7e3      	b.n	8002186 <HAL_RCC_OscConfig+0x56>
 80021be:	682a      	ldr	r2, [r5, #0]
 80021c0:	4977      	ldr	r1, [pc, #476]	; (80023a0 <HAL_RCC_OscConfig+0x270>)
 80021c2:	400a      	ands	r2, r1
 80021c4:	602a      	str	r2, [r5, #0]
 80021c6:	682a      	ldr	r2, [r5, #0]
 80021c8:	4976      	ldr	r1, [pc, #472]	; (80023a4 <HAL_RCC_OscConfig+0x274>)
 80021ca:	400a      	ands	r2, r1
 80021cc:	602a      	str	r2, [r5, #0]
 80021ce:	2b00      	cmp	r3, #0
 80021d0:	d1d9      	bne.n	8002186 <HAL_RCC_OscConfig+0x56>
 80021d2:	f7ff fa17 	bl	8001604 <HAL_GetTick>
 80021d6:	2780      	movs	r7, #128	; 0x80
 80021d8:	0006      	movs	r6, r0
 80021da:	02bf      	lsls	r7, r7, #10
 80021dc:	682b      	ldr	r3, [r5, #0]
 80021de:	423b      	tst	r3, r7
 80021e0:	d0ae      	beq.n	8002140 <HAL_RCC_OscConfig+0x10>
 80021e2:	f7ff fa0f 	bl	8001604 <HAL_GetTick>
 80021e6:	1b80      	subs	r0, r0, r6
 80021e8:	2864      	cmp	r0, #100	; 0x64
 80021ea:	d9f7      	bls.n	80021dc <HAL_RCC_OscConfig+0xac>
 80021ec:	e7d8      	b.n	80021a0 <HAL_RCC_OscConfig+0x70>
 80021ee:	2338      	movs	r3, #56	; 0x38
 80021f0:	4d6a      	ldr	r5, [pc, #424]	; (800239c <HAL_RCC_OscConfig+0x26c>)
 80021f2:	68aa      	ldr	r2, [r5, #8]
 80021f4:	421a      	tst	r2, r3
 80021f6:	d121      	bne.n	800223c <HAL_RCC_OscConfig+0x10c>
 80021f8:	682b      	ldr	r3, [r5, #0]
 80021fa:	055b      	lsls	r3, r3, #21
 80021fc:	d502      	bpl.n	8002204 <HAL_RCC_OscConfig+0xd4>
 80021fe:	68e3      	ldr	r3, [r4, #12]
 8002200:	2b00      	cmp	r3, #0
 8002202:	d098      	beq.n	8002136 <HAL_RCC_OscConfig+0x6>
 8002204:	686a      	ldr	r2, [r5, #4]
 8002206:	6963      	ldr	r3, [r4, #20]
 8002208:	4967      	ldr	r1, [pc, #412]	; (80023a8 <HAL_RCC_OscConfig+0x278>)
 800220a:	021b      	lsls	r3, r3, #8
 800220c:	400a      	ands	r2, r1
 800220e:	4313      	orrs	r3, r2
 8002210:	606b      	str	r3, [r5, #4]
 8002212:	682b      	ldr	r3, [r5, #0]
 8002214:	4a65      	ldr	r2, [pc, #404]	; (80023ac <HAL_RCC_OscConfig+0x27c>)
 8002216:	4013      	ands	r3, r2
 8002218:	6922      	ldr	r2, [r4, #16]
 800221a:	4313      	orrs	r3, r2
 800221c:	602b      	str	r3, [r5, #0]
 800221e:	682b      	ldr	r3, [r5, #0]
 8002220:	4a63      	ldr	r2, [pc, #396]	; (80023b0 <HAL_RCC_OscConfig+0x280>)
 8002222:	049b      	lsls	r3, r3, #18
 8002224:	0f5b      	lsrs	r3, r3, #29
 8002226:	40da      	lsrs	r2, r3
 8002228:	0013      	movs	r3, r2
 800222a:	4a62      	ldr	r2, [pc, #392]	; (80023b4 <HAL_RCC_OscConfig+0x284>)
 800222c:	6013      	str	r3, [r2, #0]
 800222e:	4b62      	ldr	r3, [pc, #392]	; (80023b8 <HAL_RCC_OscConfig+0x288>)
 8002230:	6818      	ldr	r0, [r3, #0]
 8002232:	f7ff f9a7 	bl	8001584 <HAL_InitTick>
 8002236:	2800      	cmp	r0, #0
 8002238:	d085      	beq.n	8002146 <HAL_RCC_OscConfig+0x16>
 800223a:	e77c      	b.n	8002136 <HAL_RCC_OscConfig+0x6>
 800223c:	68e3      	ldr	r3, [r4, #12]
 800223e:	2b00      	cmp	r3, #0
 8002240:	d020      	beq.n	8002284 <HAL_RCC_OscConfig+0x154>
 8002242:	682b      	ldr	r3, [r5, #0]
 8002244:	4a59      	ldr	r2, [pc, #356]	; (80023ac <HAL_RCC_OscConfig+0x27c>)
 8002246:	2780      	movs	r7, #128	; 0x80
 8002248:	4013      	ands	r3, r2
 800224a:	6922      	ldr	r2, [r4, #16]
 800224c:	00ff      	lsls	r7, r7, #3
 800224e:	4313      	orrs	r3, r2
 8002250:	602b      	str	r3, [r5, #0]
 8002252:	2380      	movs	r3, #128	; 0x80
 8002254:	682a      	ldr	r2, [r5, #0]
 8002256:	005b      	lsls	r3, r3, #1
 8002258:	4313      	orrs	r3, r2
 800225a:	602b      	str	r3, [r5, #0]
 800225c:	f7ff f9d2 	bl	8001604 <HAL_GetTick>
 8002260:	0006      	movs	r6, r0
 8002262:	682b      	ldr	r3, [r5, #0]
 8002264:	423b      	tst	r3, r7
 8002266:	d007      	beq.n	8002278 <HAL_RCC_OscConfig+0x148>
 8002268:	686a      	ldr	r2, [r5, #4]
 800226a:	6963      	ldr	r3, [r4, #20]
 800226c:	494e      	ldr	r1, [pc, #312]	; (80023a8 <HAL_RCC_OscConfig+0x278>)
 800226e:	021b      	lsls	r3, r3, #8
 8002270:	400a      	ands	r2, r1
 8002272:	4313      	orrs	r3, r2
 8002274:	606b      	str	r3, [r5, #4]
 8002276:	e766      	b.n	8002146 <HAL_RCC_OscConfig+0x16>
 8002278:	f7ff f9c4 	bl	8001604 <HAL_GetTick>
 800227c:	1b80      	subs	r0, r0, r6
 800227e:	2802      	cmp	r0, #2
 8002280:	d9ef      	bls.n	8002262 <HAL_RCC_OscConfig+0x132>
 8002282:	e78d      	b.n	80021a0 <HAL_RCC_OscConfig+0x70>
 8002284:	682b      	ldr	r3, [r5, #0]
 8002286:	4a4d      	ldr	r2, [pc, #308]	; (80023bc <HAL_RCC_OscConfig+0x28c>)
 8002288:	2780      	movs	r7, #128	; 0x80
 800228a:	4013      	ands	r3, r2
 800228c:	602b      	str	r3, [r5, #0]
 800228e:	f7ff f9b9 	bl	8001604 <HAL_GetTick>
 8002292:	0006      	movs	r6, r0
 8002294:	00ff      	lsls	r7, r7, #3
 8002296:	682b      	ldr	r3, [r5, #0]
 8002298:	423b      	tst	r3, r7
 800229a:	d100      	bne.n	800229e <HAL_RCC_OscConfig+0x16e>
 800229c:	e753      	b.n	8002146 <HAL_RCC_OscConfig+0x16>
 800229e:	f7ff f9b1 	bl	8001604 <HAL_GetTick>
 80022a2:	1b80      	subs	r0, r0, r6
 80022a4:	2802      	cmp	r0, #2
 80022a6:	d9f6      	bls.n	8002296 <HAL_RCC_OscConfig+0x166>
 80022a8:	e77a      	b.n	80021a0 <HAL_RCC_OscConfig+0x70>
 80022aa:	2238      	movs	r2, #56	; 0x38
 80022ac:	4d3b      	ldr	r5, [pc, #236]	; (800239c <HAL_RCC_OscConfig+0x26c>)
 80022ae:	68ab      	ldr	r3, [r5, #8]
 80022b0:	4013      	ands	r3, r2
 80022b2:	2b18      	cmp	r3, #24
 80022b4:	d108      	bne.n	80022c8 <HAL_RCC_OscConfig+0x198>
 80022b6:	6e2b      	ldr	r3, [r5, #96]	; 0x60
 80022b8:	079b      	lsls	r3, r3, #30
 80022ba:	d400      	bmi.n	80022be <HAL_RCC_OscConfig+0x18e>
 80022bc:	e747      	b.n	800214e <HAL_RCC_OscConfig+0x1e>
 80022be:	69a3      	ldr	r3, [r4, #24]
 80022c0:	2b00      	cmp	r3, #0
 80022c2:	d000      	beq.n	80022c6 <HAL_RCC_OscConfig+0x196>
 80022c4:	e743      	b.n	800214e <HAL_RCC_OscConfig+0x1e>
 80022c6:	e736      	b.n	8002136 <HAL_RCC_OscConfig+0x6>
 80022c8:	69a2      	ldr	r2, [r4, #24]
 80022ca:	2301      	movs	r3, #1
 80022cc:	2a00      	cmp	r2, #0
 80022ce:	d010      	beq.n	80022f2 <HAL_RCC_OscConfig+0x1c2>
 80022d0:	6e2a      	ldr	r2, [r5, #96]	; 0x60
 80022d2:	2702      	movs	r7, #2
 80022d4:	4313      	orrs	r3, r2
 80022d6:	662b      	str	r3, [r5, #96]	; 0x60
 80022d8:	f7ff f994 	bl	8001604 <HAL_GetTick>
 80022dc:	0006      	movs	r6, r0
 80022de:	6e2b      	ldr	r3, [r5, #96]	; 0x60
 80022e0:	423b      	tst	r3, r7
 80022e2:	d000      	beq.n	80022e6 <HAL_RCC_OscConfig+0x1b6>
 80022e4:	e733      	b.n	800214e <HAL_RCC_OscConfig+0x1e>
 80022e6:	f7ff f98d 	bl	8001604 <HAL_GetTick>
 80022ea:	1b80      	subs	r0, r0, r6
 80022ec:	2802      	cmp	r0, #2
 80022ee:	d9f6      	bls.n	80022de <HAL_RCC_OscConfig+0x1ae>
 80022f0:	e756      	b.n	80021a0 <HAL_RCC_OscConfig+0x70>
 80022f2:	6e2a      	ldr	r2, [r5, #96]	; 0x60
 80022f4:	2702      	movs	r7, #2
 80022f6:	439a      	bics	r2, r3
 80022f8:	662a      	str	r2, [r5, #96]	; 0x60
 80022fa:	f7ff f983 	bl	8001604 <HAL_GetTick>
 80022fe:	0006      	movs	r6, r0
 8002300:	6e2b      	ldr	r3, [r5, #96]	; 0x60
 8002302:	423b      	tst	r3, r7
 8002304:	d100      	bne.n	8002308 <HAL_RCC_OscConfig+0x1d8>
 8002306:	e722      	b.n	800214e <HAL_RCC_OscConfig+0x1e>
 8002308:	f7ff f97c 	bl	8001604 <HAL_GetTick>
 800230c:	1b80      	subs	r0, r0, r6
 800230e:	2802      	cmp	r0, #2
 8002310:	d9f6      	bls.n	8002300 <HAL_RCC_OscConfig+0x1d0>
 8002312:	e745      	b.n	80021a0 <HAL_RCC_OscConfig+0x70>
 8002314:	2238      	movs	r2, #56	; 0x38
 8002316:	4d21      	ldr	r5, [pc, #132]	; (800239c <HAL_RCC_OscConfig+0x26c>)
 8002318:	68ab      	ldr	r3, [r5, #8]
 800231a:	4013      	ands	r3, r2
 800231c:	2b20      	cmp	r3, #32
 800231e:	d108      	bne.n	8002332 <HAL_RCC_OscConfig+0x202>
 8002320:	6deb      	ldr	r3, [r5, #92]	; 0x5c
 8002322:	079b      	lsls	r3, r3, #30
 8002324:	d400      	bmi.n	8002328 <HAL_RCC_OscConfig+0x1f8>
 8002326:	e717      	b.n	8002158 <HAL_RCC_OscConfig+0x28>
 8002328:	68a0      	ldr	r0, [r4, #8]
 800232a:	4243      	negs	r3, r0
 800232c:	4158      	adcs	r0, r3
 800232e:	b2c0      	uxtb	r0, r0
 8002330:	e702      	b.n	8002138 <HAL_RCC_OscConfig+0x8>
 8002332:	68a3      	ldr	r3, [r4, #8]
 8002334:	2b01      	cmp	r3, #1
 8002336:	d111      	bne.n	800235c <HAL_RCC_OscConfig+0x22c>
 8002338:	6dea      	ldr	r2, [r5, #92]	; 0x5c
 800233a:	4313      	orrs	r3, r2
 800233c:	65eb      	str	r3, [r5, #92]	; 0x5c
 800233e:	f7ff f961 	bl	8001604 <HAL_GetTick>
 8002342:	2602      	movs	r6, #2
 8002344:	0004      	movs	r4, r0
 8002346:	6deb      	ldr	r3, [r5, #92]	; 0x5c
 8002348:	4233      	tst	r3, r6
 800234a:	d000      	beq.n	800234e <HAL_RCC_OscConfig+0x21e>
 800234c:	e704      	b.n	8002158 <HAL_RCC_OscConfig+0x28>
 800234e:	f7ff f959 	bl	8001604 <HAL_GetTick>
 8002352:	4b1b      	ldr	r3, [pc, #108]	; (80023c0 <HAL_RCC_OscConfig+0x290>)
 8002354:	1b00      	subs	r0, r0, r4
 8002356:	4298      	cmp	r0, r3
 8002358:	d9f5      	bls.n	8002346 <HAL_RCC_OscConfig+0x216>
 800235a:	e721      	b.n	80021a0 <HAL_RCC_OscConfig+0x70>
 800235c:	2b05      	cmp	r3, #5
 800235e:	d105      	bne.n	800236c <HAL_RCC_OscConfig+0x23c>
 8002360:	6deb      	ldr	r3, [r5, #92]	; 0x5c
 8002362:	4319      	orrs	r1, r3
 8002364:	65e9      	str	r1, [r5, #92]	; 0x5c
 8002366:	2301      	movs	r3, #1
 8002368:	6dea      	ldr	r2, [r5, #92]	; 0x5c
 800236a:	e7e6      	b.n	800233a <HAL_RCC_OscConfig+0x20a>
 800236c:	2001      	movs	r0, #1
 800236e:	6dea      	ldr	r2, [r5, #92]	; 0x5c
 8002370:	4382      	bics	r2, r0
 8002372:	65ea      	str	r2, [r5, #92]	; 0x5c
 8002374:	6dea      	ldr	r2, [r5, #92]	; 0x5c
 8002376:	438a      	bics	r2, r1
 8002378:	65ea      	str	r2, [r5, #92]	; 0x5c
 800237a:	2b00      	cmp	r3, #0
 800237c:	d1df      	bne.n	800233e <HAL_RCC_OscConfig+0x20e>
 800237e:	f7ff f941 	bl	8001604 <HAL_GetTick>
 8002382:	2602      	movs	r6, #2
 8002384:	0004      	movs	r4, r0
 8002386:	6deb      	ldr	r3, [r5, #92]	; 0x5c
 8002388:	4233      	tst	r3, r6
 800238a:	d100      	bne.n	800238e <HAL_RCC_OscConfig+0x25e>
 800238c:	e6e4      	b.n	8002158 <HAL_RCC_OscConfig+0x28>
 800238e:	f7ff f939 	bl	8001604 <HAL_GetTick>
 8002392:	4b0b      	ldr	r3, [pc, #44]	; (80023c0 <HAL_RCC_OscConfig+0x290>)
 8002394:	1b00      	subs	r0, r0, r4
 8002396:	4298      	cmp	r0, r3
 8002398:	d9f5      	bls.n	8002386 <HAL_RCC_OscConfig+0x256>
 800239a:	e701      	b.n	80021a0 <HAL_RCC_OscConfig+0x70>
 800239c:	40021000 	.word	0x40021000
 80023a0:	fffeffff 	.word	0xfffeffff
 80023a4:	fffbffff 	.word	0xfffbffff
 80023a8:	ffff80ff 	.word	0xffff80ff
 80023ac:	ffffc7ff 	.word	0xffffc7ff
 80023b0:	02dc6c00 	.word	0x02dc6c00
 80023b4:	20000000 	.word	0x20000000
 80023b8:	20000008 	.word	0x20000008
 80023bc:	fffffeff 	.word	0xfffffeff
 80023c0:	00001388 	.word	0x00001388

080023c4 <HAL_RCC_GetSysClockFreq>:
 80023c4:	2238      	movs	r2, #56	; 0x38
 80023c6:	4b0f      	ldr	r3, [pc, #60]	; (8002404 <HAL_RCC_GetSysClockFreq+0x40>)
 80023c8:	6899      	ldr	r1, [r3, #8]
 80023ca:	4211      	tst	r1, r2
 80023cc:	d105      	bne.n	80023da <HAL_RCC_GetSysClockFreq+0x16>
 80023ce:	681b      	ldr	r3, [r3, #0]
 80023d0:	480d      	ldr	r0, [pc, #52]	; (8002408 <HAL_RCC_GetSysClockFreq+0x44>)
 80023d2:	049b      	lsls	r3, r3, #18
 80023d4:	0f5b      	lsrs	r3, r3, #29
 80023d6:	40d8      	lsrs	r0, r3
 80023d8:	4770      	bx	lr
 80023da:	6899      	ldr	r1, [r3, #8]
 80023dc:	4011      	ands	r1, r2
 80023de:	2908      	cmp	r1, #8
 80023e0:	d00b      	beq.n	80023fa <HAL_RCC_GetSysClockFreq+0x36>
 80023e2:	6899      	ldr	r1, [r3, #8]
 80023e4:	4011      	ands	r1, r2
 80023e6:	2920      	cmp	r1, #32
 80023e8:	d009      	beq.n	80023fe <HAL_RCC_GetSysClockFreq+0x3a>
 80023ea:	689b      	ldr	r3, [r3, #8]
 80023ec:	2000      	movs	r0, #0
 80023ee:	401a      	ands	r2, r3
 80023f0:	2a18      	cmp	r2, #24
 80023f2:	d1f1      	bne.n	80023d8 <HAL_RCC_GetSysClockFreq+0x14>
 80023f4:	20fa      	movs	r0, #250	; 0xfa
 80023f6:	01c0      	lsls	r0, r0, #7
 80023f8:	e7ee      	b.n	80023d8 <HAL_RCC_GetSysClockFreq+0x14>
 80023fa:	4804      	ldr	r0, [pc, #16]	; (800240c <HAL_RCC_GetSysClockFreq+0x48>)
 80023fc:	e7ec      	b.n	80023d8 <HAL_RCC_GetSysClockFreq+0x14>
 80023fe:	2080      	movs	r0, #128	; 0x80
 8002400:	0200      	lsls	r0, r0, #8
 8002402:	e7e9      	b.n	80023d8 <HAL_RCC_GetSysClockFreq+0x14>
 8002404:	40021000 	.word	0x40021000
 8002408:	02dc6c00 	.word	0x02dc6c00
 800240c:	007a1200 	.word	0x007a1200

08002410 <HAL_RCC_ClockConfig>:
 8002410:	b5f7      	push	{r0, r1, r2, r4, r5, r6, r7, lr}
 8002412:	0004      	movs	r4, r0
 8002414:	000d      	movs	r5, r1
 8002416:	2800      	cmp	r0, #0
 8002418:	d101      	bne.n	800241e <HAL_RCC_ClockConfig+0xe>
 800241a:	2001      	movs	r0, #1
 800241c:	bdfe      	pop	{r1, r2, r3, r4, r5, r6, r7, pc}
 800241e:	2707      	movs	r7, #7
 8002420:	4e4b      	ldr	r6, [pc, #300]	; (8002550 <HAL_RCC_ClockConfig+0x140>)
 8002422:	6833      	ldr	r3, [r6, #0]
 8002424:	403b      	ands	r3, r7
 8002426:	428b      	cmp	r3, r1
 8002428:	d32a      	bcc.n	8002480 <HAL_RCC_ClockConfig+0x70>
 800242a:	6821      	ldr	r1, [r4, #0]
 800242c:	078b      	lsls	r3, r1, #30
 800242e:	d43b      	bmi.n	80024a8 <HAL_RCC_ClockConfig+0x98>
 8002430:	07cb      	lsls	r3, r1, #31
 8002432:	d44a      	bmi.n	80024ca <HAL_RCC_ClockConfig+0xba>
 8002434:	2707      	movs	r7, #7
 8002436:	6833      	ldr	r3, [r6, #0]
 8002438:	403b      	ands	r3, r7
 800243a:	42ab      	cmp	r3, r5
 800243c:	d90a      	bls.n	8002454 <HAL_RCC_ClockConfig+0x44>
 800243e:	6833      	ldr	r3, [r6, #0]
 8002440:	43bb      	bics	r3, r7
 8002442:	432b      	orrs	r3, r5
 8002444:	6033      	str	r3, [r6, #0]
 8002446:	f7ff f8dd 	bl	8001604 <HAL_GetTick>
 800244a:	9001      	str	r0, [sp, #4]
 800244c:	6833      	ldr	r3, [r6, #0]
 800244e:	403b      	ands	r3, r7
 8002450:	42ab      	cmp	r3, r5
 8002452:	d16d      	bne.n	8002530 <HAL_RCC_ClockConfig+0x120>
 8002454:	6823      	ldr	r3, [r4, #0]
 8002456:	4d3f      	ldr	r5, [pc, #252]	; (8002554 <HAL_RCC_ClockConfig+0x144>)
 8002458:	075b      	lsls	r3, r3, #29
 800245a:	d471      	bmi.n	8002540 <HAL_RCC_ClockConfig+0x130>
 800245c:	f7ff ffb2 	bl	80023c4 <HAL_RCC_GetSysClockFreq>
 8002460:	68ab      	ldr	r3, [r5, #8]
 8002462:	4a3d      	ldr	r2, [pc, #244]	; (8002558 <HAL_RCC_ClockConfig+0x148>)
 8002464:	051b      	lsls	r3, r3, #20
 8002466:	0f1b      	lsrs	r3, r3, #28
 8002468:	009b      	lsls	r3, r3, #2
 800246a:	589b      	ldr	r3, [r3, r2]
 800246c:	221f      	movs	r2, #31
 800246e:	4013      	ands	r3, r2
 8002470:	40d8      	lsrs	r0, r3
 8002472:	4b3a      	ldr	r3, [pc, #232]	; (800255c <HAL_RCC_ClockConfig+0x14c>)
 8002474:	6018      	str	r0, [r3, #0]
 8002476:	4b3a      	ldr	r3, [pc, #232]	; (8002560 <HAL_RCC_ClockConfig+0x150>)
 8002478:	6818      	ldr	r0, [r3, #0]
 800247a:	f7ff f883 	bl	8001584 <HAL_InitTick>
 800247e:	e7cd      	b.n	800241c <HAL_RCC_ClockConfig+0xc>
 8002480:	6833      	ldr	r3, [r6, #0]
 8002482:	43bb      	bics	r3, r7
 8002484:	430b      	orrs	r3, r1
 8002486:	6033      	str	r3, [r6, #0]
 8002488:	f7ff f8bc 	bl	8001604 <HAL_GetTick>
 800248c:	9001      	str	r0, [sp, #4]
 800248e:	6833      	ldr	r3, [r6, #0]
 8002490:	403b      	ands	r3, r7
 8002492:	42ab      	cmp	r3, r5
 8002494:	d0c9      	beq.n	800242a <HAL_RCC_ClockConfig+0x1a>
 8002496:	f7ff f8b5 	bl	8001604 <HAL_GetTick>
 800249a:	9b01      	ldr	r3, [sp, #4]
 800249c:	1ac0      	subs	r0, r0, r3
 800249e:	4b31      	ldr	r3, [pc, #196]	; (8002564 <HAL_RCC_ClockConfig+0x154>)
 80024a0:	4298      	cmp	r0, r3
 80024a2:	d9f4      	bls.n	800248e <HAL_RCC_ClockConfig+0x7e>
 80024a4:	2003      	movs	r0, #3
 80024a6:	e7b9      	b.n	800241c <HAL_RCC_ClockConfig+0xc>
 80024a8:	4a2a      	ldr	r2, [pc, #168]	; (8002554 <HAL_RCC_ClockConfig+0x144>)
 80024aa:	074b      	lsls	r3, r1, #29
 80024ac:	d506      	bpl.n	80024bc <HAL_RCC_ClockConfig+0xac>
 80024ae:	6893      	ldr	r3, [r2, #8]
 80024b0:	482d      	ldr	r0, [pc, #180]	; (8002568 <HAL_RCC_ClockConfig+0x158>)
 80024b2:	4018      	ands	r0, r3
 80024b4:	23b0      	movs	r3, #176	; 0xb0
 80024b6:	011b      	lsls	r3, r3, #4
 80024b8:	4303      	orrs	r3, r0
 80024ba:	6093      	str	r3, [r2, #8]
 80024bc:	6893      	ldr	r3, [r2, #8]
 80024be:	482b      	ldr	r0, [pc, #172]	; (800256c <HAL_RCC_ClockConfig+0x15c>)
 80024c0:	4003      	ands	r3, r0
 80024c2:	68e0      	ldr	r0, [r4, #12]
 80024c4:	4303      	orrs	r3, r0
 80024c6:	6093      	str	r3, [r2, #8]
 80024c8:	e7b2      	b.n	8002430 <HAL_RCC_ClockConfig+0x20>
 80024ca:	221c      	movs	r2, #28
 80024cc:	4f21      	ldr	r7, [pc, #132]	; (8002554 <HAL_RCC_ClockConfig+0x144>)
 80024ce:	683b      	ldr	r3, [r7, #0]
 80024d0:	4393      	bics	r3, r2
 80024d2:	68a2      	ldr	r2, [r4, #8]
 80024d4:	4313      	orrs	r3, r2
 80024d6:	603b      	str	r3, [r7, #0]
 80024d8:	6862      	ldr	r2, [r4, #4]
 80024da:	2a01      	cmp	r2, #1
 80024dc:	d119      	bne.n	8002512 <HAL_RCC_ClockConfig+0x102>
 80024de:	683b      	ldr	r3, [r7, #0]
 80024e0:	039b      	lsls	r3, r3, #14
 80024e2:	d59a      	bpl.n	800241a <HAL_RCC_ClockConfig+0xa>
 80024e4:	2107      	movs	r1, #7
 80024e6:	68bb      	ldr	r3, [r7, #8]
 80024e8:	438b      	bics	r3, r1
 80024ea:	4313      	orrs	r3, r2
 80024ec:	60bb      	str	r3, [r7, #8]
 80024ee:	f7ff f889 	bl	8001604 <HAL_GetTick>
 80024f2:	9001      	str	r0, [sp, #4]
 80024f4:	2338      	movs	r3, #56	; 0x38
 80024f6:	68ba      	ldr	r2, [r7, #8]
 80024f8:	401a      	ands	r2, r3
 80024fa:	6863      	ldr	r3, [r4, #4]
 80024fc:	00db      	lsls	r3, r3, #3
 80024fe:	429a      	cmp	r2, r3
 8002500:	d098      	beq.n	8002434 <HAL_RCC_ClockConfig+0x24>
 8002502:	f7ff f87f 	bl	8001604 <HAL_GetTick>
 8002506:	9b01      	ldr	r3, [sp, #4]
 8002508:	1ac0      	subs	r0, r0, r3
 800250a:	4b16      	ldr	r3, [pc, #88]	; (8002564 <HAL_RCC_ClockConfig+0x154>)
 800250c:	4298      	cmp	r0, r3
 800250e:	d9f1      	bls.n	80024f4 <HAL_RCC_ClockConfig+0xe4>
 8002510:	e7c8      	b.n	80024a4 <HAL_RCC_ClockConfig+0x94>
 8002512:	2a00      	cmp	r2, #0
 8002514:	d103      	bne.n	800251e <HAL_RCC_ClockConfig+0x10e>
 8002516:	683b      	ldr	r3, [r7, #0]
 8002518:	055b      	lsls	r3, r3, #21
 800251a:	d4e3      	bmi.n	80024e4 <HAL_RCC_ClockConfig+0xd4>
 800251c:	e77d      	b.n	800241a <HAL_RCC_ClockConfig+0xa>
 800251e:	2302      	movs	r3, #2
 8002520:	2a03      	cmp	r2, #3
 8002522:	d103      	bne.n	800252c <HAL_RCC_ClockConfig+0x11c>
 8002524:	6e39      	ldr	r1, [r7, #96]	; 0x60
 8002526:	4219      	tst	r1, r3
 8002528:	d1dc      	bne.n	80024e4 <HAL_RCC_ClockConfig+0xd4>
 800252a:	e776      	b.n	800241a <HAL_RCC_ClockConfig+0xa>
 800252c:	6df9      	ldr	r1, [r7, #92]	; 0x5c
 800252e:	e7fa      	b.n	8002526 <HAL_RCC_ClockConfig+0x116>
 8002530:	f7ff f868 	bl	8001604 <HAL_GetTick>
 8002534:	9b01      	ldr	r3, [sp, #4]
 8002536:	1ac0      	subs	r0, r0, r3
 8002538:	4b0a      	ldr	r3, [pc, #40]	; (8002564 <HAL_RCC_ClockConfig+0x154>)
 800253a:	4298      	cmp	r0, r3
 800253c:	d986      	bls.n	800244c <HAL_RCC_ClockConfig+0x3c>
 800253e:	e7b1      	b.n	80024a4 <HAL_RCC_ClockConfig+0x94>
 8002540:	68ab      	ldr	r3, [r5, #8]
 8002542:	4a0b      	ldr	r2, [pc, #44]	; (8002570 <HAL_RCC_ClockConfig+0x160>)
 8002544:	4013      	ands	r3, r2
 8002546:	6922      	ldr	r2, [r4, #16]
 8002548:	4313      	orrs	r3, r2
 800254a:	60ab      	str	r3, [r5, #8]
 800254c:	e786      	b.n	800245c <HAL_RCC_ClockConfig+0x4c>
 800254e:	46c0      	nop			; (mov r8, r8)
 8002550:	40022000 	.word	0x40022000
 8002554:	40021000 	.word	0x40021000
 8002558:	08002f64 	.word	0x08002f64
 800255c:	20000000 	.word	0x20000000
 8002560:	20000008 	.word	0x20000008
 8002564:	00001388 	.word	0x00001388
 8002568:	ffff84ff 	.word	0xffff84ff
 800256c:	fffff0ff 	.word	0xfffff0ff
 8002570:	ffff8fff 	.word	0xffff8fff

08002574 <HAL_RCC_GetPCLK1Freq>:
 8002574:	4b06      	ldr	r3, [pc, #24]	; (8002590 <HAL_RCC_GetPCLK1Freq+0x1c>)
 8002576:	4a07      	ldr	r2, [pc, #28]	; (8002594 <HAL_RCC_GetPCLK1Freq+0x20>)
 8002578:	689b      	ldr	r3, [r3, #8]
 800257a:	045b      	lsls	r3, r3, #17
 800257c:	0f5b      	lsrs	r3, r3, #29
 800257e:	009b      	lsls	r3, r3, #2
 8002580:	589b      	ldr	r3, [r3, r2]
 8002582:	221f      	movs	r2, #31
 8002584:	4013      	ands	r3, r2
 8002586:	4a04      	ldr	r2, [pc, #16]	; (8002598 <HAL_RCC_GetPCLK1Freq+0x24>)
 8002588:	6810      	ldr	r0, [r2, #0]
 800258a:	40d8      	lsrs	r0, r3
 800258c:	4770      	bx	lr
 800258e:	46c0      	nop			; (mov r8, r8)
 8002590:	40021000 	.word	0x40021000
 8002594:	08002fa4 	.word	0x08002fa4
 8002598:	20000000 	.word	0x20000000

0800259c <HAL_RCCEx_PeriphCLKConfig>:
 800259c:	b5f0      	push	{r4, r5, r6, r7, lr}
 800259e:	0005      	movs	r5, r0
 80025a0:	682b      	ldr	r3, [r5, #0]
 80025a2:	2000      	movs	r0, #0
 80025a4:	b085      	sub	sp, #20
 80025a6:	039b      	lsls	r3, r3, #14
 80025a8:	d522      	bpl.n	80025f0 <HAL_RCCEx_PeriphCLKConfig+0x54>
 80025aa:	2280      	movs	r2, #128	; 0x80
 80025ac:	4c39      	ldr	r4, [pc, #228]	; (8002694 <HAL_RCCEx_PeriphCLKConfig+0xf8>)
 80025ae:	0552      	lsls	r2, r2, #21
 80025b0:	6be3      	ldr	r3, [r4, #60]	; 0x3c
 80025b2:	0006      	movs	r6, r0
 80025b4:	4213      	tst	r3, r2
 80025b6:	d107      	bne.n	80025c8 <HAL_RCCEx_PeriphCLKConfig+0x2c>
 80025b8:	6be3      	ldr	r3, [r4, #60]	; 0x3c
 80025ba:	3601      	adds	r6, #1
 80025bc:	4313      	orrs	r3, r2
 80025be:	63e3      	str	r3, [r4, #60]	; 0x3c
 80025c0:	6be3      	ldr	r3, [r4, #60]	; 0x3c
 80025c2:	4013      	ands	r3, r2
 80025c4:	9303      	str	r3, [sp, #12]
 80025c6:	9b03      	ldr	r3, [sp, #12]
 80025c8:	6de2      	ldr	r2, [r4, #92]	; 0x5c
 80025ca:	23c0      	movs	r3, #192	; 0xc0
 80025cc:	0011      	movs	r1, r2
 80025ce:	009b      	lsls	r3, r3, #2
 80025d0:	4f31      	ldr	r7, [pc, #196]	; (8002698 <HAL_RCCEx_PeriphCLKConfig+0xfc>)
 80025d2:	4019      	ands	r1, r3
 80025d4:	421a      	tst	r2, r3
 80025d6:	d13b      	bne.n	8002650 <HAL_RCCEx_PeriphCLKConfig+0xb4>
 80025d8:	2000      	movs	r0, #0
 80025da:	6de3      	ldr	r3, [r4, #92]	; 0x5c
 80025dc:	401f      	ands	r7, r3
 80025de:	69ab      	ldr	r3, [r5, #24]
 80025e0:	431f      	orrs	r7, r3
 80025e2:	65e7      	str	r7, [r4, #92]	; 0x5c
 80025e4:	2e01      	cmp	r6, #1
 80025e6:	d103      	bne.n	80025f0 <HAL_RCCEx_PeriphCLKConfig+0x54>
 80025e8:	6be3      	ldr	r3, [r4, #60]	; 0x3c
 80025ea:	4a2c      	ldr	r2, [pc, #176]	; (800269c <HAL_RCCEx_PeriphCLKConfig+0x100>)
 80025ec:	4013      	ands	r3, r2
 80025ee:	63e3      	str	r3, [r4, #60]	; 0x3c
 80025f0:	682a      	ldr	r2, [r5, #0]
 80025f2:	07d3      	lsls	r3, r2, #31
 80025f4:	d506      	bpl.n	8002604 <HAL_RCCEx_PeriphCLKConfig+0x68>
 80025f6:	2403      	movs	r4, #3
 80025f8:	4926      	ldr	r1, [pc, #152]	; (8002694 <HAL_RCCEx_PeriphCLKConfig+0xf8>)
 80025fa:	6d4b      	ldr	r3, [r1, #84]	; 0x54
 80025fc:	43a3      	bics	r3, r4
 80025fe:	68ac      	ldr	r4, [r5, #8]
 8002600:	4323      	orrs	r3, r4
 8002602:	654b      	str	r3, [r1, #84]	; 0x54
 8002604:	0653      	lsls	r3, r2, #25
 8002606:	d506      	bpl.n	8002616 <HAL_RCCEx_PeriphCLKConfig+0x7a>
 8002608:	4922      	ldr	r1, [pc, #136]	; (8002694 <HAL_RCCEx_PeriphCLKConfig+0xf8>)
 800260a:	4c25      	ldr	r4, [pc, #148]	; (80026a0 <HAL_RCCEx_PeriphCLKConfig+0x104>)
 800260c:	6d4b      	ldr	r3, [r1, #84]	; 0x54
 800260e:	4023      	ands	r3, r4
 8002610:	68ec      	ldr	r4, [r5, #12]
 8002612:	4323      	orrs	r3, r4
 8002614:	654b      	str	r3, [r1, #84]	; 0x54
 8002616:	0453      	lsls	r3, r2, #17
 8002618:	d506      	bpl.n	8002628 <HAL_RCCEx_PeriphCLKConfig+0x8c>
 800261a:	491e      	ldr	r1, [pc, #120]	; (8002694 <HAL_RCCEx_PeriphCLKConfig+0xf8>)
 800261c:	696c      	ldr	r4, [r5, #20]
 800261e:	6d4b      	ldr	r3, [r1, #84]	; 0x54
 8002620:	009b      	lsls	r3, r3, #2
 8002622:	089b      	lsrs	r3, r3, #2
 8002624:	4323      	orrs	r3, r4
 8002626:	654b      	str	r3, [r1, #84]	; 0x54
 8002628:	0513      	lsls	r3, r2, #20
 800262a:	d506      	bpl.n	800263a <HAL_RCCEx_PeriphCLKConfig+0x9e>
 800262c:	4919      	ldr	r1, [pc, #100]	; (8002694 <HAL_RCCEx_PeriphCLKConfig+0xf8>)
 800262e:	4c1d      	ldr	r4, [pc, #116]	; (80026a4 <HAL_RCCEx_PeriphCLKConfig+0x108>)
 8002630:	6d4b      	ldr	r3, [r1, #84]	; 0x54
 8002632:	4023      	ands	r3, r4
 8002634:	692c      	ldr	r4, [r5, #16]
 8002636:	4323      	orrs	r3, r4
 8002638:	654b      	str	r3, [r1, #84]	; 0x54
 800263a:	2a00      	cmp	r2, #0
 800263c:	da06      	bge.n	800264c <HAL_RCCEx_PeriphCLKConfig+0xb0>
 800263e:	21e0      	movs	r1, #224	; 0xe0
 8002640:	4a14      	ldr	r2, [pc, #80]	; (8002694 <HAL_RCCEx_PeriphCLKConfig+0xf8>)
 8002642:	6813      	ldr	r3, [r2, #0]
 8002644:	438b      	bics	r3, r1
 8002646:	6869      	ldr	r1, [r5, #4]
 8002648:	430b      	orrs	r3, r1
 800264a:	6013      	str	r3, [r2, #0]
 800264c:	b005      	add	sp, #20
 800264e:	bdf0      	pop	{r4, r5, r6, r7, pc}
 8002650:	69ab      	ldr	r3, [r5, #24]
 8002652:	4299      	cmp	r1, r3
 8002654:	d0c0      	beq.n	80025d8 <HAL_RCCEx_PeriphCLKConfig+0x3c>
 8002656:	2380      	movs	r3, #128	; 0x80
 8002658:	6de2      	ldr	r2, [r4, #92]	; 0x5c
 800265a:	6de0      	ldr	r0, [r4, #92]	; 0x5c
 800265c:	0011      	movs	r1, r2
 800265e:	025b      	lsls	r3, r3, #9
 8002660:	4303      	orrs	r3, r0
 8002662:	65e3      	str	r3, [r4, #92]	; 0x5c
 8002664:	6de3      	ldr	r3, [r4, #92]	; 0x5c
 8002666:	4810      	ldr	r0, [pc, #64]	; (80026a8 <HAL_RCCEx_PeriphCLKConfig+0x10c>)
 8002668:	4039      	ands	r1, r7
 800266a:	4003      	ands	r3, r0
 800266c:	65e3      	str	r3, [r4, #92]	; 0x5c
 800266e:	65e1      	str	r1, [r4, #92]	; 0x5c
 8002670:	07d3      	lsls	r3, r2, #31
 8002672:	d5b1      	bpl.n	80025d8 <HAL_RCCEx_PeriphCLKConfig+0x3c>
 8002674:	f7fe ffc6 	bl	8001604 <HAL_GetTick>
 8002678:	9001      	str	r0, [sp, #4]
 800267a:	2202      	movs	r2, #2
 800267c:	6de3      	ldr	r3, [r4, #92]	; 0x5c
 800267e:	4213      	tst	r3, r2
 8002680:	d1aa      	bne.n	80025d8 <HAL_RCCEx_PeriphCLKConfig+0x3c>
 8002682:	f7fe ffbf 	bl	8001604 <HAL_GetTick>
 8002686:	9b01      	ldr	r3, [sp, #4]
 8002688:	1ac0      	subs	r0, r0, r3
 800268a:	4b08      	ldr	r3, [pc, #32]	; (80026ac <HAL_RCCEx_PeriphCLKConfig+0x110>)
 800268c:	4298      	cmp	r0, r3
 800268e:	d9f4      	bls.n	800267a <HAL_RCCEx_PeriphCLKConfig+0xde>
 8002690:	2003      	movs	r0, #3
 8002692:	e7a7      	b.n	80025e4 <HAL_RCCEx_PeriphCLKConfig+0x48>
 8002694:	40021000 	.word	0x40021000
 8002698:	fffffcff 	.word	0xfffffcff
 800269c:	efffffff 	.word	0xefffffff
 80026a0:	ffffcfff 	.word	0xffffcfff
 80026a4:	ffff3fff 	.word	0xffff3fff
 80026a8:	fffeffff 	.word	0xfffeffff
 80026ac:	00001388 	.word	0x00001388

080026b0 <UART_EndTxTransfer>:
 80026b0:	b530      	push	{r4, r5, lr}
 80026b2:	f3ef 8410 	mrs	r4, PRIMASK
 80026b6:	2201      	movs	r2, #1
 80026b8:	f382 8810 	msr	PRIMASK, r2
 80026bc:	25c0      	movs	r5, #192	; 0xc0
 80026be:	6801      	ldr	r1, [r0, #0]
 80026c0:	680b      	ldr	r3, [r1, #0]
 80026c2:	43ab      	bics	r3, r5
 80026c4:	600b      	str	r3, [r1, #0]
 80026c6:	f384 8810 	msr	PRIMASK, r4
 80026ca:	f3ef 8110 	mrs	r1, PRIMASK
 80026ce:	f382 8810 	msr	PRIMASK, r2
 80026d2:	6802      	ldr	r2, [r0, #0]
 80026d4:	4c04      	ldr	r4, [pc, #16]	; (80026e8 <UART_EndTxTransfer+0x38>)
 80026d6:	6893      	ldr	r3, [r2, #8]
 80026d8:	4023      	ands	r3, r4
 80026da:	6093      	str	r3, [r2, #8]
 80026dc:	f381 8810 	msr	PRIMASK, r1
 80026e0:	2320      	movs	r3, #32
 80026e2:	3008      	adds	r0, #8
 80026e4:	67c3      	str	r3, [r0, #124]	; 0x7c
 80026e6:	bd30      	pop	{r4, r5, pc}
 80026e8:	ff7fffff 	.word	0xff7fffff

080026ec <UART_EndRxTransfer>:
 80026ec:	b530      	push	{r4, r5, lr}
 80026ee:	f3ef 8410 	mrs	r4, PRIMASK
 80026f2:	2201      	movs	r2, #1
 80026f4:	f382 8810 	msr	PRIMASK, r2
 80026f8:	6801      	ldr	r1, [r0, #0]
 80026fa:	4d13      	ldr	r5, [pc, #76]	; (8002748 <UART_EndRxTransfer+0x5c>)
 80026fc:	680b      	ldr	r3, [r1, #0]
 80026fe:	402b      	ands	r3, r5
 8002700:	600b      	str	r3, [r1, #0]
 8002702:	f384 8810 	msr	PRIMASK, r4
 8002706:	f3ef 8110 	mrs	r1, PRIMASK
 800270a:	f382 8810 	msr	PRIMASK, r2
 800270e:	6802      	ldr	r2, [r0, #0]
 8002710:	4c0e      	ldr	r4, [pc, #56]	; (800274c <UART_EndRxTransfer+0x60>)
 8002712:	6893      	ldr	r3, [r2, #8]
 8002714:	4023      	ands	r3, r4
 8002716:	6093      	str	r3, [r2, #8]
 8002718:	f381 8810 	msr	PRIMASK, r1
 800271c:	6ec3      	ldr	r3, [r0, #108]	; 0x6c
 800271e:	2b01      	cmp	r3, #1
 8002720:	d10a      	bne.n	8002738 <UART_EndRxTransfer+0x4c>
 8002722:	f3ef 8110 	mrs	r1, PRIMASK
 8002726:	f383 8810 	msr	PRIMASK, r3
 800272a:	2410      	movs	r4, #16
 800272c:	6802      	ldr	r2, [r0, #0]
 800272e:	6813      	ldr	r3, [r2, #0]
 8002730:	43a3      	bics	r3, r4
 8002732:	6013      	str	r3, [r2, #0]
 8002734:	f381 8810 	msr	PRIMASK, r1
 8002738:	0003      	movs	r3, r0
 800273a:	2220      	movs	r2, #32
 800273c:	3388      	adds	r3, #136	; 0x88
 800273e:	601a      	str	r2, [r3, #0]
 8002740:	2300      	movs	r3, #0
 8002742:	66c3      	str	r3, [r0, #108]	; 0x6c
 8002744:	6703      	str	r3, [r0, #112]	; 0x70
 8002746:	bd30      	pop	{r4, r5, pc}
 8002748:	fffffedf 	.word	0xfffffedf
 800274c:	effffffe 	.word	0xeffffffe

08002750 <HAL_UART_RxCpltCallback>:
 8002750:	4770      	bx	lr

08002752 <HAL_UART_RxHalfCpltCallback>:
 8002752:	4770      	bx	lr

08002754 <HAL_UART_ErrorCallback>:
 8002754:	4770      	bx	lr

08002756 <UART_DMAError>:
 8002756:	b570      	push	{r4, r5, r6, lr}
 8002758:	6a84      	ldr	r4, [r0, #40]	; 0x28
 800275a:	0023      	movs	r3, r4
 800275c:	0022      	movs	r2, r4
 800275e:	3308      	adds	r3, #8
 8002760:	3288      	adds	r2, #136	; 0x88
 8002762:	6fdb      	ldr	r3, [r3, #124]	; 0x7c
 8002764:	6815      	ldr	r5, [r2, #0]
 8002766:	6822      	ldr	r2, [r4, #0]
 8002768:	6892      	ldr	r2, [r2, #8]
 800276a:	0612      	lsls	r2, r2, #24
 800276c:	d508      	bpl.n	8002780 <UART_DMAError+0x2a>
 800276e:	2b21      	cmp	r3, #33	; 0x21
 8002770:	d106      	bne.n	8002780 <UART_DMAError+0x2a>
 8002772:	0023      	movs	r3, r4
 8002774:	2200      	movs	r2, #0
 8002776:	3356      	adds	r3, #86	; 0x56
 8002778:	0020      	movs	r0, r4
 800277a:	801a      	strh	r2, [r3, #0]
 800277c:	f7ff ff98 	bl	80026b0 <UART_EndTxTransfer>
 8002780:	6823      	ldr	r3, [r4, #0]
 8002782:	689b      	ldr	r3, [r3, #8]
 8002784:	065b      	lsls	r3, r3, #25
 8002786:	d508      	bpl.n	800279a <UART_DMAError+0x44>
 8002788:	2d22      	cmp	r5, #34	; 0x22
 800278a:	d106      	bne.n	800279a <UART_DMAError+0x44>
 800278c:	0023      	movs	r3, r4
 800278e:	2200      	movs	r2, #0
 8002790:	335e      	adds	r3, #94	; 0x5e
 8002792:	0020      	movs	r0, r4
 8002794:	801a      	strh	r2, [r3, #0]
 8002796:	f7ff ffa9 	bl	80026ec <UART_EndRxTransfer>
 800279a:	0022      	movs	r2, r4
 800279c:	2310      	movs	r3, #16
 800279e:	328c      	adds	r2, #140	; 0x8c
 80027a0:	6811      	ldr	r1, [r2, #0]
 80027a2:	0020      	movs	r0, r4
 80027a4:	430b      	orrs	r3, r1
 80027a6:	6013      	str	r3, [r2, #0]
 80027a8:	f7ff ffd4 	bl	8002754 <HAL_UART_ErrorCallback>
 80027ac:	bd70      	pop	{r4, r5, r6, pc}

080027ae <HAL_UARTEx_RxEventCallback>:
 80027ae:	4770      	bx	lr

080027b0 <UART_DMARxHalfCplt>:
 80027b0:	6a80      	ldr	r0, [r0, #40]	; 0x28
 80027b2:	b510      	push	{r4, lr}
 80027b4:	6ec3      	ldr	r3, [r0, #108]	; 0x6c
 80027b6:	2b01      	cmp	r3, #1
 80027b8:	d106      	bne.n	80027c8 <UART_DMARxHalfCplt+0x18>
 80027ba:	0003      	movs	r3, r0
 80027bc:	335c      	adds	r3, #92	; 0x5c
 80027be:	8819      	ldrh	r1, [r3, #0]
 80027c0:	0849      	lsrs	r1, r1, #1
 80027c2:	f7ff fff4 	bl	80027ae <HAL_UARTEx_RxEventCallback>
 80027c6:	bd10      	pop	{r4, pc}
 80027c8:	f7ff ffc3 	bl	8002752 <HAL_UART_RxHalfCpltCallback>
 80027cc:	e7fb      	b.n	80027c6 <UART_DMARxHalfCplt+0x16>
	...

080027d0 <UART_DMAReceiveCplt>:
 80027d0:	0003      	movs	r3, r0
 80027d2:	681b      	ldr	r3, [r3, #0]
 80027d4:	2220      	movs	r2, #32
 80027d6:	681b      	ldr	r3, [r3, #0]
 80027d8:	b570      	push	{r4, r5, r6, lr}
 80027da:	0019      	movs	r1, r3
 80027dc:	6a80      	ldr	r0, [r0, #40]	; 0x28
 80027de:	4011      	ands	r1, r2
 80027e0:	4213      	tst	r3, r2
 80027e2:	d134      	bne.n	800284e <UART_DMAReceiveCplt+0x7e>
 80027e4:	0003      	movs	r3, r0
 80027e6:	335e      	adds	r3, #94	; 0x5e
 80027e8:	8019      	strh	r1, [r3, #0]
 80027ea:	f3ef 8510 	mrs	r5, PRIMASK
 80027ee:	2301      	movs	r3, #1
 80027f0:	f383 8810 	msr	PRIMASK, r3
 80027f4:	6804      	ldr	r4, [r0, #0]
 80027f6:	4e1c      	ldr	r6, [pc, #112]	; (8002868 <UART_DMAReceiveCplt+0x98>)
 80027f8:	6821      	ldr	r1, [r4, #0]
 80027fa:	4031      	ands	r1, r6
 80027fc:	6021      	str	r1, [r4, #0]
 80027fe:	f385 8810 	msr	PRIMASK, r5
 8002802:	f3ef 8510 	mrs	r5, PRIMASK
 8002806:	f383 8810 	msr	PRIMASK, r3
 800280a:	6804      	ldr	r4, [r0, #0]
 800280c:	68a1      	ldr	r1, [r4, #8]
 800280e:	4399      	bics	r1, r3
 8002810:	60a1      	str	r1, [r4, #8]
 8002812:	f385 8810 	msr	PRIMASK, r5
 8002816:	f3ef 8410 	mrs	r4, PRIMASK
 800281a:	f383 8810 	msr	PRIMASK, r3
 800281e:	2540      	movs	r5, #64	; 0x40
 8002820:	6801      	ldr	r1, [r0, #0]
 8002822:	688b      	ldr	r3, [r1, #8]
 8002824:	43ab      	bics	r3, r5
 8002826:	608b      	str	r3, [r1, #8]
 8002828:	f384 8810 	msr	PRIMASK, r4
 800282c:	0003      	movs	r3, r0
 800282e:	3388      	adds	r3, #136	; 0x88
 8002830:	601a      	str	r2, [r3, #0]
 8002832:	6ec3      	ldr	r3, [r0, #108]	; 0x6c
 8002834:	2b01      	cmp	r3, #1
 8002836:	d10a      	bne.n	800284e <UART_DMAReceiveCplt+0x7e>
 8002838:	f3ef 8110 	mrs	r1, PRIMASK
 800283c:	f383 8810 	msr	PRIMASK, r3
 8002840:	2410      	movs	r4, #16
 8002842:	6802      	ldr	r2, [r0, #0]
 8002844:	6813      	ldr	r3, [r2, #0]
 8002846:	43a3      	bics	r3, r4
 8002848:	6013      	str	r3, [r2, #0]
 800284a:	f381 8810 	msr	PRIMASK, r1
 800284e:	6ec3      	ldr	r3, [r0, #108]	; 0x6c
 8002850:	2b01      	cmp	r3, #1
 8002852:	d105      	bne.n	8002860 <UART_DMAReceiveCplt+0x90>
 8002854:	0003      	movs	r3, r0
 8002856:	335c      	adds	r3, #92	; 0x5c
 8002858:	8819      	ldrh	r1, [r3, #0]
 800285a:	f7ff ffa8 	bl	80027ae <HAL_UARTEx_RxEventCallback>
 800285e:	bd70      	pop	{r4, r5, r6, pc}
 8002860:	f7ff ff76 	bl	8002750 <HAL_UART_RxCpltCallback>
 8002864:	e7fb      	b.n	800285e <UART_DMAReceiveCplt+0x8e>
 8002866:	46c0      	nop			; (mov r8, r8)
 8002868:	fffffeff 	.word	0xfffffeff

0800286c <UART_SetConfig>:
 800286c:	b570      	push	{r4, r5, r6, lr}
 800286e:	0004      	movs	r4, r0
 8002870:	6925      	ldr	r5, [r4, #16]
 8002872:	68a1      	ldr	r1, [r4, #8]
 8002874:	6802      	ldr	r2, [r0, #0]
 8002876:	4329      	orrs	r1, r5
 8002878:	6965      	ldr	r5, [r4, #20]
 800287a:	69c3      	ldr	r3, [r0, #28]
 800287c:	4329      	orrs	r1, r5
 800287e:	6810      	ldr	r0, [r2, #0]
 8002880:	4d4e      	ldr	r5, [pc, #312]	; (80029bc <UART_SetConfig+0x150>)
 8002882:	4319      	orrs	r1, r3
 8002884:	4028      	ands	r0, r5
 8002886:	4301      	orrs	r1, r0
 8002888:	6011      	str	r1, [r2, #0]
 800288a:	6851      	ldr	r1, [r2, #4]
 800288c:	484c      	ldr	r0, [pc, #304]	; (80029c0 <UART_SetConfig+0x154>)
 800288e:	6a25      	ldr	r5, [r4, #32]
 8002890:	4001      	ands	r1, r0
 8002892:	68e0      	ldr	r0, [r4, #12]
 8002894:	4301      	orrs	r1, r0
 8002896:	6051      	str	r1, [r2, #4]
 8002898:	69a1      	ldr	r1, [r4, #24]
 800289a:	6890      	ldr	r0, [r2, #8]
 800289c:	4329      	orrs	r1, r5
 800289e:	4d49      	ldr	r5, [pc, #292]	; (80029c4 <UART_SetConfig+0x158>)
 80028a0:	4028      	ands	r0, r5
 80028a2:	4301      	orrs	r1, r0
 80028a4:	200f      	movs	r0, #15
 80028a6:	6091      	str	r1, [r2, #8]
 80028a8:	6ad1      	ldr	r1, [r2, #44]	; 0x2c
 80028aa:	4381      	bics	r1, r0
 80028ac:	6a60      	ldr	r0, [r4, #36]	; 0x24
 80028ae:	4301      	orrs	r1, r0
 80028b0:	62d1      	str	r1, [r2, #44]	; 0x2c
 80028b2:	4945      	ldr	r1, [pc, #276]	; (80029c8 <UART_SetConfig+0x15c>)
 80028b4:	428a      	cmp	r2, r1
 80028b6:	d116      	bne.n	80028e6 <UART_SetConfig+0x7a>
 80028b8:	2003      	movs	r0, #3
 80028ba:	4944      	ldr	r1, [pc, #272]	; (80029cc <UART_SetConfig+0x160>)
 80028bc:	6d4a      	ldr	r2, [r1, #84]	; 0x54
 80028be:	4002      	ands	r2, r0
 80028c0:	3a01      	subs	r2, #1
 80028c2:	2a02      	cmp	r2, #2
 80028c4:	d812      	bhi.n	80028ec <UART_SetConfig+0x80>
 80028c6:	4842      	ldr	r0, [pc, #264]	; (80029d0 <UART_SetConfig+0x164>)
 80028c8:	5c80      	ldrb	r0, [r0, r2]
 80028ca:	2280      	movs	r2, #128	; 0x80
 80028cc:	0212      	lsls	r2, r2, #8
 80028ce:	4293      	cmp	r3, r2
 80028d0:	d01b      	beq.n	800290a <UART_SetConfig+0x9e>
 80028d2:	2808      	cmp	r0, #8
 80028d4:	d900      	bls.n	80028d8 <UART_SetConfig+0x6c>
 80028d6:	e06f      	b.n	80029b8 <UART_SetConfig+0x14c>
 80028d8:	f7fd fc20 	bl	800011c <__gnu_thumb1_case_uqi>
 80028dc:	6e4d6e48 	.word	0x6e4d6e48
 80028e0:	6e6e6e68 	.word	0x6e6e6e68
 80028e4:	6b          	.byte	0x6b
 80028e5:	00          	.byte	0x00
 80028e6:	493b      	ldr	r1, [pc, #236]	; (80029d4 <UART_SetConfig+0x168>)
 80028e8:	428a      	cmp	r2, r1
 80028ea:	d165      	bne.n	80029b8 <UART_SetConfig+0x14c>
 80028ec:	2280      	movs	r2, #128	; 0x80
 80028ee:	0212      	lsls	r2, r2, #8
 80028f0:	4293      	cmp	r3, r2
 80028f2:	d13b      	bne.n	800296c <UART_SetConfig+0x100>
 80028f4:	f7ff fe3e 	bl	8002574 <HAL_RCC_GetPCLK1Freq>
 80028f8:	1e03      	subs	r3, r0, #0
 80028fa:	d117      	bne.n	800292c <UART_SetConfig+0xc0>
 80028fc:	2000      	movs	r0, #0
 80028fe:	4b36      	ldr	r3, [pc, #216]	; (80029d8 <UART_SetConfig+0x16c>)
 8002900:	66a3      	str	r3, [r4, #104]	; 0x68
 8002902:	2300      	movs	r3, #0
 8002904:	6723      	str	r3, [r4, #112]	; 0x70
 8002906:	6763      	str	r3, [r4, #116]	; 0x74
 8002908:	bd70      	pop	{r4, r5, r6, pc}
 800290a:	2808      	cmp	r0, #8
 800290c:	d854      	bhi.n	80029b8 <UART_SetConfig+0x14c>
 800290e:	f7fd fbfb 	bl	8000108 <__gnu_thumb1_case_sqi>
 8002912:	53f1      	.short	0x53f1
 8002914:	532a5305 	.word	0x532a5305
 8002918:	5353      	.short	0x5353
 800291a:	0d          	.byte	0x0d
 800291b:	00          	.byte	0x00
 800291c:	6809      	ldr	r1, [r1, #0]
 800291e:	482f      	ldr	r0, [pc, #188]	; (80029dc <UART_SetConfig+0x170>)
 8002920:	0609      	lsls	r1, r1, #24
 8002922:	0f49      	lsrs	r1, r1, #29
 8002924:	3101      	adds	r1, #1
 8002926:	f7fd fc03 	bl	8000130 <__udivsi3>
 800292a:	0003      	movs	r3, r0
 800292c:	6a62      	ldr	r2, [r4, #36]	; 0x24
 800292e:	492c      	ldr	r1, [pc, #176]	; (80029e0 <UART_SetConfig+0x174>)
 8002930:	0052      	lsls	r2, r2, #1
 8002932:	5a51      	ldrh	r1, [r2, r1]
 8002934:	0018      	movs	r0, r3
 8002936:	f7fd fbfb 	bl	8000130 <__udivsi3>
 800293a:	6865      	ldr	r5, [r4, #4]
 800293c:	0040      	lsls	r0, r0, #1
 800293e:	086b      	lsrs	r3, r5, #1
 8002940:	18c0      	adds	r0, r0, r3
 8002942:	0029      	movs	r1, r5
 8002944:	f7fd fbf4 	bl	8000130 <__udivsi3>
 8002948:	0002      	movs	r2, r0
 800294a:	4b26      	ldr	r3, [pc, #152]	; (80029e4 <UART_SetConfig+0x178>)
 800294c:	3a10      	subs	r2, #16
 800294e:	429a      	cmp	r2, r3
 8002950:	d832      	bhi.n	80029b8 <UART_SetConfig+0x14c>
 8002952:	230f      	movs	r3, #15
 8002954:	0002      	movs	r2, r0
 8002956:	0700      	lsls	r0, r0, #28
 8002958:	439a      	bics	r2, r3
 800295a:	b293      	uxth	r3, r2
 800295c:	0f40      	lsrs	r0, r0, #29
 800295e:	6822      	ldr	r2, [r4, #0]
 8002960:	4318      	orrs	r0, r3
 8002962:	60d0      	str	r0, [r2, #12]
 8002964:	e7ca      	b.n	80028fc <UART_SetConfig+0x90>
 8002966:	f7ff fd2d 	bl	80023c4 <HAL_RCC_GetSysClockFreq>
 800296a:	e7c5      	b.n	80028f8 <UART_SetConfig+0x8c>
 800296c:	f7ff fe02 	bl	8002574 <HAL_RCC_GetPCLK1Freq>
 8002970:	2800      	cmp	r0, #0
 8002972:	d0c3      	beq.n	80028fc <UART_SetConfig+0x90>
 8002974:	e006      	b.n	8002984 <UART_SetConfig+0x118>
 8002976:	6809      	ldr	r1, [r1, #0]
 8002978:	4818      	ldr	r0, [pc, #96]	; (80029dc <UART_SetConfig+0x170>)
 800297a:	0609      	lsls	r1, r1, #24
 800297c:	0f49      	lsrs	r1, r1, #29
 800297e:	3101      	adds	r1, #1
 8002980:	f7fd fbd6 	bl	8000130 <__udivsi3>
 8002984:	6a63      	ldr	r3, [r4, #36]	; 0x24
 8002986:	4a16      	ldr	r2, [pc, #88]	; (80029e0 <UART_SetConfig+0x174>)
 8002988:	005b      	lsls	r3, r3, #1
 800298a:	5a99      	ldrh	r1, [r3, r2]
 800298c:	f7fd fbd0 	bl	8000130 <__udivsi3>
 8002990:	6865      	ldr	r5, [r4, #4]
 8002992:	086b      	lsrs	r3, r5, #1
 8002994:	18c0      	adds	r0, r0, r3
 8002996:	0029      	movs	r1, r5
 8002998:	f7fd fbca 	bl	8000130 <__udivsi3>
 800299c:	0002      	movs	r2, r0
 800299e:	4b11      	ldr	r3, [pc, #68]	; (80029e4 <UART_SetConfig+0x178>)
 80029a0:	3a10      	subs	r2, #16
 80029a2:	429a      	cmp	r2, r3
 80029a4:	d808      	bhi.n	80029b8 <UART_SetConfig+0x14c>
 80029a6:	6823      	ldr	r3, [r4, #0]
 80029a8:	60d8      	str	r0, [r3, #12]
 80029aa:	e7a7      	b.n	80028fc <UART_SetConfig+0x90>
 80029ac:	f7ff fd0a 	bl	80023c4 <HAL_RCC_GetSysClockFreq>
 80029b0:	e7de      	b.n	8002970 <UART_SetConfig+0x104>
 80029b2:	2080      	movs	r0, #128	; 0x80
 80029b4:	0200      	lsls	r0, r0, #8
 80029b6:	e7e5      	b.n	8002984 <UART_SetConfig+0x118>
 80029b8:	2001      	movs	r0, #1
 80029ba:	e7a0      	b.n	80028fe <UART_SetConfig+0x92>
 80029bc:	cfff69f3 	.word	0xcfff69f3
 80029c0:	ffffcfff 	.word	0xffffcfff
 80029c4:	11fff4ff 	.word	0x11fff4ff
 80029c8:	40013800 	.word	0x40013800
 80029cc:	40021000 	.word	0x40021000
 80029d0:	08002fc4 	.word	0x08002fc4
 80029d4:	40004400 	.word	0x40004400
 80029d8:	00010001 	.word	0x00010001
 80029dc:	02dc6c00 	.word	0x02dc6c00
 80029e0:	08002fc8 	.word	0x08002fc8
 80029e4:	0000ffef 	.word	0x0000ffef

080029e8 <UART_AdvFeatureConfig>:
 80029e8:	6a83      	ldr	r3, [r0, #40]	; 0x28
 80029ea:	b530      	push	{r4, r5, lr}
 80029ec:	07da      	lsls	r2, r3, #31
 80029ee:	d506      	bpl.n	80029fe <UART_AdvFeatureConfig+0x16>
 80029f0:	6801      	ldr	r1, [r0, #0]
 80029f2:	4c28      	ldr	r4, [pc, #160]	; (8002a94 <UART_AdvFeatureConfig+0xac>)
 80029f4:	684a      	ldr	r2, [r1, #4]
 80029f6:	4022      	ands	r2, r4
 80029f8:	6ac4      	ldr	r4, [r0, #44]	; 0x2c
 80029fa:	4322      	orrs	r2, r4
 80029fc:	604a      	str	r2, [r1, #4]
 80029fe:	079a      	lsls	r2, r3, #30
 8002a00:	d506      	bpl.n	8002a10 <UART_AdvFeatureConfig+0x28>
 8002a02:	6801      	ldr	r1, [r0, #0]
 8002a04:	4c24      	ldr	r4, [pc, #144]	; (8002a98 <UART_AdvFeatureConfig+0xb0>)
 8002a06:	684a      	ldr	r2, [r1, #4]
 8002a08:	4022      	ands	r2, r4
 8002a0a:	6b04      	ldr	r4, [r0, #48]	; 0x30
 8002a0c:	4322      	orrs	r2, r4
 8002a0e:	604a      	str	r2, [r1, #4]
 8002a10:	075a      	lsls	r2, r3, #29
 8002a12:	d506      	bpl.n	8002a22 <UART_AdvFeatureConfig+0x3a>
 8002a14:	6801      	ldr	r1, [r0, #0]
 8002a16:	4c21      	ldr	r4, [pc, #132]	; (8002a9c <UART_AdvFeatureConfig+0xb4>)
 8002a18:	684a      	ldr	r2, [r1, #4]
 8002a1a:	4022      	ands	r2, r4
 8002a1c:	6b44      	ldr	r4, [r0, #52]	; 0x34
 8002a1e:	4322      	orrs	r2, r4
 8002a20:	604a      	str	r2, [r1, #4]
 8002a22:	071a      	lsls	r2, r3, #28
 8002a24:	d506      	bpl.n	8002a34 <UART_AdvFeatureConfig+0x4c>
 8002a26:	6801      	ldr	r1, [r0, #0]
 8002a28:	4c1d      	ldr	r4, [pc, #116]	; (8002aa0 <UART_AdvFeatureConfig+0xb8>)
 8002a2a:	684a      	ldr	r2, [r1, #4]
 8002a2c:	4022      	ands	r2, r4
 8002a2e:	6b84      	ldr	r4, [r0, #56]	; 0x38
 8002a30:	4322      	orrs	r2, r4
 8002a32:	604a      	str	r2, [r1, #4]
 8002a34:	06da      	lsls	r2, r3, #27
 8002a36:	d506      	bpl.n	8002a46 <UART_AdvFeatureConfig+0x5e>
 8002a38:	6801      	ldr	r1, [r0, #0]
 8002a3a:	4c1a      	ldr	r4, [pc, #104]	; (8002aa4 <UART_AdvFeatureConfig+0xbc>)
 8002a3c:	688a      	ldr	r2, [r1, #8]
 8002a3e:	4022      	ands	r2, r4
 8002a40:	6bc4      	ldr	r4, [r0, #60]	; 0x3c
 8002a42:	4322      	orrs	r2, r4
 8002a44:	608a      	str	r2, [r1, #8]
 8002a46:	069a      	lsls	r2, r3, #26
 8002a48:	d506      	bpl.n	8002a58 <UART_AdvFeatureConfig+0x70>
 8002a4a:	6801      	ldr	r1, [r0, #0]
 8002a4c:	4c16      	ldr	r4, [pc, #88]	; (8002aa8 <UART_AdvFeatureConfig+0xc0>)
 8002a4e:	688a      	ldr	r2, [r1, #8]
 8002a50:	4022      	ands	r2, r4
 8002a52:	6c04      	ldr	r4, [r0, #64]	; 0x40
 8002a54:	4322      	orrs	r2, r4
 8002a56:	608a      	str	r2, [r1, #8]
 8002a58:	065a      	lsls	r2, r3, #25
 8002a5a:	d510      	bpl.n	8002a7e <UART_AdvFeatureConfig+0x96>
 8002a5c:	6801      	ldr	r1, [r0, #0]
 8002a5e:	4d13      	ldr	r5, [pc, #76]	; (8002aac <UART_AdvFeatureConfig+0xc4>)
 8002a60:	684a      	ldr	r2, [r1, #4]
 8002a62:	6c44      	ldr	r4, [r0, #68]	; 0x44
 8002a64:	402a      	ands	r2, r5
 8002a66:	4322      	orrs	r2, r4
 8002a68:	604a      	str	r2, [r1, #4]
 8002a6a:	2280      	movs	r2, #128	; 0x80
 8002a6c:	0352      	lsls	r2, r2, #13
 8002a6e:	4294      	cmp	r4, r2
 8002a70:	d105      	bne.n	8002a7e <UART_AdvFeatureConfig+0x96>
 8002a72:	684a      	ldr	r2, [r1, #4]
 8002a74:	4c0e      	ldr	r4, [pc, #56]	; (8002ab0 <UART_AdvFeatureConfig+0xc8>)
 8002a76:	4022      	ands	r2, r4
 8002a78:	6c84      	ldr	r4, [r0, #72]	; 0x48
 8002a7a:	4322      	orrs	r2, r4
 8002a7c:	604a      	str	r2, [r1, #4]
 8002a7e:	061b      	lsls	r3, r3, #24
 8002a80:	d506      	bpl.n	8002a90 <UART_AdvFeatureConfig+0xa8>
 8002a82:	6802      	ldr	r2, [r0, #0]
 8002a84:	490b      	ldr	r1, [pc, #44]	; (8002ab4 <UART_AdvFeatureConfig+0xcc>)
 8002a86:	6853      	ldr	r3, [r2, #4]
 8002a88:	400b      	ands	r3, r1
 8002a8a:	6cc1      	ldr	r1, [r0, #76]	; 0x4c
 8002a8c:	430b      	orrs	r3, r1
 8002a8e:	6053      	str	r3, [r2, #4]
 8002a90:	bd30      	pop	{r4, r5, pc}
 8002a92:	46c0      	nop			; (mov r8, r8)
 8002a94:	fffdffff 	.word	0xfffdffff
 8002a98:	fffeffff 	.word	0xfffeffff
 8002a9c:	fffbffff 	.word	0xfffbffff
 8002aa0:	ffff7fff 	.word	0xffff7fff
 8002aa4:	ffffefff 	.word	0xffffefff
 8002aa8:	ffffdfff 	.word	0xffffdfff
 8002aac:	ffefffff 	.word	0xffefffff
 8002ab0:	ff9fffff 	.word	0xff9fffff
 8002ab4:	fff7ffff 	.word	0xfff7ffff

08002ab8 <UART_WaitOnFlagUntilTimeout>:
 8002ab8:	b5f7      	push	{r0, r1, r2, r4, r5, r6, r7, lr}
 8002aba:	2780      	movs	r7, #128	; 0x80
 8002abc:	0004      	movs	r4, r0
 8002abe:	000d      	movs	r5, r1
 8002ac0:	0016      	movs	r6, r2
 8002ac2:	9301      	str	r3, [sp, #4]
 8002ac4:	013f      	lsls	r7, r7, #4
 8002ac6:	6822      	ldr	r2, [r4, #0]
 8002ac8:	69d3      	ldr	r3, [r2, #28]
 8002aca:	402b      	ands	r3, r5
 8002acc:	1b5b      	subs	r3, r3, r5
 8002ace:	4259      	negs	r1, r3
 8002ad0:	414b      	adcs	r3, r1
 8002ad2:	42b3      	cmp	r3, r6
 8002ad4:	d001      	beq.n	8002ada <UART_WaitOnFlagUntilTimeout+0x22>
 8002ad6:	2000      	movs	r0, #0
 8002ad8:	e02b      	b.n	8002b32 <UART_WaitOnFlagUntilTimeout+0x7a>
 8002ada:	9b08      	ldr	r3, [sp, #32]
 8002adc:	3301      	adds	r3, #1
 8002ade:	d0f3      	beq.n	8002ac8 <UART_WaitOnFlagUntilTimeout+0x10>
 8002ae0:	f7fe fd90 	bl	8001604 <HAL_GetTick>
 8002ae4:	9b01      	ldr	r3, [sp, #4]
 8002ae6:	1ac0      	subs	r0, r0, r3
 8002ae8:	9b08      	ldr	r3, [sp, #32]
 8002aea:	4298      	cmp	r0, r3
 8002aec:	d801      	bhi.n	8002af2 <UART_WaitOnFlagUntilTimeout+0x3a>
 8002aee:	2b00      	cmp	r3, #0
 8002af0:	d120      	bne.n	8002b34 <UART_WaitOnFlagUntilTimeout+0x7c>
 8002af2:	f3ef 8010 	mrs	r0, PRIMASK
 8002af6:	2201      	movs	r2, #1
 8002af8:	f382 8810 	msr	PRIMASK, r2
 8002afc:	6821      	ldr	r1, [r4, #0]
 8002afe:	4d21      	ldr	r5, [pc, #132]	; (8002b84 <UART_WaitOnFlagUntilTimeout+0xcc>)
 8002b00:	680b      	ldr	r3, [r1, #0]
 8002b02:	402b      	ands	r3, r5
 8002b04:	600b      	str	r3, [r1, #0]
 8002b06:	f380 8810 	msr	PRIMASK, r0
 8002b0a:	f3ef 8010 	mrs	r0, PRIMASK
 8002b0e:	f382 8810 	msr	PRIMASK, r2
 8002b12:	6821      	ldr	r1, [r4, #0]
 8002b14:	688b      	ldr	r3, [r1, #8]
 8002b16:	4393      	bics	r3, r2
 8002b18:	608b      	str	r3, [r1, #8]
 8002b1a:	f380 8810 	msr	PRIMASK, r0
 8002b1e:	0022      	movs	r2, r4
 8002b20:	2320      	movs	r3, #32
 8002b22:	3208      	adds	r2, #8
 8002b24:	67d3      	str	r3, [r2, #124]	; 0x7c
 8002b26:	3280      	adds	r2, #128	; 0x80
 8002b28:	6013      	str	r3, [r2, #0]
 8002b2a:	2300      	movs	r3, #0
 8002b2c:	2003      	movs	r0, #3
 8002b2e:	3480      	adds	r4, #128	; 0x80
 8002b30:	7023      	strb	r3, [r4, #0]
 8002b32:	bdfe      	pop	{r1, r2, r3, r4, r5, r6, r7, pc}
 8002b34:	2104      	movs	r1, #4
 8002b36:	6823      	ldr	r3, [r4, #0]
 8002b38:	681a      	ldr	r2, [r3, #0]
 8002b3a:	420a      	tst	r2, r1
 8002b3c:	d0c3      	beq.n	8002ac6 <UART_WaitOnFlagUntilTimeout+0xe>
 8002b3e:	69da      	ldr	r2, [r3, #28]
 8002b40:	423a      	tst	r2, r7
 8002b42:	d0c0      	beq.n	8002ac6 <UART_WaitOnFlagUntilTimeout+0xe>
 8002b44:	621f      	str	r7, [r3, #32]
 8002b46:	f3ef 8010 	mrs	r0, PRIMASK
 8002b4a:	2201      	movs	r2, #1
 8002b4c:	f382 8810 	msr	PRIMASK, r2
 8002b50:	6821      	ldr	r1, [r4, #0]
 8002b52:	4d0c      	ldr	r5, [pc, #48]	; (8002b84 <UART_WaitOnFlagUntilTimeout+0xcc>)
 8002b54:	680b      	ldr	r3, [r1, #0]
 8002b56:	402b      	ands	r3, r5
 8002b58:	600b      	str	r3, [r1, #0]
 8002b5a:	f380 8810 	msr	PRIMASK, r0
 8002b5e:	f3ef 8010 	mrs	r0, PRIMASK
 8002b62:	f382 8810 	msr	PRIMASK, r2
 8002b66:	6821      	ldr	r1, [r4, #0]
 8002b68:	688b      	ldr	r3, [r1, #8]
 8002b6a:	4393      	bics	r3, r2
 8002b6c:	608b      	str	r3, [r1, #8]
 8002b6e:	f380 8810 	msr	PRIMASK, r0
 8002b72:	0022      	movs	r2, r4
 8002b74:	2320      	movs	r3, #32
 8002b76:	3208      	adds	r2, #8
 8002b78:	67d3      	str	r3, [r2, #124]	; 0x7c
 8002b7a:	3280      	adds	r2, #128	; 0x80
 8002b7c:	6013      	str	r3, [r2, #0]
 8002b7e:	6053      	str	r3, [r2, #4]
 8002b80:	e7d3      	b.n	8002b2a <UART_WaitOnFlagUntilTimeout+0x72>
 8002b82:	46c0      	nop			; (mov r8, r8)
 8002b84:	fffffe5f 	.word	0xfffffe5f

08002b88 <HAL_UART_Transmit>:
 8002b88:	b5f0      	push	{r4, r5, r6, r7, lr}
 8002b8a:	0016      	movs	r6, r2
 8002b8c:	0002      	movs	r2, r0
 8002b8e:	b087      	sub	sp, #28
 8002b90:	3208      	adds	r2, #8
 8002b92:	9305      	str	r3, [sp, #20]
 8002b94:	6fd3      	ldr	r3, [r2, #124]	; 0x7c
 8002b96:	0004      	movs	r4, r0
 8002b98:	000d      	movs	r5, r1
 8002b9a:	2002      	movs	r0, #2
 8002b9c:	2b20      	cmp	r3, #32
 8002b9e:	d153      	bne.n	8002c48 <HAL_UART_Transmit+0xc0>
 8002ba0:	3801      	subs	r0, #1
 8002ba2:	2900      	cmp	r1, #0
 8002ba4:	d050      	beq.n	8002c48 <HAL_UART_Transmit+0xc0>
 8002ba6:	2e00      	cmp	r6, #0
 8002ba8:	d04e      	beq.n	8002c48 <HAL_UART_Transmit+0xc0>
 8002baa:	2380      	movs	r3, #128	; 0x80
 8002bac:	68a1      	ldr	r1, [r4, #8]
 8002bae:	015b      	lsls	r3, r3, #5
 8002bb0:	4299      	cmp	r1, r3
 8002bb2:	d104      	bne.n	8002bbe <HAL_UART_Transmit+0x36>
 8002bb4:	6923      	ldr	r3, [r4, #16]
 8002bb6:	2b00      	cmp	r3, #0
 8002bb8:	d101      	bne.n	8002bbe <HAL_UART_Transmit+0x36>
 8002bba:	4205      	tst	r5, r0
 8002bbc:	d144      	bne.n	8002c48 <HAL_UART_Transmit+0xc0>
 8002bbe:	0023      	movs	r3, r4
 8002bc0:	3380      	adds	r3, #128	; 0x80
 8002bc2:	9303      	str	r3, [sp, #12]
 8002bc4:	781b      	ldrb	r3, [r3, #0]
 8002bc6:	2002      	movs	r0, #2
 8002bc8:	2b01      	cmp	r3, #1
 8002bca:	d03d      	beq.n	8002c48 <HAL_UART_Transmit+0xc0>
 8002bcc:	2301      	movs	r3, #1
 8002bce:	9903      	ldr	r1, [sp, #12]
 8002bd0:	700b      	strb	r3, [r1, #0]
 8002bd2:	0023      	movs	r3, r4
 8002bd4:	2100      	movs	r1, #0
 8002bd6:	338c      	adds	r3, #140	; 0x8c
 8002bd8:	6019      	str	r1, [r3, #0]
 8002bda:	2321      	movs	r3, #33	; 0x21
 8002bdc:	67d3      	str	r3, [r2, #124]	; 0x7c
 8002bde:	f7fe fd11 	bl	8001604 <HAL_GetTick>
 8002be2:	0023      	movs	r3, r4
 8002be4:	3354      	adds	r3, #84	; 0x54
 8002be6:	801e      	strh	r6, [r3, #0]
 8002be8:	3302      	adds	r3, #2
 8002bea:	801e      	strh	r6, [r3, #0]
 8002bec:	9304      	str	r3, [sp, #16]
 8002bee:	2380      	movs	r3, #128	; 0x80
 8002bf0:	68a2      	ldr	r2, [r4, #8]
 8002bf2:	0007      	movs	r7, r0
 8002bf4:	2600      	movs	r6, #0
 8002bf6:	015b      	lsls	r3, r3, #5
 8002bf8:	429a      	cmp	r2, r3
 8002bfa:	d104      	bne.n	8002c06 <HAL_UART_Transmit+0x7e>
 8002bfc:	6923      	ldr	r3, [r4, #16]
 8002bfe:	42b3      	cmp	r3, r6
 8002c00:	d101      	bne.n	8002c06 <HAL_UART_Transmit+0x7e>
 8002c02:	002e      	movs	r6, r5
 8002c04:	001d      	movs	r5, r3
 8002c06:	2300      	movs	r3, #0
 8002c08:	9a03      	ldr	r2, [sp, #12]
 8002c0a:	7013      	strb	r3, [r2, #0]
 8002c0c:	0023      	movs	r3, r4
 8002c0e:	3356      	adds	r3, #86	; 0x56
 8002c10:	881b      	ldrh	r3, [r3, #0]
 8002c12:	b29a      	uxth	r2, r3
 8002c14:	2b00      	cmp	r3, #0
 8002c16:	d10c      	bne.n	8002c32 <HAL_UART_Transmit+0xaa>
 8002c18:	9b05      	ldr	r3, [sp, #20]
 8002c1a:	2140      	movs	r1, #64	; 0x40
 8002c1c:	9300      	str	r3, [sp, #0]
 8002c1e:	0020      	movs	r0, r4
 8002c20:	003b      	movs	r3, r7
 8002c22:	f7ff ff49 	bl	8002ab8 <UART_WaitOnFlagUntilTimeout>
 8002c26:	2800      	cmp	r0, #0
 8002c28:	d10d      	bne.n	8002c46 <HAL_UART_Transmit+0xbe>
 8002c2a:	2320      	movs	r3, #32
 8002c2c:	3408      	adds	r4, #8
 8002c2e:	67e3      	str	r3, [r4, #124]	; 0x7c
 8002c30:	e00a      	b.n	8002c48 <HAL_UART_Transmit+0xc0>
 8002c32:	9b05      	ldr	r3, [sp, #20]
 8002c34:	2200      	movs	r2, #0
 8002c36:	9300      	str	r3, [sp, #0]
 8002c38:	2180      	movs	r1, #128	; 0x80
 8002c3a:	003b      	movs	r3, r7
 8002c3c:	0020      	movs	r0, r4
 8002c3e:	f7ff ff3b 	bl	8002ab8 <UART_WaitOnFlagUntilTimeout>
 8002c42:	2800      	cmp	r0, #0
 8002c44:	d002      	beq.n	8002c4c <HAL_UART_Transmit+0xc4>
 8002c46:	2003      	movs	r0, #3
 8002c48:	b007      	add	sp, #28
 8002c4a:	bdf0      	pop	{r4, r5, r6, r7, pc}
 8002c4c:	6822      	ldr	r2, [r4, #0]
 8002c4e:	2d00      	cmp	r5, #0
 8002c50:	d10b      	bne.n	8002c6a <HAL_UART_Transmit+0xe2>
 8002c52:	8833      	ldrh	r3, [r6, #0]
 8002c54:	3602      	adds	r6, #2
 8002c56:	05db      	lsls	r3, r3, #23
 8002c58:	0ddb      	lsrs	r3, r3, #23
 8002c5a:	6293      	str	r3, [r2, #40]	; 0x28
 8002c5c:	9b04      	ldr	r3, [sp, #16]
 8002c5e:	9a04      	ldr	r2, [sp, #16]
 8002c60:	881b      	ldrh	r3, [r3, #0]
 8002c62:	3b01      	subs	r3, #1
 8002c64:	b29b      	uxth	r3, r3
 8002c66:	8013      	strh	r3, [r2, #0]
 8002c68:	e7d0      	b.n	8002c0c <HAL_UART_Transmit+0x84>
 8002c6a:	782b      	ldrb	r3, [r5, #0]
 8002c6c:	3501      	adds	r5, #1
 8002c6e:	6293      	str	r3, [r2, #40]	; 0x28
 8002c70:	e7f4      	b.n	8002c5c <HAL_UART_Transmit+0xd4>
	...

08002c74 <UART_CheckIdleState>:
 8002c74:	0003      	movs	r3, r0
 8002c76:	b573      	push	{r0, r1, r4, r5, r6, lr}
 8002c78:	2600      	movs	r6, #0
 8002c7a:	0004      	movs	r4, r0
 8002c7c:	338c      	adds	r3, #140	; 0x8c
 8002c7e:	601e      	str	r6, [r3, #0]
 8002c80:	f7fe fcc0 	bl	8001604 <HAL_GetTick>
 8002c84:	6823      	ldr	r3, [r4, #0]
 8002c86:	0005      	movs	r5, r0
 8002c88:	681b      	ldr	r3, [r3, #0]
 8002c8a:	071b      	lsls	r3, r3, #28
 8002c8c:	d419      	bmi.n	8002cc2 <UART_CheckIdleState+0x4e>
 8002c8e:	6823      	ldr	r3, [r4, #0]
 8002c90:	681b      	ldr	r3, [r3, #0]
 8002c92:	075b      	lsls	r3, r3, #29
 8002c94:	d50a      	bpl.n	8002cac <UART_CheckIdleState+0x38>
 8002c96:	2180      	movs	r1, #128	; 0x80
 8002c98:	4b10      	ldr	r3, [pc, #64]	; (8002cdc <UART_CheckIdleState+0x68>)
 8002c9a:	2200      	movs	r2, #0
 8002c9c:	9300      	str	r3, [sp, #0]
 8002c9e:	0020      	movs	r0, r4
 8002ca0:	002b      	movs	r3, r5
 8002ca2:	03c9      	lsls	r1, r1, #15
 8002ca4:	f7ff ff08 	bl	8002ab8 <UART_WaitOnFlagUntilTimeout>
 8002ca8:	2800      	cmp	r0, #0
 8002caa:	d115      	bne.n	8002cd8 <UART_CheckIdleState+0x64>
 8002cac:	0022      	movs	r2, r4
 8002cae:	2320      	movs	r3, #32
 8002cb0:	2000      	movs	r0, #0
 8002cb2:	3208      	adds	r2, #8
 8002cb4:	67d3      	str	r3, [r2, #124]	; 0x7c
 8002cb6:	3280      	adds	r2, #128	; 0x80
 8002cb8:	6013      	str	r3, [r2, #0]
 8002cba:	66e0      	str	r0, [r4, #108]	; 0x6c
 8002cbc:	3480      	adds	r4, #128	; 0x80
 8002cbe:	7020      	strb	r0, [r4, #0]
 8002cc0:	e00b      	b.n	8002cda <UART_CheckIdleState+0x66>
 8002cc2:	2180      	movs	r1, #128	; 0x80
 8002cc4:	4b05      	ldr	r3, [pc, #20]	; (8002cdc <UART_CheckIdleState+0x68>)
 8002cc6:	0032      	movs	r2, r6
 8002cc8:	9300      	str	r3, [sp, #0]
 8002cca:	0389      	lsls	r1, r1, #14
 8002ccc:	0003      	movs	r3, r0
 8002cce:	0020      	movs	r0, r4
 8002cd0:	f7ff fef2 	bl	8002ab8 <UART_WaitOnFlagUntilTimeout>
 8002cd4:	2800      	cmp	r0, #0
 8002cd6:	d0da      	beq.n	8002c8e <UART_CheckIdleState+0x1a>
 8002cd8:	2003      	movs	r0, #3
 8002cda:	bd76      	pop	{r1, r2, r4, r5, r6, pc}
 8002cdc:	01ffffff 	.word	0x01ffffff

08002ce0 <HAL_UART_Init>:
 8002ce0:	b570      	push	{r4, r5, r6, lr}
 8002ce2:	1e04      	subs	r4, r0, #0
 8002ce4:	d101      	bne.n	8002cea <HAL_UART_Init+0xa>
 8002ce6:	2001      	movs	r0, #1
 8002ce8:	bd70      	pop	{r4, r5, r6, pc}
 8002cea:	0005      	movs	r5, r0
 8002cec:	3508      	adds	r5, #8
 8002cee:	6feb      	ldr	r3, [r5, #124]	; 0x7c
 8002cf0:	2b00      	cmp	r3, #0
 8002cf2:	d104      	bne.n	8002cfe <HAL_UART_Init+0x1e>
 8002cf4:	0002      	movs	r2, r0
 8002cf6:	3280      	adds	r2, #128	; 0x80
 8002cf8:	7013      	strb	r3, [r2, #0]
 8002cfa:	f7fe fbb5 	bl	8001468 <HAL_UART_MspInit>
 8002cfe:	2324      	movs	r3, #36	; 0x24
 8002d00:	2101      	movs	r1, #1
 8002d02:	6822      	ldr	r2, [r4, #0]
 8002d04:	67eb      	str	r3, [r5, #124]	; 0x7c
 8002d06:	6813      	ldr	r3, [r2, #0]
 8002d08:	0020      	movs	r0, r4
 8002d0a:	438b      	bics	r3, r1
 8002d0c:	6013      	str	r3, [r2, #0]
 8002d0e:	f7ff fdad 	bl	800286c <UART_SetConfig>
 8002d12:	2801      	cmp	r0, #1
 8002d14:	d0e7      	beq.n	8002ce6 <HAL_UART_Init+0x6>
 8002d16:	6aa3      	ldr	r3, [r4, #40]	; 0x28
 8002d18:	2b00      	cmp	r3, #0
 8002d1a:	d002      	beq.n	8002d22 <HAL_UART_Init+0x42>
 8002d1c:	0020      	movs	r0, r4
 8002d1e:	f7ff fe63 	bl	80029e8 <UART_AdvFeatureConfig>
 8002d22:	6823      	ldr	r3, [r4, #0]
 8002d24:	4907      	ldr	r1, [pc, #28]	; (8002d44 <HAL_UART_Init+0x64>)
 8002d26:	685a      	ldr	r2, [r3, #4]
 8002d28:	0020      	movs	r0, r4
 8002d2a:	400a      	ands	r2, r1
 8002d2c:	212a      	movs	r1, #42	; 0x2a
 8002d2e:	605a      	str	r2, [r3, #4]
 8002d30:	689a      	ldr	r2, [r3, #8]
 8002d32:	438a      	bics	r2, r1
 8002d34:	609a      	str	r2, [r3, #8]
 8002d36:	2201      	movs	r2, #1
 8002d38:	6819      	ldr	r1, [r3, #0]
 8002d3a:	430a      	orrs	r2, r1
 8002d3c:	601a      	str	r2, [r3, #0]
 8002d3e:	f7ff ff99 	bl	8002c74 <UART_CheckIdleState>
 8002d42:	e7d1      	b.n	8002ce8 <HAL_UART_Init+0x8>
 8002d44:	ffffb7ff 	.word	0xffffb7ff

08002d48 <UART_Start_Receive_DMA>:
 8002d48:	b5f7      	push	{r0, r1, r2, r4, r5, r6, r7, lr}
 8002d4a:	0013      	movs	r3, r2
 8002d4c:	0002      	movs	r2, r0
 8002d4e:	0007      	movs	r7, r0
 8002d50:	0006      	movs	r6, r0
 8002d52:	325c      	adds	r2, #92	; 0x5c
 8002d54:	6581      	str	r1, [r0, #88]	; 0x58
 8002d56:	0004      	movs	r4, r0
 8002d58:	8013      	strh	r3, [r2, #0]
 8002d5a:	2500      	movs	r5, #0
 8002d5c:	2222      	movs	r2, #34	; 0x22
 8002d5e:	378c      	adds	r7, #140	; 0x8c
 8002d60:	3688      	adds	r6, #136	; 0x88
 8002d62:	603d      	str	r5, [r7, #0]
 8002d64:	6032      	str	r2, [r6, #0]
 8002d66:	0022      	movs	r2, r4
 8002d68:	6fc0      	ldr	r0, [r0, #124]	; 0x7c
 8002d6a:	3280      	adds	r2, #128	; 0x80
 8002d6c:	9201      	str	r2, [sp, #4]
 8002d6e:	42a8      	cmp	r0, r5
 8002d70:	d017      	beq.n	8002da2 <UART_Start_Receive_DMA+0x5a>
 8002d72:	4a21      	ldr	r2, [pc, #132]	; (8002df8 <UART_Start_Receive_DMA+0xb0>)
 8002d74:	6385      	str	r5, [r0, #56]	; 0x38
 8002d76:	62c2      	str	r2, [r0, #44]	; 0x2c
 8002d78:	4a20      	ldr	r2, [pc, #128]	; (8002dfc <UART_Start_Receive_DMA+0xb4>)
 8002d7a:	6302      	str	r2, [r0, #48]	; 0x30
 8002d7c:	4a20      	ldr	r2, [pc, #128]	; (8002e00 <UART_Start_Receive_DMA+0xb8>)
 8002d7e:	6342      	str	r2, [r0, #52]	; 0x34
 8002d80:	6822      	ldr	r2, [r4, #0]
 8002d82:	3224      	adds	r2, #36	; 0x24
 8002d84:	4694      	mov	ip, r2
 8002d86:	000a      	movs	r2, r1
 8002d88:	4661      	mov	r1, ip
 8002d8a:	f7fe fd39 	bl	8001800 <HAL_DMA_Start_IT>
 8002d8e:	42a8      	cmp	r0, r5
 8002d90:	d007      	beq.n	8002da2 <UART_Start_Receive_DMA+0x5a>
 8002d92:	2310      	movs	r3, #16
 8002d94:	603b      	str	r3, [r7, #0]
 8002d96:	9b01      	ldr	r3, [sp, #4]
 8002d98:	2001      	movs	r0, #1
 8002d9a:	701d      	strb	r5, [r3, #0]
 8002d9c:	2320      	movs	r3, #32
 8002d9e:	6033      	str	r3, [r6, #0]
 8002da0:	bdfe      	pop	{r1, r2, r3, r4, r5, r6, r7, pc}
 8002da2:	2300      	movs	r3, #0
 8002da4:	9a01      	ldr	r2, [sp, #4]
 8002da6:	7013      	strb	r3, [r2, #0]
 8002da8:	6923      	ldr	r3, [r4, #16]
 8002daa:	2b00      	cmp	r3, #0
 8002dac:	d00b      	beq.n	8002dc6 <UART_Start_Receive_DMA+0x7e>
 8002dae:	f3ef 8110 	mrs	r1, PRIMASK
 8002db2:	2301      	movs	r3, #1
 8002db4:	f383 8810 	msr	PRIMASK, r3
 8002db8:	6822      	ldr	r2, [r4, #0]
 8002dba:	33ff      	adds	r3, #255	; 0xff
 8002dbc:	6810      	ldr	r0, [r2, #0]
 8002dbe:	4303      	orrs	r3, r0
 8002dc0:	6013      	str	r3, [r2, #0]
 8002dc2:	f381 8810 	msr	PRIMASK, r1
 8002dc6:	f3ef 8010 	mrs	r0, PRIMASK
 8002dca:	2301      	movs	r3, #1
 8002dcc:	f383 8810 	msr	PRIMASK, r3
 8002dd0:	6821      	ldr	r1, [r4, #0]
 8002dd2:	688a      	ldr	r2, [r1, #8]
 8002dd4:	431a      	orrs	r2, r3
 8002dd6:	608a      	str	r2, [r1, #8]
 8002dd8:	f380 8810 	msr	PRIMASK, r0
 8002ddc:	f3ef 8110 	mrs	r1, PRIMASK
 8002de0:	f383 8810 	msr	PRIMASK, r3
 8002de4:	6822      	ldr	r2, [r4, #0]
 8002de6:	333f      	adds	r3, #63	; 0x3f
 8002de8:	6890      	ldr	r0, [r2, #8]
 8002dea:	4303      	orrs	r3, r0
 8002dec:	6093      	str	r3, [r2, #8]
 8002dee:	f381 8810 	msr	PRIMASK, r1
 8002df2:	2000      	movs	r0, #0
 8002df4:	e7d4      	b.n	8002da0 <UART_Start_Receive_DMA+0x58>
 8002df6:	46c0      	nop			; (mov r8, r8)
 8002df8:	080027d1 	.word	0x080027d1
 8002dfc:	080027b1 	.word	0x080027b1
 8002e00:	08002757 	.word	0x08002757

08002e04 <HAL_UART_Receive_DMA>:
 8002e04:	0003      	movs	r3, r0
 8002e06:	3388      	adds	r3, #136	; 0x88
 8002e08:	b570      	push	{r4, r5, r6, lr}
 8002e0a:	681c      	ldr	r4, [r3, #0]
 8002e0c:	2302      	movs	r3, #2
 8002e0e:	2c20      	cmp	r4, #32
 8002e10:	d12d      	bne.n	8002e6e <HAL_UART_Receive_DMA+0x6a>
 8002e12:	3b01      	subs	r3, #1
 8002e14:	2900      	cmp	r1, #0
 8002e16:	d02a      	beq.n	8002e6e <HAL_UART_Receive_DMA+0x6a>
 8002e18:	2a00      	cmp	r2, #0
 8002e1a:	d028      	beq.n	8002e6e <HAL_UART_Receive_DMA+0x6a>
 8002e1c:	2380      	movs	r3, #128	; 0x80
 8002e1e:	6884      	ldr	r4, [r0, #8]
 8002e20:	015b      	lsls	r3, r3, #5
 8002e22:	429c      	cmp	r4, r3
 8002e24:	d106      	bne.n	8002e34 <HAL_UART_Receive_DMA+0x30>
 8002e26:	6903      	ldr	r3, [r0, #16]
 8002e28:	2b00      	cmp	r3, #0
 8002e2a:	d103      	bne.n	8002e34 <HAL_UART_Receive_DMA+0x30>
 8002e2c:	2401      	movs	r4, #1
 8002e2e:	0023      	movs	r3, r4
 8002e30:	4221      	tst	r1, r4
 8002e32:	d11c      	bne.n	8002e6e <HAL_UART_Receive_DMA+0x6a>
 8002e34:	0004      	movs	r4, r0
 8002e36:	3480      	adds	r4, #128	; 0x80
 8002e38:	7825      	ldrb	r5, [r4, #0]
 8002e3a:	2302      	movs	r3, #2
 8002e3c:	2d01      	cmp	r5, #1
 8002e3e:	d016      	beq.n	8002e6e <HAL_UART_Receive_DMA+0x6a>
 8002e40:	3b01      	subs	r3, #1
 8002e42:	7023      	strb	r3, [r4, #0]
 8002e44:	2400      	movs	r4, #0
 8002e46:	66c4      	str	r4, [r0, #108]	; 0x6c
 8002e48:	6804      	ldr	r4, [r0, #0]
 8002e4a:	6864      	ldr	r4, [r4, #4]
 8002e4c:	0224      	lsls	r4, r4, #8
 8002e4e:	d50b      	bpl.n	8002e68 <HAL_UART_Receive_DMA+0x64>
 8002e50:	f3ef 8510 	mrs	r5, PRIMASK
 8002e54:	f383 8810 	msr	PRIMASK, r3
 8002e58:	2380      	movs	r3, #128	; 0x80
 8002e5a:	6804      	ldr	r4, [r0, #0]
 8002e5c:	04db      	lsls	r3, r3, #19
 8002e5e:	6826      	ldr	r6, [r4, #0]
 8002e60:	4333      	orrs	r3, r6
 8002e62:	6023      	str	r3, [r4, #0]
 8002e64:	f385 8810 	msr	PRIMASK, r5
 8002e68:	f7ff ff6e 	bl	8002d48 <UART_Start_Receive_DMA>
 8002e6c:	0003      	movs	r3, r0
 8002e6e:	0018      	movs	r0, r3
 8002e70:	bd70      	pop	{r4, r5, r6, pc}
	...

08002e74 <__libc_init_array>:
 8002e74:	b570      	push	{r4, r5, r6, lr}
 8002e76:	2600      	movs	r6, #0
 8002e78:	4d0c      	ldr	r5, [pc, #48]	; (8002eac <__libc_init_array+0x38>)
 8002e7a:	4c0d      	ldr	r4, [pc, #52]	; (8002eb0 <__libc_init_array+0x3c>)
 8002e7c:	1b64      	subs	r4, r4, r5
 8002e7e:	10a4      	asrs	r4, r4, #2
 8002e80:	42a6      	cmp	r6, r4
 8002e82:	d109      	bne.n	8002e98 <__libc_init_array+0x24>
 8002e84:	2600      	movs	r6, #0
 8002e86:	f000 f821 	bl	8002ecc <_init>
 8002e8a:	4d0a      	ldr	r5, [pc, #40]	; (8002eb4 <__libc_init_array+0x40>)
 8002e8c:	4c0a      	ldr	r4, [pc, #40]	; (8002eb8 <__libc_init_array+0x44>)
 8002e8e:	1b64      	subs	r4, r4, r5
 8002e90:	10a4      	asrs	r4, r4, #2
 8002e92:	42a6      	cmp	r6, r4
 8002e94:	d105      	bne.n	8002ea2 <__libc_init_array+0x2e>
 8002e96:	bd70      	pop	{r4, r5, r6, pc}
 8002e98:	00b3      	lsls	r3, r6, #2
 8002e9a:	58eb      	ldr	r3, [r5, r3]
 8002e9c:	4798      	blx	r3
 8002e9e:	3601      	adds	r6, #1
 8002ea0:	e7ee      	b.n	8002e80 <__libc_init_array+0xc>
 8002ea2:	00b3      	lsls	r3, r6, #2
 8002ea4:	58eb      	ldr	r3, [r5, r3]
 8002ea6:	4798      	blx	r3
 8002ea8:	3601      	adds	r6, #1
 8002eaa:	e7f2      	b.n	8002e92 <__libc_init_array+0x1e>
 8002eac:	08002fe0 	.word	0x08002fe0
 8002eb0:	08002fe0 	.word	0x08002fe0
 8002eb4:	08002fe0 	.word	0x08002fe0
 8002eb8:	08002fe8 	.word	0x08002fe8

08002ebc <memset>:
 8002ebc:	0003      	movs	r3, r0
 8002ebe:	1882      	adds	r2, r0, r2
 8002ec0:	4293      	cmp	r3, r2
 8002ec2:	d100      	bne.n	8002ec6 <memset+0xa>
 8002ec4:	4770      	bx	lr
 8002ec6:	7019      	strb	r1, [r3, #0]
 8002ec8:	3301      	adds	r3, #1
 8002eca:	e7f9      	b.n	8002ec0 <memset+0x4>

08002ecc <_init>:
 8002ecc:	b5f8      	push	{r3, r4, r5, r6, r7, lr}
 8002ece:	46c0      	nop			; (mov r8, r8)
 8002ed0:	bcf8      	pop	{r3, r4, r5, r6, r7}
 8002ed2:	bc08      	pop	{r3}
 8002ed4:	469e      	mov	lr, r3
 8002ed6:	4770      	bx	lr

08002ed8 <_fini>:
 8002ed8:	b5f8      	push	{r3, r4, r5, r6, r7, lr}
 8002eda:	46c0      	nop			; (mov r8, r8)
 8002edc:	bcf8      	pop	{r3, r4, r5, r6, r7}
 8002ede:	bc08      	pop	{r3}
 8002ee0:	469e      	mov	lr, r3
 8002ee2:	4770      	bx	lr
