
Panel.elf:     file format elf32-littlearm

Sections:
Idx Name          Size      VMA       LMA       File off  Algn
  0 .isr_vector   000000b8  08000000  08000000  00010000  2**0
                  CONTENTS, ALLOC, LOAD, READONLY, DATA
  1 .text         00004940  080000b8  080000b8  000100b8  2**2
                  CONTENTS, ALLOC, LOAD, READONLY, CODE
  2 .rodata       0000048c  080049f8  080049f8  000149f8  2**2
                  CONTENTS, ALLOC, LOAD, READONLY, DATA
  3 .ARM.extab    00000000  08004e84  08004e84  0002000c  2**0
                  CONTENTS
  4 .ARM          00000000  08004e84  08004e84  0002000c  2**0
                  CONTENTS
  5 .preinit_array 00000000  08004e84  08004e84  0002000c  2**0
                  CONTENTS, ALLOC, LOAD, DATA
  6 .init_array   00000008  08004e84  08004e84  00014e84  2**2
                  CONTENTS, ALLOC, LOAD, DATA
  7 .fini_array   00000004  08004e8c  08004e8c  00014e8c  2**2
                  CONTENTS, ALLOC, LOAD, DATA
  8 .data         0000000c  20000000  08004e90  00020000  2**2
                  CONTENTS, ALLOC, LOAD, DATA
  9 .bss          000005c4  2000000c  08004e9c  0002000c  2**2
                  ALLOC
 10 ._user_heap_stack 00000600  200005d0  08004e9c  000205d0  2**0
                  ALLOC
 11 .ARM.attributes 00000028  00000000  00000000  0002000c  2**0
                  CONTENTS, READONLY
 12 .comment      00000050  00000000  00000000  00020034  2**0
                  CONTENTS, READONLY
 13 .debug_frame  000003e8  00000000  00000000  00020084  2**2
                  CONTENTS, READONLY, DEBUGGING, OCTETS

Disassembly of section .text:

080000b8 <__do_global_dtors_aux>:
 80000b8:	b510      	push	{r4, lr}
 80000ba:	4c06      	ldr	r4, [pc, #24]	; (80000d4 <__do_global_dtors_aux+0x1c>)
 80000bc:	7823      	ldrb	r3, [r4, #0]
 80000be:	2b00      	cmp	r3, #0
 80000c0:	d107      	bne.n	80000d2 <__do_global_dtors_aux+0x1a>
 80000c2:	4b05      	ldr	r3, [pc, #20]	; (80000d8 <__do_global_dtors_aux+0x20>)
 80000c4:	2b00      	cmp	r3, #0
 80000c6:	d002      	beq.n	80000ce <__do_global_dtors_aux+0x16>
 80000c8:	4804      	ldr	r0, [pc, #16]	; (80000dc <__do_global_dtors_aux+0x24>)
 80000ca:	e000      	b.n	80000ce <__do_global_dtors_aux+0x16>
 80000cc:	bf00      	nop
 80000ce:	2301      	movs	r3, #1
 80000d0:	7023      	strb	r3, [r4, #0]
 80000d2:	bd10      	pop	{r4, pc}
 80000d4:	2000000c 	.word	0x2000000c
 80000d8:	00000000 	.word	0x00000000
 80000dc:	080049e0 	.word	0x080049e0

080000e0 <frame_dummy>:
 80000e0:	4b04      	ldr	r3, [pc, #16]	; (80000f4 <frame_dummy+0x14>)
 80000e2:	b510      	push	{r4, lr}
 80000e4:	2b00      	cmp	r3, #0
 80000e6:	d003      	beq.n	80000f0 <frame_dummy+0x10>
 80000e8:	4903      	ldr	r1, [pc, #12]	; (80000f8 <frame_dummy+0x18>)
 80000ea:	4804      	ldr	r0, [pc, #16]	; (80000fc <frame_dummy+0x1c>)
 80000ec:	e000      	b.n	80000f0 <frame_dummy+0x10>
 80000ee:	bf00      	nop
 80000f0:	bd10      	pop	{r4, pc}
 80000f2:	46c0      	nop			; (mov r8, r8)
 80000f4:	00000000 	.word	0x00000000
 80000f8:	20000010 	.word	0x20000010
 80000fc:	080049e0 	.word	0x080049e0

08000100 <__gnu_thumb1_case_uqi>:
 8000100:	b402      	push	{r1}
 8000102:	4671      	mov	r1, lr
 8000104:	0849      	lsrs	r1, r1, #1
 8000106:	0049      	lsls	r1, r1, #1
 8000108:	5c09      	ldrb	r1, [r1, r0]
 800010a:	0049      	lsls	r1, r1, #1
 800010c:	448e      	add	lr, r1
 800010e:	bc02      	pop	{r1}
 8000110:	4770      	bx	lr
 8000112:	46c0      	nop			; (mov r8, r8)

08000114 <__udivsi3>:
 8000114:	2200      	movs	r2, #0
 8000116:	0843      	lsrs	r3, r0, #1
 8000118:	428b      	cmp	r3, r1
 800011a:	d374      	bcc.n	8000206 <__udivsi3+0xf2>
 800011c:	0903      	lsrs	r3, r0, #4
 800011e:	428b      	cmp	r3, r1
 8000120:	d35f      	bcc.n	80001e2 <__udivsi3+0xce>
 8000122:	0a03      	lsrs	r3, r0, #8
 8000124:	428b      	cmp	r3, r1
 8000126:	d344      	bcc.n	80001b2 <__udivsi3+0x9e>
 8000128:	0b03      	lsrs	r3, r0, #12
 800012a:	428b      	cmp	r3, r1
 800012c:	d328      	bcc.n	8000180 <__udivsi3+0x6c>
 800012e:	0c03      	lsrs	r3, r0, #16
 8000130:	428b      	cmp	r3, r1
 8000132:	d30d      	bcc.n	8000150 <__udivsi3+0x3c>
 8000134:	22ff      	movs	r2, #255	; 0xff
 8000136:	0209      	lsls	r1, r1, #8
 8000138:	ba12      	rev	r2, r2
 800013a:	0c03      	lsrs	r3, r0, #16
 800013c:	428b      	cmp	r3, r1
 800013e:	d302      	bcc.n	8000146 <__udivsi3+0x32>
 8000140:	1212      	asrs	r2, r2, #8
 8000142:	0209      	lsls	r1, r1, #8
 8000144:	d065      	beq.n	8000212 <__udivsi3+0xfe>
 8000146:	0b03      	lsrs	r3, r0, #12
 8000148:	428b      	cmp	r3, r1
 800014a:	d319      	bcc.n	8000180 <__udivsi3+0x6c>
 800014c:	e000      	b.n	8000150 <__udivsi3+0x3c>
 800014e:	0a09      	lsrs	r1, r1, #8
 8000150:	0bc3      	lsrs	r3, r0, #15
 8000152:	428b      	cmp	r3, r1
 8000154:	d301      	bcc.n	800015a <__udivsi3+0x46>
 8000156:	03cb      	lsls	r3, r1, #15
 8000158:	1ac0      	subs	r0, r0, r3
 800015a:	4152      	adcs	r2, r2
 800015c:	0b83      	lsrs	r3, r0, #14
 800015e:	428b      	cmp	r3, r1
 8000160:	d301      	bcc.n	8000166 <__udivsi3+0x52>
 8000162:	038b      	lsls	r3, r1, #14
 8000164:	1ac0      	subs	r0, r0, r3
 8000166:	4152      	adcs	r2, r2
 8000168:	0b43      	lsrs	r3, r0, #13
 800016a:	428b      	cmp	r3, r1
 800016c:	d301      	bcc.n	8000172 <__udivsi3+0x5e>
 800016e:	034b      	lsls	r3, r1, #13
 8000170:	1ac0      	subs	r0, r0, r3
 8000172:	4152      	adcs	r2, r2
 8000174:	0b03      	lsrs	r3, r0, #12
 8000176:	428b      	cmp	r3, r1
 8000178:	d301      	bcc.n	800017e <__udivsi3+0x6a>
 800017a:	030b      	lsls	r3, r1, #12
 800017c:	1ac0      	subs	r0, r0, r3
 800017e:	4152      	adcs	r2, r2
 8000180:	0ac3      	lsrs	r3, r0, #11
 8000182:	428b      	cmp	r3, r1
 8000184:	d301      	bcc.n	800018a <__udivsi3+0x76>
 8000186:	02cb      	lsls	r3, r1, #11
 8000188:	1ac0      	subs	r0, r0, r3
 800018a:	4152      	adcs	r2, r2
 800018c:	0a83      	lsrs	r3, r0, #10
 800018e:	428b      	cmp	r3, r1
 8000190:	d301      	bcc.n	8000196 <__udivsi3+0x82>
 8000192:	028b      	lsls	r3, r1, #10
 8000194:	1ac0      	subs	r0, r0, r3
 8000196:	4152      	adcs	r2, r2
 8000198:	0a43      	lsrs	r3, r0, #9
 800019a:	428b      	cmp	r3, r1
 800019c:	d301      	bcc.n	80001a2 <__udivsi3+0x8e>
 800019e:	024b      	lsls	r3, r1, #9
 80001a0:	1ac0      	subs	r0, r0, r3
 80001a2:	4152      	adcs	r2, r2
 80001a4:	0a03      	lsrs	r3, r0, #8
 80001a6:	428b      	cmp	r3, r1
 80001a8:	d301      	bcc.n	80001ae <__udivsi3+0x9a>
 80001aa:	020b      	lsls	r3, r1, #8
 80001ac:	1ac0      	subs	r0, r0, r3
 80001ae:	4152      	adcs	r2, r2
 80001b0:	d2cd      	bcs.n	800014e <__udivsi3+0x3a>
 80001b2:	09c3      	lsrs	r3, r0, #7
 80001b4:	428b      	cmp	r3, r1
 80001b6:	d301      	bcc.n	80001bc <__udivsi3+0xa8>
 80001b8:	01cb      	lsls	r3, r1, #7
 80001ba:	1ac0      	subs	r0, r0, r3
 80001bc:	4152      	adcs	r2, r2
 80001be:	0983      	lsrs	r3, r0, #6
 80001c0:	428b      	cmp	r3, r1
 80001c2:	d301      	bcc.n	80001c8 <__udivsi3+0xb4>
 80001c4:	018b      	lsls	r3, r1, #6
 80001c6:	1ac0      	subs	r0, r0, r3
 80001c8:	4152      	adcs	r2, r2
 80001ca:	0943      	lsrs	r3, r0, #5
 80001cc:	428b      	cmp	r3, r1
 80001ce:	d301      	bcc.n	80001d4 <__udivsi3+0xc0>
 80001d0:	014b      	lsls	r3, r1, #5
 80001d2:	1ac0      	subs	r0, r0, r3
 80001d4:	4152      	adcs	r2, r2
 80001d6:	0903      	lsrs	r3, r0, #4
 80001d8:	428b      	cmp	r3, r1
 80001da:	d301      	bcc.n	80001e0 <__udivsi3+0xcc>
 80001dc:	010b      	lsls	r3, r1, #4
 80001de:	1ac0      	subs	r0, r0, r3
 80001e0:	4152      	adcs	r2, r2
 80001e2:	08c3      	lsrs	r3, r0, #3
 80001e4:	428b      	cmp	r3, r1
 80001e6:	d301      	bcc.n	80001ec <__udivsi3+0xd8>
 80001e8:	00cb      	lsls	r3, r1, #3
 80001ea:	1ac0      	subs	r0, r0, r3
 80001ec:	4152      	adcs	r2, r2
 80001ee:	0883      	lsrs	r3, r0, #2
 80001f0:	428b      	cmp	r3, r1
 80001f2:	d301      	bcc.n	80001f8 <__udivsi3+0xe4>
 80001f4:	008b      	lsls	r3, r1, #2
 80001f6:	1ac0      	subs	r0, r0, r3
 80001f8:	4152      	adcs	r2, r2
 80001fa:	0843      	lsrs	r3, r0, #1
 80001fc:	428b      	cmp	r3, r1
 80001fe:	d301      	bcc.n	8000204 <__udivsi3+0xf0>
 8000200:	004b      	lsls	r3, r1, #1
 8000202:	1ac0      	subs	r0, r0, r3
 8000204:	4152      	adcs	r2, r2
 8000206:	1a41      	subs	r1, r0, r1
 8000208:	d200      	bcs.n	800020c <__udivsi3+0xf8>
 800020a:	4601      	mov	r1, r0
 800020c:	4152      	adcs	r2, r2
 800020e:	4610      	mov	r0, r2
 8000210:	4770      	bx	lr
 8000212:	e7ff      	b.n	8000214 <__udivsi3+0x100>
 8000214:	b501      	push	{r0, lr}
 8000216:	2000      	movs	r0, #0
 8000218:	f000 f806 	bl	8000228 <__aeabi_idiv0>
 800021c:	bd02      	pop	{r1, pc}
 800021e:	46c0      	nop			; (mov r8, r8)

08000220 <__aeabi_uidivmod>:
 8000220:	2900      	cmp	r1, #0
 8000222:	d0f7      	beq.n	8000214 <__udivsi3+0x100>
 8000224:	e776      	b.n	8000114 <__udivsi3>
 8000226:	4770      	bx	lr

08000228 <__aeabi_idiv0>:
 8000228:	4770      	bx	lr
 800022a:	46c0      	nop			; (mov r8, r8)

0800022c <__aeabi_cfrcmple>:
 800022c:	4684      	mov	ip, r0
 800022e:	0008      	movs	r0, r1
 8000230:	4661      	mov	r1, ip
 8000232:	e7ff      	b.n	8000234 <__aeabi_cfcmpeq>

08000234 <__aeabi_cfcmpeq>:
 8000234:	b51f      	push	{r0, r1, r2, r3, r4, lr}
 8000236:	f000 fa3d 	bl	80006b4 <__lesf2>
 800023a:	2800      	cmp	r0, #0
 800023c:	d401      	bmi.n	8000242 <__aeabi_cfcmpeq+0xe>
 800023e:	2100      	movs	r1, #0
 8000240:	42c8      	cmn	r0, r1
 8000242:	bd1f      	pop	{r0, r1, r2, r3, r4, pc}

08000244 <__aeabi_fcmpeq>:
 8000244:	b510      	push	{r4, lr}
 8000246:	f000 f9c9 	bl	80005dc <__eqsf2>
 800024a:	4240      	negs	r0, r0
 800024c:	3001      	adds	r0, #1
 800024e:	bd10      	pop	{r4, pc}

08000250 <__aeabi_fcmplt>:
 8000250:	b510      	push	{r4, lr}
 8000252:	f000 fa2f 	bl	80006b4 <__lesf2>
 8000256:	2800      	cmp	r0, #0
 8000258:	db01      	blt.n	800025e <__aeabi_fcmplt+0xe>
 800025a:	2000      	movs	r0, #0
 800025c:	bd10      	pop	{r4, pc}
 800025e:	2001      	movs	r0, #1
 8000260:	bd10      	pop	{r4, pc}
 8000262:	46c0      	nop			; (mov r8, r8)

08000264 <__aeabi_fcmple>:
 8000264:	b510      	push	{r4, lr}
 8000266:	f000 fa25 	bl	80006b4 <__lesf2>
 800026a:	2800      	cmp	r0, #0
 800026c:	dd01      	ble.n	8000272 <__aeabi_fcmple+0xe>
 800026e:	2000      	movs	r0, #0
 8000270:	bd10      	pop	{r4, pc}
 8000272:	2001      	movs	r0, #1
 8000274:	bd10      	pop	{r4, pc}
 8000276:	46c0      	nop			; (mov r8, r8)

08000278 <__aeabi_fcmpgt>:
 8000278:	b510      	push	{r4, lr}
 800027a:	f000 f9d5 	bl	8000628 <__gesf2>
 800027e:	2800      	cmp	r0, #0
 8000280:	dc01      	bgt.n	8000286 <__aeabi_fcmpgt+0xe>
 8000282:	2000      	movs	r0, #0
 8000284:	bd10      	pop	{r4, pc}
 8000286:	2001      	movs	r0, #1
 8000288:	bd10      	pop	{r4, pc}
 800028a:	46c0      	nop			; (mov r8, r8)

0800028c <__aeabi_fcmpge>:
 800028c:	b510      	push	{r4, lr}
 800028e:	f000 f9cb 	bl	8000628 <__gesf2>
 8000292:	2800      	cmp	r0, #0
 8000294:	da01      	bge.n	800029a <__aeabi_fcmpge+0xe>
 8000296:	2000      	movs	r0, #0
 8000298:	bd10      	pop	{r4, pc}
 800029a:	2001      	movs	r0, #1
 800029c:	bd10      	pop	{r4, pc}
 800029e:	46c0      	nop			; (mov r8, r8)

080002a0 <__aeabi_fadd>:
 80002a0:	b5f0      	push	{r4, r5, r6, r7, lr}
 80002a2:	46c6      	mov	lr, r8
 80002a4:	0243      	lsls	r3, r0, #9
 80002a6:	0a5b      	lsrs	r3, r3, #9
 80002a8:	024e      	lsls	r6, r1, #9
 80002aa:	0045      	lsls	r5, r0, #1
 80002ac:	004f      	lsls	r7, r1, #1
 80002ae:	00da      	lsls	r2, r3, #3
 80002b0:	0fc4      	lsrs	r4, r0, #31
 80002b2:	469c      	mov	ip, r3
 80002b4:	0a70      	lsrs	r0, r6, #9
 80002b6:	4690      	mov	r8, r2
 80002b8:	b500      	push	{lr}
 80002ba:	0e2d      	lsrs	r5, r5, #24
 80002bc:	0e3f      	lsrs	r7, r7, #24
 80002be:	0fc9      	lsrs	r1, r1, #31
 80002c0:	09b6      	lsrs	r6, r6, #6
 80002c2:	428c      	cmp	r4, r1
 80002c4:	d04b      	beq.n	800035e <__aeabi_fadd+0xbe>
 80002c6:	1bea      	subs	r2, r5, r7
 80002c8:	2a00      	cmp	r2, #0
 80002ca:	dd36      	ble.n	800033a <__aeabi_fadd+0x9a>
 80002cc:	2f00      	cmp	r7, #0
 80002ce:	d061      	beq.n	8000394 <__aeabi_fadd+0xf4>
 80002d0:	2dff      	cmp	r5, #255	; 0xff
 80002d2:	d100      	bne.n	80002d6 <__aeabi_fadd+0x36>
 80002d4:	e0ad      	b.n	8000432 <__aeabi_fadd+0x192>
 80002d6:	2380      	movs	r3, #128	; 0x80
 80002d8:	04db      	lsls	r3, r3, #19
 80002da:	431e      	orrs	r6, r3
 80002dc:	2a1b      	cmp	r2, #27
 80002de:	dc00      	bgt.n	80002e2 <__aeabi_fadd+0x42>
 80002e0:	e0d3      	b.n	800048a <__aeabi_fadd+0x1ea>
 80002e2:	2001      	movs	r0, #1
 80002e4:	4643      	mov	r3, r8
 80002e6:	1a18      	subs	r0, r3, r0
 80002e8:	0143      	lsls	r3, r0, #5
 80002ea:	d400      	bmi.n	80002ee <__aeabi_fadd+0x4e>
 80002ec:	e08c      	b.n	8000408 <__aeabi_fadd+0x168>
 80002ee:	0180      	lsls	r0, r0, #6
 80002f0:	0987      	lsrs	r7, r0, #6
 80002f2:	0038      	movs	r0, r7
 80002f4:	f001 f970 	bl	80015d8 <__clzsi2>
 80002f8:	3805      	subs	r0, #5
 80002fa:	4087      	lsls	r7, r0
 80002fc:	4285      	cmp	r5, r0
 80002fe:	dc00      	bgt.n	8000302 <__aeabi_fadd+0x62>
 8000300:	e0b6      	b.n	8000470 <__aeabi_fadd+0x1d0>
 8000302:	1a2d      	subs	r5, r5, r0
 8000304:	48b3      	ldr	r0, [pc, #716]	; (80005d4 <__aeabi_fadd+0x334>)
 8000306:	4038      	ands	r0, r7
 8000308:	0743      	lsls	r3, r0, #29
 800030a:	d004      	beq.n	8000316 <__aeabi_fadd+0x76>
 800030c:	230f      	movs	r3, #15
 800030e:	4003      	ands	r3, r0
 8000310:	2b04      	cmp	r3, #4
 8000312:	d000      	beq.n	8000316 <__aeabi_fadd+0x76>
 8000314:	3004      	adds	r0, #4
 8000316:	0143      	lsls	r3, r0, #5
 8000318:	d400      	bmi.n	800031c <__aeabi_fadd+0x7c>
 800031a:	e078      	b.n	800040e <__aeabi_fadd+0x16e>
 800031c:	1c6a      	adds	r2, r5, #1
 800031e:	2dfe      	cmp	r5, #254	; 0xfe
 8000320:	d065      	beq.n	80003ee <__aeabi_fadd+0x14e>
 8000322:	0180      	lsls	r0, r0, #6
 8000324:	0a43      	lsrs	r3, r0, #9
 8000326:	469c      	mov	ip, r3
 8000328:	b2d2      	uxtb	r2, r2
 800032a:	4663      	mov	r3, ip
 800032c:	05d0      	lsls	r0, r2, #23
 800032e:	4318      	orrs	r0, r3
 8000330:	07e4      	lsls	r4, r4, #31
 8000332:	4320      	orrs	r0, r4
 8000334:	bc80      	pop	{r7}
 8000336:	46b8      	mov	r8, r7
 8000338:	bdf0      	pop	{r4, r5, r6, r7, pc}
 800033a:	2a00      	cmp	r2, #0
 800033c:	d035      	beq.n	80003aa <__aeabi_fadd+0x10a>
 800033e:	1b7a      	subs	r2, r7, r5
 8000340:	2d00      	cmp	r5, #0
 8000342:	d000      	beq.n	8000346 <__aeabi_fadd+0xa6>
 8000344:	e0af      	b.n	80004a6 <__aeabi_fadd+0x206>
 8000346:	4643      	mov	r3, r8
 8000348:	2b00      	cmp	r3, #0
 800034a:	d100      	bne.n	800034e <__aeabi_fadd+0xae>
 800034c:	e0a7      	b.n	800049e <__aeabi_fadd+0x1fe>
 800034e:	1e53      	subs	r3, r2, #1
 8000350:	2a01      	cmp	r2, #1
 8000352:	d100      	bne.n	8000356 <__aeabi_fadd+0xb6>
 8000354:	e12f      	b.n	80005b6 <__aeabi_fadd+0x316>
 8000356:	2aff      	cmp	r2, #255	; 0xff
 8000358:	d069      	beq.n	800042e <__aeabi_fadd+0x18e>
 800035a:	001a      	movs	r2, r3
 800035c:	e0aa      	b.n	80004b4 <__aeabi_fadd+0x214>
 800035e:	1be9      	subs	r1, r5, r7
 8000360:	2900      	cmp	r1, #0
 8000362:	dd70      	ble.n	8000446 <__aeabi_fadd+0x1a6>
 8000364:	2f00      	cmp	r7, #0
 8000366:	d037      	beq.n	80003d8 <__aeabi_fadd+0x138>
 8000368:	2dff      	cmp	r5, #255	; 0xff
 800036a:	d062      	beq.n	8000432 <__aeabi_fadd+0x192>
 800036c:	2380      	movs	r3, #128	; 0x80
 800036e:	04db      	lsls	r3, r3, #19
 8000370:	431e      	orrs	r6, r3
 8000372:	291b      	cmp	r1, #27
 8000374:	dc00      	bgt.n	8000378 <__aeabi_fadd+0xd8>
 8000376:	e0b0      	b.n	80004da <__aeabi_fadd+0x23a>
 8000378:	2001      	movs	r0, #1
 800037a:	4440      	add	r0, r8
 800037c:	0143      	lsls	r3, r0, #5
 800037e:	d543      	bpl.n	8000408 <__aeabi_fadd+0x168>
 8000380:	3501      	adds	r5, #1
 8000382:	2dff      	cmp	r5, #255	; 0xff
 8000384:	d033      	beq.n	80003ee <__aeabi_fadd+0x14e>
 8000386:	2301      	movs	r3, #1
 8000388:	4a93      	ldr	r2, [pc, #588]	; (80005d8 <__aeabi_fadd+0x338>)
 800038a:	4003      	ands	r3, r0
 800038c:	0840      	lsrs	r0, r0, #1
 800038e:	4010      	ands	r0, r2
 8000390:	4318      	orrs	r0, r3
 8000392:	e7b9      	b.n	8000308 <__aeabi_fadd+0x68>
 8000394:	2e00      	cmp	r6, #0
 8000396:	d100      	bne.n	800039a <__aeabi_fadd+0xfa>
 8000398:	e083      	b.n	80004a2 <__aeabi_fadd+0x202>
 800039a:	1e51      	subs	r1, r2, #1
 800039c:	2a01      	cmp	r2, #1
 800039e:	d100      	bne.n	80003a2 <__aeabi_fadd+0x102>
 80003a0:	e0d8      	b.n	8000554 <__aeabi_fadd+0x2b4>
 80003a2:	2aff      	cmp	r2, #255	; 0xff
 80003a4:	d045      	beq.n	8000432 <__aeabi_fadd+0x192>
 80003a6:	000a      	movs	r2, r1
 80003a8:	e798      	b.n	80002dc <__aeabi_fadd+0x3c>
 80003aa:	27fe      	movs	r7, #254	; 0xfe
 80003ac:	1c6a      	adds	r2, r5, #1
 80003ae:	4217      	tst	r7, r2
 80003b0:	d000      	beq.n	80003b4 <__aeabi_fadd+0x114>
 80003b2:	e086      	b.n	80004c2 <__aeabi_fadd+0x222>
 80003b4:	2d00      	cmp	r5, #0
 80003b6:	d000      	beq.n	80003ba <__aeabi_fadd+0x11a>
 80003b8:	e0b7      	b.n	800052a <__aeabi_fadd+0x28a>
 80003ba:	4643      	mov	r3, r8
 80003bc:	2b00      	cmp	r3, #0
 80003be:	d100      	bne.n	80003c2 <__aeabi_fadd+0x122>
 80003c0:	e0f3      	b.n	80005aa <__aeabi_fadd+0x30a>
 80003c2:	2200      	movs	r2, #0
 80003c4:	2e00      	cmp	r6, #0
 80003c6:	d0b0      	beq.n	800032a <__aeabi_fadd+0x8a>
 80003c8:	1b98      	subs	r0, r3, r6
 80003ca:	0143      	lsls	r3, r0, #5
 80003cc:	d400      	bmi.n	80003d0 <__aeabi_fadd+0x130>
 80003ce:	e0fa      	b.n	80005c6 <__aeabi_fadd+0x326>
 80003d0:	4643      	mov	r3, r8
 80003d2:	000c      	movs	r4, r1
 80003d4:	1af0      	subs	r0, r6, r3
 80003d6:	e797      	b.n	8000308 <__aeabi_fadd+0x68>
 80003d8:	2e00      	cmp	r6, #0
 80003da:	d100      	bne.n	80003de <__aeabi_fadd+0x13e>
 80003dc:	e0c8      	b.n	8000570 <__aeabi_fadd+0x2d0>
 80003de:	1e4a      	subs	r2, r1, #1
 80003e0:	2901      	cmp	r1, #1
 80003e2:	d100      	bne.n	80003e6 <__aeabi_fadd+0x146>
 80003e4:	e0ae      	b.n	8000544 <__aeabi_fadd+0x2a4>
 80003e6:	29ff      	cmp	r1, #255	; 0xff
 80003e8:	d023      	beq.n	8000432 <__aeabi_fadd+0x192>
 80003ea:	0011      	movs	r1, r2
 80003ec:	e7c1      	b.n	8000372 <__aeabi_fadd+0xd2>
 80003ee:	2300      	movs	r3, #0
 80003f0:	22ff      	movs	r2, #255	; 0xff
 80003f2:	469c      	mov	ip, r3
 80003f4:	e799      	b.n	800032a <__aeabi_fadd+0x8a>
 80003f6:	21fe      	movs	r1, #254	; 0xfe
 80003f8:	1c6a      	adds	r2, r5, #1
 80003fa:	4211      	tst	r1, r2
 80003fc:	d077      	beq.n	80004ee <__aeabi_fadd+0x24e>
 80003fe:	2aff      	cmp	r2, #255	; 0xff
 8000400:	d0f5      	beq.n	80003ee <__aeabi_fadd+0x14e>
 8000402:	0015      	movs	r5, r2
 8000404:	4446      	add	r6, r8
 8000406:	0870      	lsrs	r0, r6, #1
 8000408:	0743      	lsls	r3, r0, #29
 800040a:	d000      	beq.n	800040e <__aeabi_fadd+0x16e>
 800040c:	e77e      	b.n	800030c <__aeabi_fadd+0x6c>
 800040e:	08c3      	lsrs	r3, r0, #3
 8000410:	2dff      	cmp	r5, #255	; 0xff
 8000412:	d00e      	beq.n	8000432 <__aeabi_fadd+0x192>
 8000414:	025b      	lsls	r3, r3, #9
 8000416:	0a5b      	lsrs	r3, r3, #9
 8000418:	469c      	mov	ip, r3
 800041a:	b2ea      	uxtb	r2, r5
 800041c:	e785      	b.n	800032a <__aeabi_fadd+0x8a>
 800041e:	2e00      	cmp	r6, #0
 8000420:	d007      	beq.n	8000432 <__aeabi_fadd+0x192>
 8000422:	2280      	movs	r2, #128	; 0x80
 8000424:	03d2      	lsls	r2, r2, #15
 8000426:	4213      	tst	r3, r2
 8000428:	d003      	beq.n	8000432 <__aeabi_fadd+0x192>
 800042a:	4210      	tst	r0, r2
 800042c:	d101      	bne.n	8000432 <__aeabi_fadd+0x192>
 800042e:	000c      	movs	r4, r1
 8000430:	0003      	movs	r3, r0
 8000432:	2b00      	cmp	r3, #0
 8000434:	d0db      	beq.n	80003ee <__aeabi_fadd+0x14e>
 8000436:	2080      	movs	r0, #128	; 0x80
 8000438:	03c0      	lsls	r0, r0, #15
 800043a:	4318      	orrs	r0, r3
 800043c:	0240      	lsls	r0, r0, #9
 800043e:	0a43      	lsrs	r3, r0, #9
 8000440:	469c      	mov	ip, r3
 8000442:	22ff      	movs	r2, #255	; 0xff
 8000444:	e771      	b.n	800032a <__aeabi_fadd+0x8a>
 8000446:	2900      	cmp	r1, #0
 8000448:	d0d5      	beq.n	80003f6 <__aeabi_fadd+0x156>
 800044a:	1b7a      	subs	r2, r7, r5
 800044c:	2d00      	cmp	r5, #0
 800044e:	d160      	bne.n	8000512 <__aeabi_fadd+0x272>
 8000450:	4643      	mov	r3, r8
 8000452:	2b00      	cmp	r3, #0
 8000454:	d024      	beq.n	80004a0 <__aeabi_fadd+0x200>
 8000456:	1e53      	subs	r3, r2, #1
 8000458:	2a01      	cmp	r2, #1
 800045a:	d073      	beq.n	8000544 <__aeabi_fadd+0x2a4>
 800045c:	2aff      	cmp	r2, #255	; 0xff
 800045e:	d0e7      	beq.n	8000430 <__aeabi_fadd+0x190>
 8000460:	001a      	movs	r2, r3
 8000462:	2a1b      	cmp	r2, #27
 8000464:	dc00      	bgt.n	8000468 <__aeabi_fadd+0x1c8>
 8000466:	e085      	b.n	8000574 <__aeabi_fadd+0x2d4>
 8000468:	2001      	movs	r0, #1
 800046a:	003d      	movs	r5, r7
 800046c:	1980      	adds	r0, r0, r6
 800046e:	e785      	b.n	800037c <__aeabi_fadd+0xdc>
 8000470:	2320      	movs	r3, #32
 8000472:	003a      	movs	r2, r7
 8000474:	1b45      	subs	r5, r0, r5
 8000476:	0038      	movs	r0, r7
 8000478:	3501      	adds	r5, #1
 800047a:	40ea      	lsrs	r2, r5
 800047c:	1b5d      	subs	r5, r3, r5
 800047e:	40a8      	lsls	r0, r5
 8000480:	1e43      	subs	r3, r0, #1
 8000482:	4198      	sbcs	r0, r3
 8000484:	2500      	movs	r5, #0
 8000486:	4310      	orrs	r0, r2
 8000488:	e73e      	b.n	8000308 <__aeabi_fadd+0x68>
 800048a:	2320      	movs	r3, #32
 800048c:	0030      	movs	r0, r6
 800048e:	1a9b      	subs	r3, r3, r2
 8000490:	0031      	movs	r1, r6
 8000492:	4098      	lsls	r0, r3
 8000494:	40d1      	lsrs	r1, r2
 8000496:	1e43      	subs	r3, r0, #1
 8000498:	4198      	sbcs	r0, r3
 800049a:	4308      	orrs	r0, r1
 800049c:	e722      	b.n	80002e4 <__aeabi_fadd+0x44>
 800049e:	000c      	movs	r4, r1
 80004a0:	0003      	movs	r3, r0
 80004a2:	0015      	movs	r5, r2
 80004a4:	e7b4      	b.n	8000410 <__aeabi_fadd+0x170>
 80004a6:	2fff      	cmp	r7, #255	; 0xff
 80004a8:	d0c1      	beq.n	800042e <__aeabi_fadd+0x18e>
 80004aa:	2380      	movs	r3, #128	; 0x80
 80004ac:	4640      	mov	r0, r8
 80004ae:	04db      	lsls	r3, r3, #19
 80004b0:	4318      	orrs	r0, r3
 80004b2:	4680      	mov	r8, r0
 80004b4:	2a1b      	cmp	r2, #27
 80004b6:	dd51      	ble.n	800055c <__aeabi_fadd+0x2bc>
 80004b8:	2001      	movs	r0, #1
 80004ba:	000c      	movs	r4, r1
 80004bc:	003d      	movs	r5, r7
 80004be:	1a30      	subs	r0, r6, r0
 80004c0:	e712      	b.n	80002e8 <__aeabi_fadd+0x48>
 80004c2:	4643      	mov	r3, r8
 80004c4:	1b9f      	subs	r7, r3, r6
 80004c6:	017b      	lsls	r3, r7, #5
 80004c8:	d42b      	bmi.n	8000522 <__aeabi_fadd+0x282>
 80004ca:	2f00      	cmp	r7, #0
 80004cc:	d000      	beq.n	80004d0 <__aeabi_fadd+0x230>
 80004ce:	e710      	b.n	80002f2 <__aeabi_fadd+0x52>
 80004d0:	2300      	movs	r3, #0
 80004d2:	2400      	movs	r4, #0
 80004d4:	2200      	movs	r2, #0
 80004d6:	469c      	mov	ip, r3
 80004d8:	e727      	b.n	800032a <__aeabi_fadd+0x8a>
 80004da:	2320      	movs	r3, #32
 80004dc:	0032      	movs	r2, r6
 80004de:	0030      	movs	r0, r6
 80004e0:	40ca      	lsrs	r2, r1
 80004e2:	1a59      	subs	r1, r3, r1
 80004e4:	4088      	lsls	r0, r1
 80004e6:	1e43      	subs	r3, r0, #1
 80004e8:	4198      	sbcs	r0, r3
 80004ea:	4310      	orrs	r0, r2
 80004ec:	e745      	b.n	800037a <__aeabi_fadd+0xda>
 80004ee:	2d00      	cmp	r5, #0
 80004f0:	d14a      	bne.n	8000588 <__aeabi_fadd+0x2e8>
 80004f2:	4643      	mov	r3, r8
 80004f4:	2b00      	cmp	r3, #0
 80004f6:	d063      	beq.n	80005c0 <__aeabi_fadd+0x320>
 80004f8:	2200      	movs	r2, #0
 80004fa:	2e00      	cmp	r6, #0
 80004fc:	d100      	bne.n	8000500 <__aeabi_fadd+0x260>
 80004fe:	e714      	b.n	800032a <__aeabi_fadd+0x8a>
 8000500:	0030      	movs	r0, r6
 8000502:	4440      	add	r0, r8
 8000504:	0143      	lsls	r3, r0, #5
 8000506:	d400      	bmi.n	800050a <__aeabi_fadd+0x26a>
 8000508:	e77e      	b.n	8000408 <__aeabi_fadd+0x168>
 800050a:	4b32      	ldr	r3, [pc, #200]	; (80005d4 <__aeabi_fadd+0x334>)
 800050c:	3501      	adds	r5, #1
 800050e:	4018      	ands	r0, r3
 8000510:	e77a      	b.n	8000408 <__aeabi_fadd+0x168>
 8000512:	2fff      	cmp	r7, #255	; 0xff
 8000514:	d08c      	beq.n	8000430 <__aeabi_fadd+0x190>
 8000516:	2380      	movs	r3, #128	; 0x80
 8000518:	4641      	mov	r1, r8
 800051a:	04db      	lsls	r3, r3, #19
 800051c:	4319      	orrs	r1, r3
 800051e:	4688      	mov	r8, r1
 8000520:	e79f      	b.n	8000462 <__aeabi_fadd+0x1c2>
 8000522:	4643      	mov	r3, r8
 8000524:	000c      	movs	r4, r1
 8000526:	1af7      	subs	r7, r6, r3
 8000528:	e6e3      	b.n	80002f2 <__aeabi_fadd+0x52>
 800052a:	4642      	mov	r2, r8
 800052c:	2a00      	cmp	r2, #0
 800052e:	d000      	beq.n	8000532 <__aeabi_fadd+0x292>
 8000530:	e775      	b.n	800041e <__aeabi_fadd+0x17e>
 8000532:	2e00      	cmp	r6, #0
 8000534:	d000      	beq.n	8000538 <__aeabi_fadd+0x298>
 8000536:	e77a      	b.n	800042e <__aeabi_fadd+0x18e>
 8000538:	2380      	movs	r3, #128	; 0x80
 800053a:	03db      	lsls	r3, r3, #15
 800053c:	2400      	movs	r4, #0
 800053e:	469c      	mov	ip, r3
 8000540:	22ff      	movs	r2, #255	; 0xff
 8000542:	e6f2      	b.n	800032a <__aeabi_fadd+0x8a>
 8000544:	0030      	movs	r0, r6
 8000546:	4440      	add	r0, r8
 8000548:	2501      	movs	r5, #1
 800054a:	0143      	lsls	r3, r0, #5
 800054c:	d400      	bmi.n	8000550 <__aeabi_fadd+0x2b0>
 800054e:	e75b      	b.n	8000408 <__aeabi_fadd+0x168>
 8000550:	2502      	movs	r5, #2
 8000552:	e718      	b.n	8000386 <__aeabi_fadd+0xe6>
 8000554:	4643      	mov	r3, r8
 8000556:	2501      	movs	r5, #1
 8000558:	1b98      	subs	r0, r3, r6
 800055a:	e6c5      	b.n	80002e8 <__aeabi_fadd+0x48>
 800055c:	2320      	movs	r3, #32
 800055e:	4644      	mov	r4, r8
 8000560:	4640      	mov	r0, r8
 8000562:	40d4      	lsrs	r4, r2
 8000564:	1a9a      	subs	r2, r3, r2
 8000566:	4090      	lsls	r0, r2
 8000568:	1e43      	subs	r3, r0, #1
 800056a:	4198      	sbcs	r0, r3
 800056c:	4320      	orrs	r0, r4
 800056e:	e7a4      	b.n	80004ba <__aeabi_fadd+0x21a>
 8000570:	000d      	movs	r5, r1
 8000572:	e74d      	b.n	8000410 <__aeabi_fadd+0x170>
 8000574:	2320      	movs	r3, #32
 8000576:	4641      	mov	r1, r8
 8000578:	4640      	mov	r0, r8
 800057a:	40d1      	lsrs	r1, r2
 800057c:	1a9a      	subs	r2, r3, r2
 800057e:	4090      	lsls	r0, r2
 8000580:	1e43      	subs	r3, r0, #1
 8000582:	4198      	sbcs	r0, r3
 8000584:	4308      	orrs	r0, r1
 8000586:	e770      	b.n	800046a <__aeabi_fadd+0x1ca>
 8000588:	4642      	mov	r2, r8
 800058a:	2a00      	cmp	r2, #0
 800058c:	d100      	bne.n	8000590 <__aeabi_fadd+0x2f0>
 800058e:	e74f      	b.n	8000430 <__aeabi_fadd+0x190>
 8000590:	2e00      	cmp	r6, #0
 8000592:	d100      	bne.n	8000596 <__aeabi_fadd+0x2f6>
 8000594:	e74d      	b.n	8000432 <__aeabi_fadd+0x192>
 8000596:	2280      	movs	r2, #128	; 0x80
 8000598:	03d2      	lsls	r2, r2, #15
 800059a:	4213      	tst	r3, r2
 800059c:	d100      	bne.n	80005a0 <__aeabi_fadd+0x300>
 800059e:	e748      	b.n	8000432 <__aeabi_fadd+0x192>
 80005a0:	4210      	tst	r0, r2
 80005a2:	d000      	beq.n	80005a6 <__aeabi_fadd+0x306>
 80005a4:	e745      	b.n	8000432 <__aeabi_fadd+0x192>
 80005a6:	0003      	movs	r3, r0
 80005a8:	e743      	b.n	8000432 <__aeabi_fadd+0x192>
 80005aa:	2e00      	cmp	r6, #0
 80005ac:	d090      	beq.n	80004d0 <__aeabi_fadd+0x230>
 80005ae:	000c      	movs	r4, r1
 80005b0:	4684      	mov	ip, r0
 80005b2:	2200      	movs	r2, #0
 80005b4:	e6b9      	b.n	800032a <__aeabi_fadd+0x8a>
 80005b6:	4643      	mov	r3, r8
 80005b8:	000c      	movs	r4, r1
 80005ba:	1af0      	subs	r0, r6, r3
 80005bc:	3501      	adds	r5, #1
 80005be:	e693      	b.n	80002e8 <__aeabi_fadd+0x48>
 80005c0:	4684      	mov	ip, r0
 80005c2:	2200      	movs	r2, #0
 80005c4:	e6b1      	b.n	800032a <__aeabi_fadd+0x8a>
 80005c6:	2800      	cmp	r0, #0
 80005c8:	d000      	beq.n	80005cc <__aeabi_fadd+0x32c>
 80005ca:	e71d      	b.n	8000408 <__aeabi_fadd+0x168>
 80005cc:	2300      	movs	r3, #0
 80005ce:	2400      	movs	r4, #0
 80005d0:	469c      	mov	ip, r3
 80005d2:	e6aa      	b.n	800032a <__aeabi_fadd+0x8a>
 80005d4:	fbffffff 	.word	0xfbffffff
 80005d8:	7dffffff 	.word	0x7dffffff

080005dc <__eqsf2>:
 80005dc:	b570      	push	{r4, r5, r6, lr}
 80005de:	0042      	lsls	r2, r0, #1
 80005e0:	0245      	lsls	r5, r0, #9
 80005e2:	024e      	lsls	r6, r1, #9
 80005e4:	004c      	lsls	r4, r1, #1
 80005e6:	0fc3      	lsrs	r3, r0, #31
 80005e8:	0a6d      	lsrs	r5, r5, #9
 80005ea:	2001      	movs	r0, #1
 80005ec:	0e12      	lsrs	r2, r2, #24
 80005ee:	0a76      	lsrs	r6, r6, #9
 80005f0:	0e24      	lsrs	r4, r4, #24
 80005f2:	0fc9      	lsrs	r1, r1, #31
 80005f4:	2aff      	cmp	r2, #255	; 0xff
 80005f6:	d006      	beq.n	8000606 <__eqsf2+0x2a>
 80005f8:	2cff      	cmp	r4, #255	; 0xff
 80005fa:	d003      	beq.n	8000604 <__eqsf2+0x28>
 80005fc:	42a2      	cmp	r2, r4
 80005fe:	d101      	bne.n	8000604 <__eqsf2+0x28>
 8000600:	42b5      	cmp	r5, r6
 8000602:	d006      	beq.n	8000612 <__eqsf2+0x36>
 8000604:	bd70      	pop	{r4, r5, r6, pc}
 8000606:	2d00      	cmp	r5, #0
 8000608:	d1fc      	bne.n	8000604 <__eqsf2+0x28>
 800060a:	2cff      	cmp	r4, #255	; 0xff
 800060c:	d1fa      	bne.n	8000604 <__eqsf2+0x28>
 800060e:	2e00      	cmp	r6, #0
 8000610:	d1f8      	bne.n	8000604 <__eqsf2+0x28>
 8000612:	428b      	cmp	r3, r1
 8000614:	d006      	beq.n	8000624 <__eqsf2+0x48>
 8000616:	2001      	movs	r0, #1
 8000618:	2a00      	cmp	r2, #0
 800061a:	d1f3      	bne.n	8000604 <__eqsf2+0x28>
 800061c:	0028      	movs	r0, r5
 800061e:	1e43      	subs	r3, r0, #1
 8000620:	4198      	sbcs	r0, r3
 8000622:	e7ef      	b.n	8000604 <__eqsf2+0x28>
 8000624:	2000      	movs	r0, #0
 8000626:	e7ed      	b.n	8000604 <__eqsf2+0x28>

08000628 <__gesf2>:
 8000628:	b570      	push	{r4, r5, r6, lr}
 800062a:	0042      	lsls	r2, r0, #1
 800062c:	0245      	lsls	r5, r0, #9
 800062e:	024e      	lsls	r6, r1, #9
 8000630:	004c      	lsls	r4, r1, #1
 8000632:	0fc3      	lsrs	r3, r0, #31
 8000634:	0a6d      	lsrs	r5, r5, #9
 8000636:	0e12      	lsrs	r2, r2, #24
 8000638:	0a76      	lsrs	r6, r6, #9
 800063a:	0e24      	lsrs	r4, r4, #24
 800063c:	0fc8      	lsrs	r0, r1, #31
 800063e:	2aff      	cmp	r2, #255	; 0xff
 8000640:	d01b      	beq.n	800067a <__gesf2+0x52>
 8000642:	2cff      	cmp	r4, #255	; 0xff
 8000644:	d00e      	beq.n	8000664 <__gesf2+0x3c>
 8000646:	2a00      	cmp	r2, #0
 8000648:	d11b      	bne.n	8000682 <__gesf2+0x5a>
 800064a:	2c00      	cmp	r4, #0
 800064c:	d101      	bne.n	8000652 <__gesf2+0x2a>
 800064e:	2e00      	cmp	r6, #0
 8000650:	d01c      	beq.n	800068c <__gesf2+0x64>
 8000652:	2d00      	cmp	r5, #0
 8000654:	d00c      	beq.n	8000670 <__gesf2+0x48>
 8000656:	4283      	cmp	r3, r0
 8000658:	d01c      	beq.n	8000694 <__gesf2+0x6c>
 800065a:	2102      	movs	r1, #2
 800065c:	1e58      	subs	r0, r3, #1
 800065e:	4008      	ands	r0, r1
 8000660:	3801      	subs	r0, #1
 8000662:	bd70      	pop	{r4, r5, r6, pc}
 8000664:	2e00      	cmp	r6, #0
 8000666:	d122      	bne.n	80006ae <__gesf2+0x86>
 8000668:	2a00      	cmp	r2, #0
 800066a:	d1f4      	bne.n	8000656 <__gesf2+0x2e>
 800066c:	2d00      	cmp	r5, #0
 800066e:	d1f2      	bne.n	8000656 <__gesf2+0x2e>
 8000670:	2800      	cmp	r0, #0
 8000672:	d1f6      	bne.n	8000662 <__gesf2+0x3a>
 8000674:	2001      	movs	r0, #1
 8000676:	4240      	negs	r0, r0
 8000678:	e7f3      	b.n	8000662 <__gesf2+0x3a>
 800067a:	2d00      	cmp	r5, #0
 800067c:	d117      	bne.n	80006ae <__gesf2+0x86>
 800067e:	2cff      	cmp	r4, #255	; 0xff
 8000680:	d0f0      	beq.n	8000664 <__gesf2+0x3c>
 8000682:	2c00      	cmp	r4, #0
 8000684:	d1e7      	bne.n	8000656 <__gesf2+0x2e>
 8000686:	2e00      	cmp	r6, #0
 8000688:	d1e5      	bne.n	8000656 <__gesf2+0x2e>
 800068a:	e7e6      	b.n	800065a <__gesf2+0x32>
 800068c:	2000      	movs	r0, #0
 800068e:	2d00      	cmp	r5, #0
 8000690:	d0e7      	beq.n	8000662 <__gesf2+0x3a>
 8000692:	e7e2      	b.n	800065a <__gesf2+0x32>
 8000694:	42a2      	cmp	r2, r4
 8000696:	dc05      	bgt.n	80006a4 <__gesf2+0x7c>
 8000698:	dbea      	blt.n	8000670 <__gesf2+0x48>
 800069a:	42b5      	cmp	r5, r6
 800069c:	d802      	bhi.n	80006a4 <__gesf2+0x7c>
 800069e:	d3e7      	bcc.n	8000670 <__gesf2+0x48>
 80006a0:	2000      	movs	r0, #0
 80006a2:	e7de      	b.n	8000662 <__gesf2+0x3a>
 80006a4:	4243      	negs	r3, r0
 80006a6:	4158      	adcs	r0, r3
 80006a8:	0040      	lsls	r0, r0, #1
 80006aa:	3801      	subs	r0, #1
 80006ac:	e7d9      	b.n	8000662 <__gesf2+0x3a>
 80006ae:	2002      	movs	r0, #2
 80006b0:	4240      	negs	r0, r0
 80006b2:	e7d6      	b.n	8000662 <__gesf2+0x3a>

080006b4 <__lesf2>:
 80006b4:	b570      	push	{r4, r5, r6, lr}
 80006b6:	0042      	lsls	r2, r0, #1
 80006b8:	0245      	lsls	r5, r0, #9
 80006ba:	024e      	lsls	r6, r1, #9
 80006bc:	004c      	lsls	r4, r1, #1
 80006be:	0fc3      	lsrs	r3, r0, #31
 80006c0:	0a6d      	lsrs	r5, r5, #9
 80006c2:	0e12      	lsrs	r2, r2, #24
 80006c4:	0a76      	lsrs	r6, r6, #9
 80006c6:	0e24      	lsrs	r4, r4, #24
 80006c8:	0fc8      	lsrs	r0, r1, #31
 80006ca:	2aff      	cmp	r2, #255	; 0xff
 80006cc:	d00b      	beq.n	80006e6 <__lesf2+0x32>
 80006ce:	2cff      	cmp	r4, #255	; 0xff
 80006d0:	d00d      	beq.n	80006ee <__lesf2+0x3a>
 80006d2:	2a00      	cmp	r2, #0
 80006d4:	d11f      	bne.n	8000716 <__lesf2+0x62>
 80006d6:	2c00      	cmp	r4, #0
 80006d8:	d116      	bne.n	8000708 <__lesf2+0x54>
 80006da:	2e00      	cmp	r6, #0
 80006dc:	d114      	bne.n	8000708 <__lesf2+0x54>
 80006de:	2000      	movs	r0, #0
 80006e0:	2d00      	cmp	r5, #0
 80006e2:	d010      	beq.n	8000706 <__lesf2+0x52>
 80006e4:	e009      	b.n	80006fa <__lesf2+0x46>
 80006e6:	2d00      	cmp	r5, #0
 80006e8:	d10c      	bne.n	8000704 <__lesf2+0x50>
 80006ea:	2cff      	cmp	r4, #255	; 0xff
 80006ec:	d113      	bne.n	8000716 <__lesf2+0x62>
 80006ee:	2e00      	cmp	r6, #0
 80006f0:	d108      	bne.n	8000704 <__lesf2+0x50>
 80006f2:	2a00      	cmp	r2, #0
 80006f4:	d008      	beq.n	8000708 <__lesf2+0x54>
 80006f6:	4283      	cmp	r3, r0
 80006f8:	d012      	beq.n	8000720 <__lesf2+0x6c>
 80006fa:	2102      	movs	r1, #2
 80006fc:	1e58      	subs	r0, r3, #1
 80006fe:	4008      	ands	r0, r1
 8000700:	3801      	subs	r0, #1
 8000702:	e000      	b.n	8000706 <__lesf2+0x52>
 8000704:	2002      	movs	r0, #2
 8000706:	bd70      	pop	{r4, r5, r6, pc}
 8000708:	2d00      	cmp	r5, #0
 800070a:	d1f4      	bne.n	80006f6 <__lesf2+0x42>
 800070c:	2800      	cmp	r0, #0
 800070e:	d1fa      	bne.n	8000706 <__lesf2+0x52>
 8000710:	2001      	movs	r0, #1
 8000712:	4240      	negs	r0, r0
 8000714:	e7f7      	b.n	8000706 <__lesf2+0x52>
 8000716:	2c00      	cmp	r4, #0
 8000718:	d1ed      	bne.n	80006f6 <__lesf2+0x42>
 800071a:	2e00      	cmp	r6, #0
 800071c:	d1eb      	bne.n	80006f6 <__lesf2+0x42>
 800071e:	e7ec      	b.n	80006fa <__lesf2+0x46>
 8000720:	42a2      	cmp	r2, r4
 8000722:	dc05      	bgt.n	8000730 <__lesf2+0x7c>
 8000724:	dbf2      	blt.n	800070c <__lesf2+0x58>
 8000726:	42b5      	cmp	r5, r6
 8000728:	d802      	bhi.n	8000730 <__lesf2+0x7c>
 800072a:	d3ef      	bcc.n	800070c <__lesf2+0x58>
 800072c:	2000      	movs	r0, #0
 800072e:	e7ea      	b.n	8000706 <__lesf2+0x52>
 8000730:	4243      	negs	r3, r0
 8000732:	4158      	adcs	r0, r3
 8000734:	0040      	lsls	r0, r0, #1
 8000736:	3801      	subs	r0, #1
 8000738:	e7e5      	b.n	8000706 <__lesf2+0x52>
 800073a:	46c0      	nop			; (mov r8, r8)

0800073c <__aeabi_fmul>:
 800073c:	b5f0      	push	{r4, r5, r6, r7, lr}
 800073e:	464f      	mov	r7, r9
 8000740:	4646      	mov	r6, r8
 8000742:	46d6      	mov	lr, sl
 8000744:	0244      	lsls	r4, r0, #9
 8000746:	0045      	lsls	r5, r0, #1
 8000748:	b5c0      	push	{r6, r7, lr}
 800074a:	0a64      	lsrs	r4, r4, #9
 800074c:	1c0f      	adds	r7, r1, #0
 800074e:	0e2d      	lsrs	r5, r5, #24
 8000750:	0fc6      	lsrs	r6, r0, #31
 8000752:	2d00      	cmp	r5, #0
 8000754:	d100      	bne.n	8000758 <__aeabi_fmul+0x1c>
 8000756:	e08d      	b.n	8000874 <__aeabi_fmul+0x138>
 8000758:	2dff      	cmp	r5, #255	; 0xff
 800075a:	d100      	bne.n	800075e <__aeabi_fmul+0x22>
 800075c:	e092      	b.n	8000884 <__aeabi_fmul+0x148>
 800075e:	2300      	movs	r3, #0
 8000760:	2080      	movs	r0, #128	; 0x80
 8000762:	4699      	mov	r9, r3
 8000764:	469a      	mov	sl, r3
 8000766:	00e4      	lsls	r4, r4, #3
 8000768:	04c0      	lsls	r0, r0, #19
 800076a:	4304      	orrs	r4, r0
 800076c:	3d7f      	subs	r5, #127	; 0x7f
 800076e:	0278      	lsls	r0, r7, #9
 8000770:	0a43      	lsrs	r3, r0, #9
 8000772:	4698      	mov	r8, r3
 8000774:	007b      	lsls	r3, r7, #1
 8000776:	0e1b      	lsrs	r3, r3, #24
 8000778:	0fff      	lsrs	r7, r7, #31
 800077a:	2b00      	cmp	r3, #0
 800077c:	d100      	bne.n	8000780 <__aeabi_fmul+0x44>
 800077e:	e070      	b.n	8000862 <__aeabi_fmul+0x126>
 8000780:	2bff      	cmp	r3, #255	; 0xff
 8000782:	d100      	bne.n	8000786 <__aeabi_fmul+0x4a>
 8000784:	e086      	b.n	8000894 <__aeabi_fmul+0x158>
 8000786:	4642      	mov	r2, r8
 8000788:	00d0      	lsls	r0, r2, #3
 800078a:	2280      	movs	r2, #128	; 0x80
 800078c:	3b7f      	subs	r3, #127	; 0x7f
 800078e:	18ed      	adds	r5, r5, r3
 8000790:	2300      	movs	r3, #0
 8000792:	04d2      	lsls	r2, r2, #19
 8000794:	4302      	orrs	r2, r0
 8000796:	4690      	mov	r8, r2
 8000798:	469c      	mov	ip, r3
 800079a:	0031      	movs	r1, r6
 800079c:	464b      	mov	r3, r9
 800079e:	4079      	eors	r1, r7
 80007a0:	1c68      	adds	r0, r5, #1
 80007a2:	2b0f      	cmp	r3, #15
 80007a4:	d81c      	bhi.n	80007e0 <__aeabi_fmul+0xa4>
 80007a6:	4a76      	ldr	r2, [pc, #472]	; (8000980 <__aeabi_fmul+0x244>)
 80007a8:	009b      	lsls	r3, r3, #2
 80007aa:	58d3      	ldr	r3, [r2, r3]
 80007ac:	469f      	mov	pc, r3
 80007ae:	0039      	movs	r1, r7
 80007b0:	4644      	mov	r4, r8
 80007b2:	46e2      	mov	sl, ip
 80007b4:	4653      	mov	r3, sl
 80007b6:	2b02      	cmp	r3, #2
 80007b8:	d00f      	beq.n	80007da <__aeabi_fmul+0x9e>
 80007ba:	2b03      	cmp	r3, #3
 80007bc:	d100      	bne.n	80007c0 <__aeabi_fmul+0x84>
 80007be:	e0d7      	b.n	8000970 <__aeabi_fmul+0x234>
 80007c0:	2b01      	cmp	r3, #1
 80007c2:	d137      	bne.n	8000834 <__aeabi_fmul+0xf8>
 80007c4:	2000      	movs	r0, #0
 80007c6:	2400      	movs	r4, #0
 80007c8:	05c0      	lsls	r0, r0, #23
 80007ca:	4320      	orrs	r0, r4
 80007cc:	07c9      	lsls	r1, r1, #31
 80007ce:	4308      	orrs	r0, r1
 80007d0:	bce0      	pop	{r5, r6, r7}
 80007d2:	46ba      	mov	sl, r7
 80007d4:	46b1      	mov	r9, r6
 80007d6:	46a8      	mov	r8, r5
 80007d8:	bdf0      	pop	{r4, r5, r6, r7, pc}
 80007da:	20ff      	movs	r0, #255	; 0xff
 80007dc:	2400      	movs	r4, #0
 80007de:	e7f3      	b.n	80007c8 <__aeabi_fmul+0x8c>
 80007e0:	0c26      	lsrs	r6, r4, #16
 80007e2:	0424      	lsls	r4, r4, #16
 80007e4:	0c22      	lsrs	r2, r4, #16
 80007e6:	4644      	mov	r4, r8
 80007e8:	0424      	lsls	r4, r4, #16
 80007ea:	0c24      	lsrs	r4, r4, #16
 80007ec:	4643      	mov	r3, r8
 80007ee:	0027      	movs	r7, r4
 80007f0:	0c1b      	lsrs	r3, r3, #16
 80007f2:	4357      	muls	r7, r2
 80007f4:	4374      	muls	r4, r6
 80007f6:	435a      	muls	r2, r3
 80007f8:	435e      	muls	r6, r3
 80007fa:	1912      	adds	r2, r2, r4
 80007fc:	0c3b      	lsrs	r3, r7, #16
 80007fe:	189b      	adds	r3, r3, r2
 8000800:	429c      	cmp	r4, r3
 8000802:	d903      	bls.n	800080c <__aeabi_fmul+0xd0>
 8000804:	2280      	movs	r2, #128	; 0x80
 8000806:	0252      	lsls	r2, r2, #9
 8000808:	4694      	mov	ip, r2
 800080a:	4466      	add	r6, ip
 800080c:	043f      	lsls	r7, r7, #16
 800080e:	041a      	lsls	r2, r3, #16
 8000810:	0c3f      	lsrs	r7, r7, #16
 8000812:	19d2      	adds	r2, r2, r7
 8000814:	0194      	lsls	r4, r2, #6
 8000816:	1e67      	subs	r7, r4, #1
 8000818:	41bc      	sbcs	r4, r7
 800081a:	0c1b      	lsrs	r3, r3, #16
 800081c:	0e92      	lsrs	r2, r2, #26
 800081e:	199b      	adds	r3, r3, r6
 8000820:	4314      	orrs	r4, r2
 8000822:	019b      	lsls	r3, r3, #6
 8000824:	431c      	orrs	r4, r3
 8000826:	011b      	lsls	r3, r3, #4
 8000828:	d400      	bmi.n	800082c <__aeabi_fmul+0xf0>
 800082a:	e09b      	b.n	8000964 <__aeabi_fmul+0x228>
 800082c:	2301      	movs	r3, #1
 800082e:	0862      	lsrs	r2, r4, #1
 8000830:	401c      	ands	r4, r3
 8000832:	4314      	orrs	r4, r2
 8000834:	0002      	movs	r2, r0
 8000836:	327f      	adds	r2, #127	; 0x7f
 8000838:	2a00      	cmp	r2, #0
 800083a:	dd64      	ble.n	8000906 <__aeabi_fmul+0x1ca>
 800083c:	0763      	lsls	r3, r4, #29
 800083e:	d004      	beq.n	800084a <__aeabi_fmul+0x10e>
 8000840:	230f      	movs	r3, #15
 8000842:	4023      	ands	r3, r4
 8000844:	2b04      	cmp	r3, #4
 8000846:	d000      	beq.n	800084a <__aeabi_fmul+0x10e>
 8000848:	3404      	adds	r4, #4
 800084a:	0123      	lsls	r3, r4, #4
 800084c:	d503      	bpl.n	8000856 <__aeabi_fmul+0x11a>
 800084e:	0002      	movs	r2, r0
 8000850:	4b4c      	ldr	r3, [pc, #304]	; (8000984 <__aeabi_fmul+0x248>)
 8000852:	3280      	adds	r2, #128	; 0x80
 8000854:	401c      	ands	r4, r3
 8000856:	2afe      	cmp	r2, #254	; 0xfe
 8000858:	dcbf      	bgt.n	80007da <__aeabi_fmul+0x9e>
 800085a:	01a4      	lsls	r4, r4, #6
 800085c:	0a64      	lsrs	r4, r4, #9
 800085e:	b2d0      	uxtb	r0, r2
 8000860:	e7b2      	b.n	80007c8 <__aeabi_fmul+0x8c>
 8000862:	4643      	mov	r3, r8
 8000864:	2b00      	cmp	r3, #0
 8000866:	d13d      	bne.n	80008e4 <__aeabi_fmul+0x1a8>
 8000868:	464a      	mov	r2, r9
 800086a:	3301      	adds	r3, #1
 800086c:	431a      	orrs	r2, r3
 800086e:	4691      	mov	r9, r2
 8000870:	469c      	mov	ip, r3
 8000872:	e792      	b.n	800079a <__aeabi_fmul+0x5e>
 8000874:	2c00      	cmp	r4, #0
 8000876:	d129      	bne.n	80008cc <__aeabi_fmul+0x190>
 8000878:	2304      	movs	r3, #4
 800087a:	4699      	mov	r9, r3
 800087c:	3b03      	subs	r3, #3
 800087e:	2500      	movs	r5, #0
 8000880:	469a      	mov	sl, r3
 8000882:	e774      	b.n	800076e <__aeabi_fmul+0x32>
 8000884:	2c00      	cmp	r4, #0
 8000886:	d11b      	bne.n	80008c0 <__aeabi_fmul+0x184>
 8000888:	2308      	movs	r3, #8
 800088a:	4699      	mov	r9, r3
 800088c:	3b06      	subs	r3, #6
 800088e:	25ff      	movs	r5, #255	; 0xff
 8000890:	469a      	mov	sl, r3
 8000892:	e76c      	b.n	800076e <__aeabi_fmul+0x32>
 8000894:	4643      	mov	r3, r8
 8000896:	35ff      	adds	r5, #255	; 0xff
 8000898:	2b00      	cmp	r3, #0
 800089a:	d10b      	bne.n	80008b4 <__aeabi_fmul+0x178>
 800089c:	2302      	movs	r3, #2
 800089e:	464a      	mov	r2, r9
 80008a0:	431a      	orrs	r2, r3
 80008a2:	4691      	mov	r9, r2
 80008a4:	469c      	mov	ip, r3
 80008a6:	e778      	b.n	800079a <__aeabi_fmul+0x5e>
 80008a8:	4653      	mov	r3, sl
 80008aa:	0031      	movs	r1, r6
 80008ac:	2b02      	cmp	r3, #2
 80008ae:	d000      	beq.n	80008b2 <__aeabi_fmul+0x176>
 80008b0:	e783      	b.n	80007ba <__aeabi_fmul+0x7e>
 80008b2:	e792      	b.n	80007da <__aeabi_fmul+0x9e>
 80008b4:	2303      	movs	r3, #3
 80008b6:	464a      	mov	r2, r9
 80008b8:	431a      	orrs	r2, r3
 80008ba:	4691      	mov	r9, r2
 80008bc:	469c      	mov	ip, r3
 80008be:	e76c      	b.n	800079a <__aeabi_fmul+0x5e>
 80008c0:	230c      	movs	r3, #12
 80008c2:	4699      	mov	r9, r3
 80008c4:	3b09      	subs	r3, #9
 80008c6:	25ff      	movs	r5, #255	; 0xff
 80008c8:	469a      	mov	sl, r3
 80008ca:	e750      	b.n	800076e <__aeabi_fmul+0x32>
 80008cc:	0020      	movs	r0, r4
 80008ce:	f000 fe83 	bl	80015d8 <__clzsi2>
 80008d2:	2576      	movs	r5, #118	; 0x76
 80008d4:	1f43      	subs	r3, r0, #5
 80008d6:	409c      	lsls	r4, r3
 80008d8:	2300      	movs	r3, #0
 80008da:	426d      	negs	r5, r5
 80008dc:	4699      	mov	r9, r3
 80008de:	469a      	mov	sl, r3
 80008e0:	1a2d      	subs	r5, r5, r0
 80008e2:	e744      	b.n	800076e <__aeabi_fmul+0x32>
 80008e4:	4640      	mov	r0, r8
 80008e6:	f000 fe77 	bl	80015d8 <__clzsi2>
 80008ea:	4642      	mov	r2, r8
 80008ec:	1f43      	subs	r3, r0, #5
 80008ee:	409a      	lsls	r2, r3
 80008f0:	2300      	movs	r3, #0
 80008f2:	1a2d      	subs	r5, r5, r0
 80008f4:	4690      	mov	r8, r2
 80008f6:	469c      	mov	ip, r3
 80008f8:	3d76      	subs	r5, #118	; 0x76
 80008fa:	e74e      	b.n	800079a <__aeabi_fmul+0x5e>
 80008fc:	2480      	movs	r4, #128	; 0x80
 80008fe:	2100      	movs	r1, #0
 8000900:	20ff      	movs	r0, #255	; 0xff
 8000902:	03e4      	lsls	r4, r4, #15
 8000904:	e760      	b.n	80007c8 <__aeabi_fmul+0x8c>
 8000906:	2301      	movs	r3, #1
 8000908:	1a9b      	subs	r3, r3, r2
 800090a:	2b1b      	cmp	r3, #27
 800090c:	dd00      	ble.n	8000910 <__aeabi_fmul+0x1d4>
 800090e:	e759      	b.n	80007c4 <__aeabi_fmul+0x88>
 8000910:	0022      	movs	r2, r4
 8000912:	309e      	adds	r0, #158	; 0x9e
 8000914:	40da      	lsrs	r2, r3
 8000916:	4084      	lsls	r4, r0
 8000918:	0013      	movs	r3, r2
 800091a:	1e62      	subs	r2, r4, #1
 800091c:	4194      	sbcs	r4, r2
 800091e:	431c      	orrs	r4, r3
 8000920:	0763      	lsls	r3, r4, #29
 8000922:	d004      	beq.n	800092e <__aeabi_fmul+0x1f2>
 8000924:	230f      	movs	r3, #15
 8000926:	4023      	ands	r3, r4
 8000928:	2b04      	cmp	r3, #4
 800092a:	d000      	beq.n	800092e <__aeabi_fmul+0x1f2>
 800092c:	3404      	adds	r4, #4
 800092e:	0163      	lsls	r3, r4, #5
 8000930:	d51a      	bpl.n	8000968 <__aeabi_fmul+0x22c>
 8000932:	2001      	movs	r0, #1
 8000934:	2400      	movs	r4, #0
 8000936:	e747      	b.n	80007c8 <__aeabi_fmul+0x8c>
 8000938:	2080      	movs	r0, #128	; 0x80
 800093a:	03c0      	lsls	r0, r0, #15
 800093c:	4204      	tst	r4, r0
 800093e:	d009      	beq.n	8000954 <__aeabi_fmul+0x218>
 8000940:	4643      	mov	r3, r8
 8000942:	4203      	tst	r3, r0
 8000944:	d106      	bne.n	8000954 <__aeabi_fmul+0x218>
 8000946:	4644      	mov	r4, r8
 8000948:	4304      	orrs	r4, r0
 800094a:	0264      	lsls	r4, r4, #9
 800094c:	0039      	movs	r1, r7
 800094e:	20ff      	movs	r0, #255	; 0xff
 8000950:	0a64      	lsrs	r4, r4, #9
 8000952:	e739      	b.n	80007c8 <__aeabi_fmul+0x8c>
 8000954:	2080      	movs	r0, #128	; 0x80
 8000956:	03c0      	lsls	r0, r0, #15
 8000958:	4304      	orrs	r4, r0
 800095a:	0264      	lsls	r4, r4, #9
 800095c:	0031      	movs	r1, r6
 800095e:	20ff      	movs	r0, #255	; 0xff
 8000960:	0a64      	lsrs	r4, r4, #9
 8000962:	e731      	b.n	80007c8 <__aeabi_fmul+0x8c>
 8000964:	0028      	movs	r0, r5
 8000966:	e765      	b.n	8000834 <__aeabi_fmul+0xf8>
 8000968:	01a4      	lsls	r4, r4, #6
 800096a:	2000      	movs	r0, #0
 800096c:	0a64      	lsrs	r4, r4, #9
 800096e:	e72b      	b.n	80007c8 <__aeabi_fmul+0x8c>
 8000970:	2080      	movs	r0, #128	; 0x80
 8000972:	03c0      	lsls	r0, r0, #15
 8000974:	4304      	orrs	r4, r0
 8000976:	0264      	lsls	r4, r4, #9
 8000978:	20ff      	movs	r0, #255	; 0xff
 800097a:	0a64      	lsrs	r4, r4, #9
 800097c:	e724      	b.n	80007c8 <__aeabi_fmul+0x8c>
 800097e:	46c0      	nop			; (mov r8, r8)
 8000980:	080049f8 	.word	0x080049f8
 8000984:	f7ffffff 	.word	0xf7ffffff

08000988 <__aeabi_fsub>:
 8000988:	b5f8      	push	{r3, r4, r5, r6, r7, lr}
 800098a:	46ce      	mov	lr, r9
 800098c:	4647      	mov	r7, r8
 800098e:	0243      	lsls	r3, r0, #9
 8000990:	0a5b      	lsrs	r3, r3, #9
 8000992:	024e      	lsls	r6, r1, #9
 8000994:	00da      	lsls	r2, r3, #3
 8000996:	4694      	mov	ip, r2
 8000998:	0a72      	lsrs	r2, r6, #9
 800099a:	4691      	mov	r9, r2
 800099c:	0045      	lsls	r5, r0, #1
 800099e:	004a      	lsls	r2, r1, #1
 80009a0:	b580      	push	{r7, lr}
 80009a2:	0e2d      	lsrs	r5, r5, #24
 80009a4:	001f      	movs	r7, r3
 80009a6:	0fc4      	lsrs	r4, r0, #31
 80009a8:	0e12      	lsrs	r2, r2, #24
 80009aa:	0fc9      	lsrs	r1, r1, #31
 80009ac:	09b6      	lsrs	r6, r6, #6
 80009ae:	2aff      	cmp	r2, #255	; 0xff
 80009b0:	d05b      	beq.n	8000a6a <__aeabi_fsub+0xe2>
 80009b2:	2001      	movs	r0, #1
 80009b4:	4041      	eors	r1, r0
 80009b6:	428c      	cmp	r4, r1
 80009b8:	d039      	beq.n	8000a2e <__aeabi_fsub+0xa6>
 80009ba:	1aa8      	subs	r0, r5, r2
 80009bc:	2800      	cmp	r0, #0
 80009be:	dd5a      	ble.n	8000a76 <__aeabi_fsub+0xee>
 80009c0:	2a00      	cmp	r2, #0
 80009c2:	d06a      	beq.n	8000a9a <__aeabi_fsub+0x112>
 80009c4:	2dff      	cmp	r5, #255	; 0xff
 80009c6:	d100      	bne.n	80009ca <__aeabi_fsub+0x42>
 80009c8:	e0d9      	b.n	8000b7e <__aeabi_fsub+0x1f6>
 80009ca:	2280      	movs	r2, #128	; 0x80
 80009cc:	04d2      	lsls	r2, r2, #19
 80009ce:	4316      	orrs	r6, r2
 80009d0:	281b      	cmp	r0, #27
 80009d2:	dc00      	bgt.n	80009d6 <__aeabi_fsub+0x4e>
 80009d4:	e0e9      	b.n	8000baa <__aeabi_fsub+0x222>
 80009d6:	2001      	movs	r0, #1
 80009d8:	4663      	mov	r3, ip
 80009da:	1a18      	subs	r0, r3, r0
 80009dc:	0143      	lsls	r3, r0, #5
 80009de:	d400      	bmi.n	80009e2 <__aeabi_fsub+0x5a>
 80009e0:	e0b4      	b.n	8000b4c <__aeabi_fsub+0x1c4>
 80009e2:	0180      	lsls	r0, r0, #6
 80009e4:	0987      	lsrs	r7, r0, #6
 80009e6:	0038      	movs	r0, r7
 80009e8:	f000 fdf6 	bl	80015d8 <__clzsi2>
 80009ec:	3805      	subs	r0, #5
 80009ee:	4087      	lsls	r7, r0
 80009f0:	4285      	cmp	r5, r0
 80009f2:	dc00      	bgt.n	80009f6 <__aeabi_fsub+0x6e>
 80009f4:	e0cc      	b.n	8000b90 <__aeabi_fsub+0x208>
 80009f6:	1a2d      	subs	r5, r5, r0
 80009f8:	48b5      	ldr	r0, [pc, #724]	; (8000cd0 <__aeabi_fsub+0x348>)
 80009fa:	4038      	ands	r0, r7
 80009fc:	0743      	lsls	r3, r0, #29
 80009fe:	d004      	beq.n	8000a0a <__aeabi_fsub+0x82>
 8000a00:	230f      	movs	r3, #15
 8000a02:	4003      	ands	r3, r0
 8000a04:	2b04      	cmp	r3, #4
 8000a06:	d000      	beq.n	8000a0a <__aeabi_fsub+0x82>
 8000a08:	3004      	adds	r0, #4
 8000a0a:	0143      	lsls	r3, r0, #5
 8000a0c:	d400      	bmi.n	8000a10 <__aeabi_fsub+0x88>
 8000a0e:	e0a0      	b.n	8000b52 <__aeabi_fsub+0x1ca>
 8000a10:	1c6a      	adds	r2, r5, #1
 8000a12:	2dfe      	cmp	r5, #254	; 0xfe
 8000a14:	d100      	bne.n	8000a18 <__aeabi_fsub+0x90>
 8000a16:	e08d      	b.n	8000b34 <__aeabi_fsub+0x1ac>
 8000a18:	0180      	lsls	r0, r0, #6
 8000a1a:	0a47      	lsrs	r7, r0, #9
 8000a1c:	b2d2      	uxtb	r2, r2
 8000a1e:	05d0      	lsls	r0, r2, #23
 8000a20:	4338      	orrs	r0, r7
 8000a22:	07e4      	lsls	r4, r4, #31
 8000a24:	4320      	orrs	r0, r4
 8000a26:	bcc0      	pop	{r6, r7}
 8000a28:	46b9      	mov	r9, r7
 8000a2a:	46b0      	mov	r8, r6
 8000a2c:	bdf8      	pop	{r3, r4, r5, r6, r7, pc}
 8000a2e:	1aa8      	subs	r0, r5, r2
 8000a30:	4680      	mov	r8, r0
 8000a32:	2800      	cmp	r0, #0
 8000a34:	dd45      	ble.n	8000ac2 <__aeabi_fsub+0x13a>
 8000a36:	2a00      	cmp	r2, #0
 8000a38:	d070      	beq.n	8000b1c <__aeabi_fsub+0x194>
 8000a3a:	2dff      	cmp	r5, #255	; 0xff
 8000a3c:	d100      	bne.n	8000a40 <__aeabi_fsub+0xb8>
 8000a3e:	e09e      	b.n	8000b7e <__aeabi_fsub+0x1f6>
 8000a40:	2380      	movs	r3, #128	; 0x80
 8000a42:	04db      	lsls	r3, r3, #19
 8000a44:	431e      	orrs	r6, r3
 8000a46:	4643      	mov	r3, r8
 8000a48:	2b1b      	cmp	r3, #27
 8000a4a:	dc00      	bgt.n	8000a4e <__aeabi_fsub+0xc6>
 8000a4c:	e0d2      	b.n	8000bf4 <__aeabi_fsub+0x26c>
 8000a4e:	2001      	movs	r0, #1
 8000a50:	4460      	add	r0, ip
 8000a52:	0143      	lsls	r3, r0, #5
 8000a54:	d57a      	bpl.n	8000b4c <__aeabi_fsub+0x1c4>
 8000a56:	3501      	adds	r5, #1
 8000a58:	2dff      	cmp	r5, #255	; 0xff
 8000a5a:	d06b      	beq.n	8000b34 <__aeabi_fsub+0x1ac>
 8000a5c:	2301      	movs	r3, #1
 8000a5e:	4a9d      	ldr	r2, [pc, #628]	; (8000cd4 <__aeabi_fsub+0x34c>)
 8000a60:	4003      	ands	r3, r0
 8000a62:	0840      	lsrs	r0, r0, #1
 8000a64:	4010      	ands	r0, r2
 8000a66:	4318      	orrs	r0, r3
 8000a68:	e7c8      	b.n	80009fc <__aeabi_fsub+0x74>
 8000a6a:	2e00      	cmp	r6, #0
 8000a6c:	d020      	beq.n	8000ab0 <__aeabi_fsub+0x128>
 8000a6e:	428c      	cmp	r4, r1
 8000a70:	d023      	beq.n	8000aba <__aeabi_fsub+0x132>
 8000a72:	0028      	movs	r0, r5
 8000a74:	38ff      	subs	r0, #255	; 0xff
 8000a76:	2800      	cmp	r0, #0
 8000a78:	d039      	beq.n	8000aee <__aeabi_fsub+0x166>
 8000a7a:	1b57      	subs	r7, r2, r5
 8000a7c:	2d00      	cmp	r5, #0
 8000a7e:	d000      	beq.n	8000a82 <__aeabi_fsub+0xfa>
 8000a80:	e09d      	b.n	8000bbe <__aeabi_fsub+0x236>
 8000a82:	4663      	mov	r3, ip
 8000a84:	2b00      	cmp	r3, #0
 8000a86:	d100      	bne.n	8000a8a <__aeabi_fsub+0x102>
 8000a88:	e0db      	b.n	8000c42 <__aeabi_fsub+0x2ba>
 8000a8a:	1e7b      	subs	r3, r7, #1
 8000a8c:	2f01      	cmp	r7, #1
 8000a8e:	d100      	bne.n	8000a92 <__aeabi_fsub+0x10a>
 8000a90:	e10d      	b.n	8000cae <__aeabi_fsub+0x326>
 8000a92:	2fff      	cmp	r7, #255	; 0xff
 8000a94:	d071      	beq.n	8000b7a <__aeabi_fsub+0x1f2>
 8000a96:	001f      	movs	r7, r3
 8000a98:	e098      	b.n	8000bcc <__aeabi_fsub+0x244>
 8000a9a:	2e00      	cmp	r6, #0
 8000a9c:	d100      	bne.n	8000aa0 <__aeabi_fsub+0x118>
 8000a9e:	e0a7      	b.n	8000bf0 <__aeabi_fsub+0x268>
 8000aa0:	1e42      	subs	r2, r0, #1
 8000aa2:	2801      	cmp	r0, #1
 8000aa4:	d100      	bne.n	8000aa8 <__aeabi_fsub+0x120>
 8000aa6:	e0e6      	b.n	8000c76 <__aeabi_fsub+0x2ee>
 8000aa8:	28ff      	cmp	r0, #255	; 0xff
 8000aaa:	d068      	beq.n	8000b7e <__aeabi_fsub+0x1f6>
 8000aac:	0010      	movs	r0, r2
 8000aae:	e78f      	b.n	80009d0 <__aeabi_fsub+0x48>
 8000ab0:	2001      	movs	r0, #1
 8000ab2:	4041      	eors	r1, r0
 8000ab4:	42a1      	cmp	r1, r4
 8000ab6:	d000      	beq.n	8000aba <__aeabi_fsub+0x132>
 8000ab8:	e77f      	b.n	80009ba <__aeabi_fsub+0x32>
 8000aba:	20ff      	movs	r0, #255	; 0xff
 8000abc:	4240      	negs	r0, r0
 8000abe:	4680      	mov	r8, r0
 8000ac0:	44a8      	add	r8, r5
 8000ac2:	4640      	mov	r0, r8
 8000ac4:	2800      	cmp	r0, #0
 8000ac6:	d038      	beq.n	8000b3a <__aeabi_fsub+0x1b2>
 8000ac8:	1b51      	subs	r1, r2, r5
 8000aca:	2d00      	cmp	r5, #0
 8000acc:	d100      	bne.n	8000ad0 <__aeabi_fsub+0x148>
 8000ace:	e0ae      	b.n	8000c2e <__aeabi_fsub+0x2a6>
 8000ad0:	2aff      	cmp	r2, #255	; 0xff
 8000ad2:	d100      	bne.n	8000ad6 <__aeabi_fsub+0x14e>
 8000ad4:	e0df      	b.n	8000c96 <__aeabi_fsub+0x30e>
 8000ad6:	2380      	movs	r3, #128	; 0x80
 8000ad8:	4660      	mov	r0, ip
 8000ada:	04db      	lsls	r3, r3, #19
 8000adc:	4318      	orrs	r0, r3
 8000ade:	4684      	mov	ip, r0
 8000ae0:	291b      	cmp	r1, #27
 8000ae2:	dc00      	bgt.n	8000ae6 <__aeabi_fsub+0x15e>
 8000ae4:	e0d9      	b.n	8000c9a <__aeabi_fsub+0x312>
 8000ae6:	2001      	movs	r0, #1
 8000ae8:	0015      	movs	r5, r2
 8000aea:	1980      	adds	r0, r0, r6
 8000aec:	e7b1      	b.n	8000a52 <__aeabi_fsub+0xca>
 8000aee:	20fe      	movs	r0, #254	; 0xfe
 8000af0:	1c6a      	adds	r2, r5, #1
 8000af2:	4210      	tst	r0, r2
 8000af4:	d171      	bne.n	8000bda <__aeabi_fsub+0x252>
 8000af6:	2d00      	cmp	r5, #0
 8000af8:	d000      	beq.n	8000afc <__aeabi_fsub+0x174>
 8000afa:	e0a6      	b.n	8000c4a <__aeabi_fsub+0x2c2>
 8000afc:	4663      	mov	r3, ip
 8000afe:	2b00      	cmp	r3, #0
 8000b00:	d100      	bne.n	8000b04 <__aeabi_fsub+0x17c>
 8000b02:	e0d9      	b.n	8000cb8 <__aeabi_fsub+0x330>
 8000b04:	2200      	movs	r2, #0
 8000b06:	2e00      	cmp	r6, #0
 8000b08:	d100      	bne.n	8000b0c <__aeabi_fsub+0x184>
 8000b0a:	e788      	b.n	8000a1e <__aeabi_fsub+0x96>
 8000b0c:	1b98      	subs	r0, r3, r6
 8000b0e:	0143      	lsls	r3, r0, #5
 8000b10:	d400      	bmi.n	8000b14 <__aeabi_fsub+0x18c>
 8000b12:	e0e1      	b.n	8000cd8 <__aeabi_fsub+0x350>
 8000b14:	4663      	mov	r3, ip
 8000b16:	000c      	movs	r4, r1
 8000b18:	1af0      	subs	r0, r6, r3
 8000b1a:	e76f      	b.n	80009fc <__aeabi_fsub+0x74>
 8000b1c:	2e00      	cmp	r6, #0
 8000b1e:	d100      	bne.n	8000b22 <__aeabi_fsub+0x19a>
 8000b20:	e0b7      	b.n	8000c92 <__aeabi_fsub+0x30a>
 8000b22:	0002      	movs	r2, r0
 8000b24:	3a01      	subs	r2, #1
 8000b26:	2801      	cmp	r0, #1
 8000b28:	d100      	bne.n	8000b2c <__aeabi_fsub+0x1a4>
 8000b2a:	e09c      	b.n	8000c66 <__aeabi_fsub+0x2de>
 8000b2c:	28ff      	cmp	r0, #255	; 0xff
 8000b2e:	d026      	beq.n	8000b7e <__aeabi_fsub+0x1f6>
 8000b30:	4690      	mov	r8, r2
 8000b32:	e788      	b.n	8000a46 <__aeabi_fsub+0xbe>
 8000b34:	22ff      	movs	r2, #255	; 0xff
 8000b36:	2700      	movs	r7, #0
 8000b38:	e771      	b.n	8000a1e <__aeabi_fsub+0x96>
 8000b3a:	20fe      	movs	r0, #254	; 0xfe
 8000b3c:	1c6a      	adds	r2, r5, #1
 8000b3e:	4210      	tst	r0, r2
 8000b40:	d064      	beq.n	8000c0c <__aeabi_fsub+0x284>
 8000b42:	2aff      	cmp	r2, #255	; 0xff
 8000b44:	d0f6      	beq.n	8000b34 <__aeabi_fsub+0x1ac>
 8000b46:	0015      	movs	r5, r2
 8000b48:	4466      	add	r6, ip
 8000b4a:	0870      	lsrs	r0, r6, #1
 8000b4c:	0743      	lsls	r3, r0, #29
 8000b4e:	d000      	beq.n	8000b52 <__aeabi_fsub+0x1ca>
 8000b50:	e756      	b.n	8000a00 <__aeabi_fsub+0x78>
 8000b52:	08c3      	lsrs	r3, r0, #3
 8000b54:	2dff      	cmp	r5, #255	; 0xff
 8000b56:	d012      	beq.n	8000b7e <__aeabi_fsub+0x1f6>
 8000b58:	025b      	lsls	r3, r3, #9
 8000b5a:	0a5f      	lsrs	r7, r3, #9
 8000b5c:	b2ea      	uxtb	r2, r5
 8000b5e:	e75e      	b.n	8000a1e <__aeabi_fsub+0x96>
 8000b60:	4662      	mov	r2, ip
 8000b62:	2a00      	cmp	r2, #0
 8000b64:	d100      	bne.n	8000b68 <__aeabi_fsub+0x1e0>
 8000b66:	e096      	b.n	8000c96 <__aeabi_fsub+0x30e>
 8000b68:	2e00      	cmp	r6, #0
 8000b6a:	d008      	beq.n	8000b7e <__aeabi_fsub+0x1f6>
 8000b6c:	2280      	movs	r2, #128	; 0x80
 8000b6e:	03d2      	lsls	r2, r2, #15
 8000b70:	4213      	tst	r3, r2
 8000b72:	d004      	beq.n	8000b7e <__aeabi_fsub+0x1f6>
 8000b74:	4648      	mov	r0, r9
 8000b76:	4210      	tst	r0, r2
 8000b78:	d101      	bne.n	8000b7e <__aeabi_fsub+0x1f6>
 8000b7a:	000c      	movs	r4, r1
 8000b7c:	464b      	mov	r3, r9
 8000b7e:	2b00      	cmp	r3, #0
 8000b80:	d0d8      	beq.n	8000b34 <__aeabi_fsub+0x1ac>
 8000b82:	2780      	movs	r7, #128	; 0x80
 8000b84:	03ff      	lsls	r7, r7, #15
 8000b86:	431f      	orrs	r7, r3
 8000b88:	027f      	lsls	r7, r7, #9
 8000b8a:	22ff      	movs	r2, #255	; 0xff
 8000b8c:	0a7f      	lsrs	r7, r7, #9
 8000b8e:	e746      	b.n	8000a1e <__aeabi_fsub+0x96>
 8000b90:	2320      	movs	r3, #32
 8000b92:	003a      	movs	r2, r7
 8000b94:	1b45      	subs	r5, r0, r5
 8000b96:	0038      	movs	r0, r7
 8000b98:	3501      	adds	r5, #1
 8000b9a:	40ea      	lsrs	r2, r5
 8000b9c:	1b5d      	subs	r5, r3, r5
 8000b9e:	40a8      	lsls	r0, r5
 8000ba0:	1e43      	subs	r3, r0, #1
 8000ba2:	4198      	sbcs	r0, r3
 8000ba4:	2500      	movs	r5, #0
 8000ba6:	4310      	orrs	r0, r2
 8000ba8:	e728      	b.n	80009fc <__aeabi_fsub+0x74>
 8000baa:	2320      	movs	r3, #32
 8000bac:	1a1b      	subs	r3, r3, r0
 8000bae:	0032      	movs	r2, r6
 8000bb0:	409e      	lsls	r6, r3
 8000bb2:	40c2      	lsrs	r2, r0
 8000bb4:	0030      	movs	r0, r6
 8000bb6:	1e43      	subs	r3, r0, #1
 8000bb8:	4198      	sbcs	r0, r3
 8000bba:	4310      	orrs	r0, r2
 8000bbc:	e70c      	b.n	80009d8 <__aeabi_fsub+0x50>
 8000bbe:	2aff      	cmp	r2, #255	; 0xff
 8000bc0:	d0db      	beq.n	8000b7a <__aeabi_fsub+0x1f2>
 8000bc2:	2380      	movs	r3, #128	; 0x80
 8000bc4:	4660      	mov	r0, ip
 8000bc6:	04db      	lsls	r3, r3, #19
 8000bc8:	4318      	orrs	r0, r3
 8000bca:	4684      	mov	ip, r0
 8000bcc:	2f1b      	cmp	r7, #27
 8000bce:	dd56      	ble.n	8000c7e <__aeabi_fsub+0x2f6>
 8000bd0:	2001      	movs	r0, #1
 8000bd2:	000c      	movs	r4, r1
 8000bd4:	0015      	movs	r5, r2
 8000bd6:	1a30      	subs	r0, r6, r0
 8000bd8:	e700      	b.n	80009dc <__aeabi_fsub+0x54>
 8000bda:	4663      	mov	r3, ip
 8000bdc:	1b9f      	subs	r7, r3, r6
 8000bde:	017b      	lsls	r3, r7, #5
 8000be0:	d43d      	bmi.n	8000c5e <__aeabi_fsub+0x2d6>
 8000be2:	2f00      	cmp	r7, #0
 8000be4:	d000      	beq.n	8000be8 <__aeabi_fsub+0x260>
 8000be6:	e6fe      	b.n	80009e6 <__aeabi_fsub+0x5e>
 8000be8:	2400      	movs	r4, #0
 8000bea:	2200      	movs	r2, #0
 8000bec:	2700      	movs	r7, #0
 8000bee:	e716      	b.n	8000a1e <__aeabi_fsub+0x96>
 8000bf0:	0005      	movs	r5, r0
 8000bf2:	e7af      	b.n	8000b54 <__aeabi_fsub+0x1cc>
 8000bf4:	0032      	movs	r2, r6
 8000bf6:	4643      	mov	r3, r8
 8000bf8:	4641      	mov	r1, r8
 8000bfa:	40da      	lsrs	r2, r3
 8000bfc:	2320      	movs	r3, #32
 8000bfe:	1a5b      	subs	r3, r3, r1
 8000c00:	409e      	lsls	r6, r3
 8000c02:	0030      	movs	r0, r6
 8000c04:	1e43      	subs	r3, r0, #1
 8000c06:	4198      	sbcs	r0, r3
 8000c08:	4310      	orrs	r0, r2
 8000c0a:	e721      	b.n	8000a50 <__aeabi_fsub+0xc8>
 8000c0c:	2d00      	cmp	r5, #0
 8000c0e:	d1a7      	bne.n	8000b60 <__aeabi_fsub+0x1d8>
 8000c10:	4663      	mov	r3, ip
 8000c12:	2b00      	cmp	r3, #0
 8000c14:	d059      	beq.n	8000cca <__aeabi_fsub+0x342>
 8000c16:	2200      	movs	r2, #0
 8000c18:	2e00      	cmp	r6, #0
 8000c1a:	d100      	bne.n	8000c1e <__aeabi_fsub+0x296>
 8000c1c:	e6ff      	b.n	8000a1e <__aeabi_fsub+0x96>
 8000c1e:	0030      	movs	r0, r6
 8000c20:	4460      	add	r0, ip
 8000c22:	0143      	lsls	r3, r0, #5
 8000c24:	d592      	bpl.n	8000b4c <__aeabi_fsub+0x1c4>
 8000c26:	4b2a      	ldr	r3, [pc, #168]	; (8000cd0 <__aeabi_fsub+0x348>)
 8000c28:	3501      	adds	r5, #1
 8000c2a:	4018      	ands	r0, r3
 8000c2c:	e78e      	b.n	8000b4c <__aeabi_fsub+0x1c4>
 8000c2e:	4663      	mov	r3, ip
 8000c30:	2b00      	cmp	r3, #0
 8000c32:	d047      	beq.n	8000cc4 <__aeabi_fsub+0x33c>
 8000c34:	1e4b      	subs	r3, r1, #1
 8000c36:	2901      	cmp	r1, #1
 8000c38:	d015      	beq.n	8000c66 <__aeabi_fsub+0x2de>
 8000c3a:	29ff      	cmp	r1, #255	; 0xff
 8000c3c:	d02b      	beq.n	8000c96 <__aeabi_fsub+0x30e>
 8000c3e:	0019      	movs	r1, r3
 8000c40:	e74e      	b.n	8000ae0 <__aeabi_fsub+0x158>
 8000c42:	000c      	movs	r4, r1
 8000c44:	464b      	mov	r3, r9
 8000c46:	003d      	movs	r5, r7
 8000c48:	e784      	b.n	8000b54 <__aeabi_fsub+0x1cc>
 8000c4a:	4662      	mov	r2, ip
 8000c4c:	2a00      	cmp	r2, #0
 8000c4e:	d18b      	bne.n	8000b68 <__aeabi_fsub+0x1e0>
 8000c50:	2e00      	cmp	r6, #0
 8000c52:	d192      	bne.n	8000b7a <__aeabi_fsub+0x1f2>
 8000c54:	2780      	movs	r7, #128	; 0x80
 8000c56:	2400      	movs	r4, #0
 8000c58:	22ff      	movs	r2, #255	; 0xff
 8000c5a:	03ff      	lsls	r7, r7, #15
 8000c5c:	e6df      	b.n	8000a1e <__aeabi_fsub+0x96>
 8000c5e:	4663      	mov	r3, ip
 8000c60:	000c      	movs	r4, r1
 8000c62:	1af7      	subs	r7, r6, r3
 8000c64:	e6bf      	b.n	80009e6 <__aeabi_fsub+0x5e>
 8000c66:	0030      	movs	r0, r6
 8000c68:	4460      	add	r0, ip
 8000c6a:	2501      	movs	r5, #1
 8000c6c:	0143      	lsls	r3, r0, #5
 8000c6e:	d400      	bmi.n	8000c72 <__aeabi_fsub+0x2ea>
 8000c70:	e76c      	b.n	8000b4c <__aeabi_fsub+0x1c4>
 8000c72:	2502      	movs	r5, #2
 8000c74:	e6f2      	b.n	8000a5c <__aeabi_fsub+0xd4>
 8000c76:	4663      	mov	r3, ip
 8000c78:	2501      	movs	r5, #1
 8000c7a:	1b98      	subs	r0, r3, r6
 8000c7c:	e6ae      	b.n	80009dc <__aeabi_fsub+0x54>
 8000c7e:	2320      	movs	r3, #32
 8000c80:	4664      	mov	r4, ip
 8000c82:	4660      	mov	r0, ip
 8000c84:	40fc      	lsrs	r4, r7
 8000c86:	1bdf      	subs	r7, r3, r7
 8000c88:	40b8      	lsls	r0, r7
 8000c8a:	1e43      	subs	r3, r0, #1
 8000c8c:	4198      	sbcs	r0, r3
 8000c8e:	4320      	orrs	r0, r4
 8000c90:	e79f      	b.n	8000bd2 <__aeabi_fsub+0x24a>
 8000c92:	0005      	movs	r5, r0
 8000c94:	e75e      	b.n	8000b54 <__aeabi_fsub+0x1cc>
 8000c96:	464b      	mov	r3, r9
 8000c98:	e771      	b.n	8000b7e <__aeabi_fsub+0x1f6>
 8000c9a:	2320      	movs	r3, #32
 8000c9c:	4665      	mov	r5, ip
 8000c9e:	4660      	mov	r0, ip
 8000ca0:	40cd      	lsrs	r5, r1
 8000ca2:	1a59      	subs	r1, r3, r1
 8000ca4:	4088      	lsls	r0, r1
 8000ca6:	1e43      	subs	r3, r0, #1
 8000ca8:	4198      	sbcs	r0, r3
 8000caa:	4328      	orrs	r0, r5
 8000cac:	e71c      	b.n	8000ae8 <__aeabi_fsub+0x160>
 8000cae:	4663      	mov	r3, ip
 8000cb0:	000c      	movs	r4, r1
 8000cb2:	2501      	movs	r5, #1
 8000cb4:	1af0      	subs	r0, r6, r3
 8000cb6:	e691      	b.n	80009dc <__aeabi_fsub+0x54>
 8000cb8:	2e00      	cmp	r6, #0
 8000cba:	d095      	beq.n	8000be8 <__aeabi_fsub+0x260>
 8000cbc:	000c      	movs	r4, r1
 8000cbe:	464f      	mov	r7, r9
 8000cc0:	2200      	movs	r2, #0
 8000cc2:	e6ac      	b.n	8000a1e <__aeabi_fsub+0x96>
 8000cc4:	464b      	mov	r3, r9
 8000cc6:	000d      	movs	r5, r1
 8000cc8:	e744      	b.n	8000b54 <__aeabi_fsub+0x1cc>
 8000cca:	464f      	mov	r7, r9
 8000ccc:	2200      	movs	r2, #0
 8000cce:	e6a6      	b.n	8000a1e <__aeabi_fsub+0x96>
 8000cd0:	fbffffff 	.word	0xfbffffff
 8000cd4:	7dffffff 	.word	0x7dffffff
 8000cd8:	2800      	cmp	r0, #0
 8000cda:	d000      	beq.n	8000cde <__aeabi_fsub+0x356>
 8000cdc:	e736      	b.n	8000b4c <__aeabi_fsub+0x1c4>
 8000cde:	2400      	movs	r4, #0
 8000ce0:	2700      	movs	r7, #0
 8000ce2:	e69c      	b.n	8000a1e <__aeabi_fsub+0x96>

08000ce4 <__aeabi_f2iz>:
 8000ce4:	0241      	lsls	r1, r0, #9
 8000ce6:	0042      	lsls	r2, r0, #1
 8000ce8:	0fc3      	lsrs	r3, r0, #31
 8000cea:	0a49      	lsrs	r1, r1, #9
 8000cec:	2000      	movs	r0, #0
 8000cee:	0e12      	lsrs	r2, r2, #24
 8000cf0:	2a7e      	cmp	r2, #126	; 0x7e
 8000cf2:	dd03      	ble.n	8000cfc <__aeabi_f2iz+0x18>
 8000cf4:	2a9d      	cmp	r2, #157	; 0x9d
 8000cf6:	dd02      	ble.n	8000cfe <__aeabi_f2iz+0x1a>
 8000cf8:	4a09      	ldr	r2, [pc, #36]	; (8000d20 <__aeabi_f2iz+0x3c>)
 8000cfa:	1898      	adds	r0, r3, r2
 8000cfc:	4770      	bx	lr
 8000cfe:	2080      	movs	r0, #128	; 0x80
 8000d00:	0400      	lsls	r0, r0, #16
 8000d02:	4301      	orrs	r1, r0
 8000d04:	2a95      	cmp	r2, #149	; 0x95
 8000d06:	dc07      	bgt.n	8000d18 <__aeabi_f2iz+0x34>
 8000d08:	2096      	movs	r0, #150	; 0x96
 8000d0a:	1a82      	subs	r2, r0, r2
 8000d0c:	40d1      	lsrs	r1, r2
 8000d0e:	4248      	negs	r0, r1
 8000d10:	2b00      	cmp	r3, #0
 8000d12:	d1f3      	bne.n	8000cfc <__aeabi_f2iz+0x18>
 8000d14:	0008      	movs	r0, r1
 8000d16:	e7f1      	b.n	8000cfc <__aeabi_f2iz+0x18>
 8000d18:	3a96      	subs	r2, #150	; 0x96
 8000d1a:	4091      	lsls	r1, r2
 8000d1c:	e7f7      	b.n	8000d0e <__aeabi_f2iz+0x2a>
 8000d1e:	46c0      	nop			; (mov r8, r8)
 8000d20:	7fffffff 	.word	0x7fffffff

08000d24 <__aeabi_i2f>:
 8000d24:	b5f8      	push	{r3, r4, r5, r6, r7, lr}
 8000d26:	2800      	cmp	r0, #0
 8000d28:	d013      	beq.n	8000d52 <__aeabi_i2f+0x2e>
 8000d2a:	17c3      	asrs	r3, r0, #31
 8000d2c:	18c6      	adds	r6, r0, r3
 8000d2e:	405e      	eors	r6, r3
 8000d30:	0fc4      	lsrs	r4, r0, #31
 8000d32:	0030      	movs	r0, r6
 8000d34:	f000 fc50 	bl	80015d8 <__clzsi2>
 8000d38:	239e      	movs	r3, #158	; 0x9e
 8000d3a:	0005      	movs	r5, r0
 8000d3c:	1a1b      	subs	r3, r3, r0
 8000d3e:	2b96      	cmp	r3, #150	; 0x96
 8000d40:	dc0f      	bgt.n	8000d62 <__aeabi_i2f+0x3e>
 8000d42:	2808      	cmp	r0, #8
 8000d44:	dd01      	ble.n	8000d4a <__aeabi_i2f+0x26>
 8000d46:	3d08      	subs	r5, #8
 8000d48:	40ae      	lsls	r6, r5
 8000d4a:	0276      	lsls	r6, r6, #9
 8000d4c:	0a76      	lsrs	r6, r6, #9
 8000d4e:	b2d8      	uxtb	r0, r3
 8000d50:	e002      	b.n	8000d58 <__aeabi_i2f+0x34>
 8000d52:	2400      	movs	r4, #0
 8000d54:	2000      	movs	r0, #0
 8000d56:	2600      	movs	r6, #0
 8000d58:	05c0      	lsls	r0, r0, #23
 8000d5a:	4330      	orrs	r0, r6
 8000d5c:	07e4      	lsls	r4, r4, #31
 8000d5e:	4320      	orrs	r0, r4
 8000d60:	bdf8      	pop	{r3, r4, r5, r6, r7, pc}
 8000d62:	2b99      	cmp	r3, #153	; 0x99
 8000d64:	dd0c      	ble.n	8000d80 <__aeabi_i2f+0x5c>
 8000d66:	2205      	movs	r2, #5
 8000d68:	0031      	movs	r1, r6
 8000d6a:	1a12      	subs	r2, r2, r0
 8000d6c:	40d1      	lsrs	r1, r2
 8000d6e:	000a      	movs	r2, r1
 8000d70:	0001      	movs	r1, r0
 8000d72:	0030      	movs	r0, r6
 8000d74:	311b      	adds	r1, #27
 8000d76:	4088      	lsls	r0, r1
 8000d78:	1e41      	subs	r1, r0, #1
 8000d7a:	4188      	sbcs	r0, r1
 8000d7c:	4302      	orrs	r2, r0
 8000d7e:	0016      	movs	r6, r2
 8000d80:	2d05      	cmp	r5, #5
 8000d82:	dc12      	bgt.n	8000daa <__aeabi_i2f+0x86>
 8000d84:	0031      	movs	r1, r6
 8000d86:	4f0d      	ldr	r7, [pc, #52]	; (8000dbc <__aeabi_i2f+0x98>)
 8000d88:	4039      	ands	r1, r7
 8000d8a:	0772      	lsls	r2, r6, #29
 8000d8c:	d009      	beq.n	8000da2 <__aeabi_i2f+0x7e>
 8000d8e:	200f      	movs	r0, #15
 8000d90:	4030      	ands	r0, r6
 8000d92:	2804      	cmp	r0, #4
 8000d94:	d005      	beq.n	8000da2 <__aeabi_i2f+0x7e>
 8000d96:	3104      	adds	r1, #4
 8000d98:	014a      	lsls	r2, r1, #5
 8000d9a:	d502      	bpl.n	8000da2 <__aeabi_i2f+0x7e>
 8000d9c:	239f      	movs	r3, #159	; 0x9f
 8000d9e:	4039      	ands	r1, r7
 8000da0:	1b5b      	subs	r3, r3, r5
 8000da2:	0189      	lsls	r1, r1, #6
 8000da4:	0a4e      	lsrs	r6, r1, #9
 8000da6:	b2d8      	uxtb	r0, r3
 8000da8:	e7d6      	b.n	8000d58 <__aeabi_i2f+0x34>
 8000daa:	1f6a      	subs	r2, r5, #5
 8000dac:	4096      	lsls	r6, r2
 8000dae:	0031      	movs	r1, r6
 8000db0:	4f02      	ldr	r7, [pc, #8]	; (8000dbc <__aeabi_i2f+0x98>)
 8000db2:	4039      	ands	r1, r7
 8000db4:	0772      	lsls	r2, r6, #29
 8000db6:	d0f4      	beq.n	8000da2 <__aeabi_i2f+0x7e>
 8000db8:	e7e9      	b.n	8000d8e <__aeabi_i2f+0x6a>
 8000dba:	46c0      	nop			; (mov r8, r8)
 8000dbc:	fbffffff 	.word	0xfbffffff

08000dc0 <__aeabi_dadd>:
 8000dc0:	b5f0      	push	{r4, r5, r6, r7, lr}
 8000dc2:	464f      	mov	r7, r9
 8000dc4:	4646      	mov	r6, r8
 8000dc6:	46d6      	mov	lr, sl
 8000dc8:	000d      	movs	r5, r1
 8000dca:	0004      	movs	r4, r0
 8000dcc:	b5c0      	push	{r6, r7, lr}
 8000dce:	001f      	movs	r7, r3
 8000dd0:	0011      	movs	r1, r2
 8000dd2:	0328      	lsls	r0, r5, #12
 8000dd4:	0f62      	lsrs	r2, r4, #29
 8000dd6:	0a40      	lsrs	r0, r0, #9
 8000dd8:	4310      	orrs	r0, r2
 8000dda:	007a      	lsls	r2, r7, #1
 8000ddc:	0d52      	lsrs	r2, r2, #21
 8000dde:	00e3      	lsls	r3, r4, #3
 8000de0:	033c      	lsls	r4, r7, #12
 8000de2:	4691      	mov	r9, r2
 8000de4:	0a64      	lsrs	r4, r4, #9
 8000de6:	0ffa      	lsrs	r2, r7, #31
 8000de8:	0f4f      	lsrs	r7, r1, #29
 8000dea:	006e      	lsls	r6, r5, #1
 8000dec:	4327      	orrs	r7, r4
 8000dee:	4692      	mov	sl, r2
 8000df0:	46b8      	mov	r8, r7
 8000df2:	0d76      	lsrs	r6, r6, #21
 8000df4:	0fed      	lsrs	r5, r5, #31
 8000df6:	00c9      	lsls	r1, r1, #3
 8000df8:	4295      	cmp	r5, r2
 8000dfa:	d100      	bne.n	8000dfe <__aeabi_dadd+0x3e>
 8000dfc:	e099      	b.n	8000f32 <__aeabi_dadd+0x172>
 8000dfe:	464c      	mov	r4, r9
 8000e00:	1b34      	subs	r4, r6, r4
 8000e02:	46a4      	mov	ip, r4
 8000e04:	2c00      	cmp	r4, #0
 8000e06:	dc00      	bgt.n	8000e0a <__aeabi_dadd+0x4a>
 8000e08:	e07c      	b.n	8000f04 <__aeabi_dadd+0x144>
 8000e0a:	464a      	mov	r2, r9
 8000e0c:	2a00      	cmp	r2, #0
 8000e0e:	d100      	bne.n	8000e12 <__aeabi_dadd+0x52>
 8000e10:	e0b8      	b.n	8000f84 <__aeabi_dadd+0x1c4>
 8000e12:	4ac5      	ldr	r2, [pc, #788]	; (8001128 <__aeabi_dadd+0x368>)
 8000e14:	4296      	cmp	r6, r2
 8000e16:	d100      	bne.n	8000e1a <__aeabi_dadd+0x5a>
 8000e18:	e11c      	b.n	8001054 <__aeabi_dadd+0x294>
 8000e1a:	2280      	movs	r2, #128	; 0x80
 8000e1c:	003c      	movs	r4, r7
 8000e1e:	0412      	lsls	r2, r2, #16
 8000e20:	4314      	orrs	r4, r2
 8000e22:	46a0      	mov	r8, r4
 8000e24:	4662      	mov	r2, ip
 8000e26:	2a38      	cmp	r2, #56	; 0x38
 8000e28:	dd00      	ble.n	8000e2c <__aeabi_dadd+0x6c>
 8000e2a:	e161      	b.n	80010f0 <__aeabi_dadd+0x330>
 8000e2c:	2a1f      	cmp	r2, #31
 8000e2e:	dd00      	ble.n	8000e32 <__aeabi_dadd+0x72>
 8000e30:	e1cc      	b.n	80011cc <__aeabi_dadd+0x40c>
 8000e32:	4664      	mov	r4, ip
 8000e34:	2220      	movs	r2, #32
 8000e36:	1b12      	subs	r2, r2, r4
 8000e38:	4644      	mov	r4, r8
 8000e3a:	4094      	lsls	r4, r2
 8000e3c:	000f      	movs	r7, r1
 8000e3e:	46a1      	mov	r9, r4
 8000e40:	4664      	mov	r4, ip
 8000e42:	4091      	lsls	r1, r2
 8000e44:	40e7      	lsrs	r7, r4
 8000e46:	464c      	mov	r4, r9
 8000e48:	1e4a      	subs	r2, r1, #1
 8000e4a:	4191      	sbcs	r1, r2
 8000e4c:	433c      	orrs	r4, r7
 8000e4e:	4642      	mov	r2, r8
 8000e50:	4321      	orrs	r1, r4
 8000e52:	4664      	mov	r4, ip
 8000e54:	40e2      	lsrs	r2, r4
 8000e56:	1a80      	subs	r0, r0, r2
 8000e58:	1a5c      	subs	r4, r3, r1
 8000e5a:	42a3      	cmp	r3, r4
 8000e5c:	419b      	sbcs	r3, r3
 8000e5e:	425f      	negs	r7, r3
 8000e60:	1bc7      	subs	r7, r0, r7
 8000e62:	023b      	lsls	r3, r7, #8
 8000e64:	d400      	bmi.n	8000e68 <__aeabi_dadd+0xa8>
 8000e66:	e0d0      	b.n	800100a <__aeabi_dadd+0x24a>
 8000e68:	027f      	lsls	r7, r7, #9
 8000e6a:	0a7f      	lsrs	r7, r7, #9
 8000e6c:	2f00      	cmp	r7, #0
 8000e6e:	d100      	bne.n	8000e72 <__aeabi_dadd+0xb2>
 8000e70:	e0ff      	b.n	8001072 <__aeabi_dadd+0x2b2>
 8000e72:	0038      	movs	r0, r7
 8000e74:	f000 fbb0 	bl	80015d8 <__clzsi2>
 8000e78:	0001      	movs	r1, r0
 8000e7a:	3908      	subs	r1, #8
 8000e7c:	2320      	movs	r3, #32
 8000e7e:	0022      	movs	r2, r4
 8000e80:	1a5b      	subs	r3, r3, r1
 8000e82:	408f      	lsls	r7, r1
 8000e84:	40da      	lsrs	r2, r3
 8000e86:	408c      	lsls	r4, r1
 8000e88:	4317      	orrs	r7, r2
 8000e8a:	42b1      	cmp	r1, r6
 8000e8c:	da00      	bge.n	8000e90 <__aeabi_dadd+0xd0>
 8000e8e:	e0ff      	b.n	8001090 <__aeabi_dadd+0x2d0>
 8000e90:	1b89      	subs	r1, r1, r6
 8000e92:	1c4b      	adds	r3, r1, #1
 8000e94:	2b1f      	cmp	r3, #31
 8000e96:	dd00      	ble.n	8000e9a <__aeabi_dadd+0xda>
 8000e98:	e0a8      	b.n	8000fec <__aeabi_dadd+0x22c>
 8000e9a:	2220      	movs	r2, #32
 8000e9c:	0039      	movs	r1, r7
 8000e9e:	1ad2      	subs	r2, r2, r3
 8000ea0:	0020      	movs	r0, r4
 8000ea2:	4094      	lsls	r4, r2
 8000ea4:	4091      	lsls	r1, r2
 8000ea6:	40d8      	lsrs	r0, r3
 8000ea8:	1e62      	subs	r2, r4, #1
 8000eaa:	4194      	sbcs	r4, r2
 8000eac:	40df      	lsrs	r7, r3
 8000eae:	2600      	movs	r6, #0
 8000eb0:	4301      	orrs	r1, r0
 8000eb2:	430c      	orrs	r4, r1
 8000eb4:	0763      	lsls	r3, r4, #29
 8000eb6:	d009      	beq.n	8000ecc <__aeabi_dadd+0x10c>
 8000eb8:	230f      	movs	r3, #15
 8000eba:	4023      	ands	r3, r4
 8000ebc:	2b04      	cmp	r3, #4
 8000ebe:	d005      	beq.n	8000ecc <__aeabi_dadd+0x10c>
 8000ec0:	1d23      	adds	r3, r4, #4
 8000ec2:	42a3      	cmp	r3, r4
 8000ec4:	41a4      	sbcs	r4, r4
 8000ec6:	4264      	negs	r4, r4
 8000ec8:	193f      	adds	r7, r7, r4
 8000eca:	001c      	movs	r4, r3
 8000ecc:	023b      	lsls	r3, r7, #8
 8000ece:	d400      	bmi.n	8000ed2 <__aeabi_dadd+0x112>
 8000ed0:	e09e      	b.n	8001010 <__aeabi_dadd+0x250>
 8000ed2:	4b95      	ldr	r3, [pc, #596]	; (8001128 <__aeabi_dadd+0x368>)
 8000ed4:	3601      	adds	r6, #1
 8000ed6:	429e      	cmp	r6, r3
 8000ed8:	d100      	bne.n	8000edc <__aeabi_dadd+0x11c>
 8000eda:	e0b7      	b.n	800104c <__aeabi_dadd+0x28c>
 8000edc:	4a93      	ldr	r2, [pc, #588]	; (800112c <__aeabi_dadd+0x36c>)
 8000ede:	08e4      	lsrs	r4, r4, #3
 8000ee0:	4017      	ands	r7, r2
 8000ee2:	077b      	lsls	r3, r7, #29
 8000ee4:	0571      	lsls	r1, r6, #21
 8000ee6:	027f      	lsls	r7, r7, #9
 8000ee8:	4323      	orrs	r3, r4
 8000eea:	0b3f      	lsrs	r7, r7, #12
 8000eec:	0d4a      	lsrs	r2, r1, #21
 8000eee:	0512      	lsls	r2, r2, #20
 8000ef0:	433a      	orrs	r2, r7
 8000ef2:	07ed      	lsls	r5, r5, #31
 8000ef4:	432a      	orrs	r2, r5
 8000ef6:	0018      	movs	r0, r3
 8000ef8:	0011      	movs	r1, r2
 8000efa:	bce0      	pop	{r5, r6, r7}
 8000efc:	46ba      	mov	sl, r7
 8000efe:	46b1      	mov	r9, r6
 8000f00:	46a8      	mov	r8, r5
 8000f02:	bdf0      	pop	{r4, r5, r6, r7, pc}
 8000f04:	2c00      	cmp	r4, #0
 8000f06:	d04b      	beq.n	8000fa0 <__aeabi_dadd+0x1e0>
 8000f08:	464c      	mov	r4, r9
 8000f0a:	1ba4      	subs	r4, r4, r6
 8000f0c:	46a4      	mov	ip, r4
 8000f0e:	2e00      	cmp	r6, #0
 8000f10:	d000      	beq.n	8000f14 <__aeabi_dadd+0x154>
 8000f12:	e123      	b.n	800115c <__aeabi_dadd+0x39c>
 8000f14:	0004      	movs	r4, r0
 8000f16:	431c      	orrs	r4, r3
 8000f18:	d100      	bne.n	8000f1c <__aeabi_dadd+0x15c>
 8000f1a:	e1af      	b.n	800127c <__aeabi_dadd+0x4bc>
 8000f1c:	4662      	mov	r2, ip
 8000f1e:	1e54      	subs	r4, r2, #1
 8000f20:	2a01      	cmp	r2, #1
 8000f22:	d100      	bne.n	8000f26 <__aeabi_dadd+0x166>
 8000f24:	e215      	b.n	8001352 <__aeabi_dadd+0x592>
 8000f26:	4d80      	ldr	r5, [pc, #512]	; (8001128 <__aeabi_dadd+0x368>)
 8000f28:	45ac      	cmp	ip, r5
 8000f2a:	d100      	bne.n	8000f2e <__aeabi_dadd+0x16e>
 8000f2c:	e1c8      	b.n	80012c0 <__aeabi_dadd+0x500>
 8000f2e:	46a4      	mov	ip, r4
 8000f30:	e11b      	b.n	800116a <__aeabi_dadd+0x3aa>
 8000f32:	464a      	mov	r2, r9
 8000f34:	1ab2      	subs	r2, r6, r2
 8000f36:	4694      	mov	ip, r2
 8000f38:	2a00      	cmp	r2, #0
 8000f3a:	dc00      	bgt.n	8000f3e <__aeabi_dadd+0x17e>
 8000f3c:	e0ac      	b.n	8001098 <__aeabi_dadd+0x2d8>
 8000f3e:	464a      	mov	r2, r9
 8000f40:	2a00      	cmp	r2, #0
 8000f42:	d043      	beq.n	8000fcc <__aeabi_dadd+0x20c>
 8000f44:	4a78      	ldr	r2, [pc, #480]	; (8001128 <__aeabi_dadd+0x368>)
 8000f46:	4296      	cmp	r6, r2
 8000f48:	d100      	bne.n	8000f4c <__aeabi_dadd+0x18c>
 8000f4a:	e1af      	b.n	80012ac <__aeabi_dadd+0x4ec>
 8000f4c:	2280      	movs	r2, #128	; 0x80
 8000f4e:	003c      	movs	r4, r7
 8000f50:	0412      	lsls	r2, r2, #16
 8000f52:	4314      	orrs	r4, r2
 8000f54:	46a0      	mov	r8, r4
 8000f56:	4662      	mov	r2, ip
 8000f58:	2a38      	cmp	r2, #56	; 0x38
 8000f5a:	dc67      	bgt.n	800102c <__aeabi_dadd+0x26c>
 8000f5c:	2a1f      	cmp	r2, #31
 8000f5e:	dc00      	bgt.n	8000f62 <__aeabi_dadd+0x1a2>
 8000f60:	e15f      	b.n	8001222 <__aeabi_dadd+0x462>
 8000f62:	4647      	mov	r7, r8
 8000f64:	3a20      	subs	r2, #32
 8000f66:	40d7      	lsrs	r7, r2
 8000f68:	4662      	mov	r2, ip
 8000f6a:	2a20      	cmp	r2, #32
 8000f6c:	d005      	beq.n	8000f7a <__aeabi_dadd+0x1ba>
 8000f6e:	4664      	mov	r4, ip
 8000f70:	2240      	movs	r2, #64	; 0x40
 8000f72:	1b12      	subs	r2, r2, r4
 8000f74:	4644      	mov	r4, r8
 8000f76:	4094      	lsls	r4, r2
 8000f78:	4321      	orrs	r1, r4
 8000f7a:	1e4a      	subs	r2, r1, #1
 8000f7c:	4191      	sbcs	r1, r2
 8000f7e:	000c      	movs	r4, r1
 8000f80:	433c      	orrs	r4, r7
 8000f82:	e057      	b.n	8001034 <__aeabi_dadd+0x274>
 8000f84:	003a      	movs	r2, r7
 8000f86:	430a      	orrs	r2, r1
 8000f88:	d100      	bne.n	8000f8c <__aeabi_dadd+0x1cc>
 8000f8a:	e105      	b.n	8001198 <__aeabi_dadd+0x3d8>
 8000f8c:	0022      	movs	r2, r4
 8000f8e:	3a01      	subs	r2, #1
 8000f90:	2c01      	cmp	r4, #1
 8000f92:	d100      	bne.n	8000f96 <__aeabi_dadd+0x1d6>
 8000f94:	e182      	b.n	800129c <__aeabi_dadd+0x4dc>
 8000f96:	4c64      	ldr	r4, [pc, #400]	; (8001128 <__aeabi_dadd+0x368>)
 8000f98:	45a4      	cmp	ip, r4
 8000f9a:	d05b      	beq.n	8001054 <__aeabi_dadd+0x294>
 8000f9c:	4694      	mov	ip, r2
 8000f9e:	e741      	b.n	8000e24 <__aeabi_dadd+0x64>
 8000fa0:	4c63      	ldr	r4, [pc, #396]	; (8001130 <__aeabi_dadd+0x370>)
 8000fa2:	1c77      	adds	r7, r6, #1
 8000fa4:	4227      	tst	r7, r4
 8000fa6:	d000      	beq.n	8000faa <__aeabi_dadd+0x1ea>
 8000fa8:	e0c4      	b.n	8001134 <__aeabi_dadd+0x374>
 8000faa:	0004      	movs	r4, r0
 8000fac:	431c      	orrs	r4, r3
 8000fae:	2e00      	cmp	r6, #0
 8000fb0:	d000      	beq.n	8000fb4 <__aeabi_dadd+0x1f4>
 8000fb2:	e169      	b.n	8001288 <__aeabi_dadd+0x4c8>
 8000fb4:	2c00      	cmp	r4, #0
 8000fb6:	d100      	bne.n	8000fba <__aeabi_dadd+0x1fa>
 8000fb8:	e1bf      	b.n	800133a <__aeabi_dadd+0x57a>
 8000fba:	4644      	mov	r4, r8
 8000fbc:	430c      	orrs	r4, r1
 8000fbe:	d000      	beq.n	8000fc2 <__aeabi_dadd+0x202>
 8000fc0:	e1d0      	b.n	8001364 <__aeabi_dadd+0x5a4>
 8000fc2:	0742      	lsls	r2, r0, #29
 8000fc4:	08db      	lsrs	r3, r3, #3
 8000fc6:	4313      	orrs	r3, r2
 8000fc8:	08c0      	lsrs	r0, r0, #3
 8000fca:	e029      	b.n	8001020 <__aeabi_dadd+0x260>
 8000fcc:	003a      	movs	r2, r7
 8000fce:	430a      	orrs	r2, r1
 8000fd0:	d100      	bne.n	8000fd4 <__aeabi_dadd+0x214>
 8000fd2:	e170      	b.n	80012b6 <__aeabi_dadd+0x4f6>
 8000fd4:	4662      	mov	r2, ip
 8000fd6:	4664      	mov	r4, ip
 8000fd8:	3a01      	subs	r2, #1
 8000fda:	2c01      	cmp	r4, #1
 8000fdc:	d100      	bne.n	8000fe0 <__aeabi_dadd+0x220>
 8000fde:	e0e0      	b.n	80011a2 <__aeabi_dadd+0x3e2>
 8000fe0:	4c51      	ldr	r4, [pc, #324]	; (8001128 <__aeabi_dadd+0x368>)
 8000fe2:	45a4      	cmp	ip, r4
 8000fe4:	d100      	bne.n	8000fe8 <__aeabi_dadd+0x228>
 8000fe6:	e161      	b.n	80012ac <__aeabi_dadd+0x4ec>
 8000fe8:	4694      	mov	ip, r2
 8000fea:	e7b4      	b.n	8000f56 <__aeabi_dadd+0x196>
 8000fec:	003a      	movs	r2, r7
 8000fee:	391f      	subs	r1, #31
 8000ff0:	40ca      	lsrs	r2, r1
 8000ff2:	0011      	movs	r1, r2
 8000ff4:	2b20      	cmp	r3, #32
 8000ff6:	d003      	beq.n	8001000 <__aeabi_dadd+0x240>
 8000ff8:	2240      	movs	r2, #64	; 0x40
 8000ffa:	1ad3      	subs	r3, r2, r3
 8000ffc:	409f      	lsls	r7, r3
 8000ffe:	433c      	orrs	r4, r7
 8001000:	1e63      	subs	r3, r4, #1
 8001002:	419c      	sbcs	r4, r3
 8001004:	2700      	movs	r7, #0
 8001006:	2600      	movs	r6, #0
 8001008:	430c      	orrs	r4, r1
 800100a:	0763      	lsls	r3, r4, #29
 800100c:	d000      	beq.n	8001010 <__aeabi_dadd+0x250>
 800100e:	e753      	b.n	8000eb8 <__aeabi_dadd+0xf8>
 8001010:	46b4      	mov	ip, r6
 8001012:	08e4      	lsrs	r4, r4, #3
 8001014:	077b      	lsls	r3, r7, #29
 8001016:	4323      	orrs	r3, r4
 8001018:	08f8      	lsrs	r0, r7, #3
 800101a:	4a43      	ldr	r2, [pc, #268]	; (8001128 <__aeabi_dadd+0x368>)
 800101c:	4594      	cmp	ip, r2
 800101e:	d01d      	beq.n	800105c <__aeabi_dadd+0x29c>
 8001020:	4662      	mov	r2, ip
 8001022:	0307      	lsls	r7, r0, #12
 8001024:	0552      	lsls	r2, r2, #21
 8001026:	0b3f      	lsrs	r7, r7, #12
 8001028:	0d52      	lsrs	r2, r2, #21
 800102a:	e760      	b.n	8000eee <__aeabi_dadd+0x12e>
 800102c:	4644      	mov	r4, r8
 800102e:	430c      	orrs	r4, r1
 8001030:	1e62      	subs	r2, r4, #1
 8001032:	4194      	sbcs	r4, r2
 8001034:	18e4      	adds	r4, r4, r3
 8001036:	429c      	cmp	r4, r3
 8001038:	419b      	sbcs	r3, r3
 800103a:	425f      	negs	r7, r3
 800103c:	183f      	adds	r7, r7, r0
 800103e:	023b      	lsls	r3, r7, #8
 8001040:	d5e3      	bpl.n	800100a <__aeabi_dadd+0x24a>
 8001042:	4b39      	ldr	r3, [pc, #228]	; (8001128 <__aeabi_dadd+0x368>)
 8001044:	3601      	adds	r6, #1
 8001046:	429e      	cmp	r6, r3
 8001048:	d000      	beq.n	800104c <__aeabi_dadd+0x28c>
 800104a:	e0b5      	b.n	80011b8 <__aeabi_dadd+0x3f8>
 800104c:	0032      	movs	r2, r6
 800104e:	2700      	movs	r7, #0
 8001050:	2300      	movs	r3, #0
 8001052:	e74c      	b.n	8000eee <__aeabi_dadd+0x12e>
 8001054:	0742      	lsls	r2, r0, #29
 8001056:	08db      	lsrs	r3, r3, #3
 8001058:	4313      	orrs	r3, r2
 800105a:	08c0      	lsrs	r0, r0, #3
 800105c:	001a      	movs	r2, r3
 800105e:	4302      	orrs	r2, r0
 8001060:	d100      	bne.n	8001064 <__aeabi_dadd+0x2a4>
 8001062:	e1e1      	b.n	8001428 <__aeabi_dadd+0x668>
 8001064:	2780      	movs	r7, #128	; 0x80
 8001066:	033f      	lsls	r7, r7, #12
 8001068:	4307      	orrs	r7, r0
 800106a:	033f      	lsls	r7, r7, #12
 800106c:	4a2e      	ldr	r2, [pc, #184]	; (8001128 <__aeabi_dadd+0x368>)
 800106e:	0b3f      	lsrs	r7, r7, #12
 8001070:	e73d      	b.n	8000eee <__aeabi_dadd+0x12e>
 8001072:	0020      	movs	r0, r4
 8001074:	f000 fab0 	bl	80015d8 <__clzsi2>
 8001078:	0001      	movs	r1, r0
 800107a:	3118      	adds	r1, #24
 800107c:	291f      	cmp	r1, #31
 800107e:	dc00      	bgt.n	8001082 <__aeabi_dadd+0x2c2>
 8001080:	e6fc      	b.n	8000e7c <__aeabi_dadd+0xbc>
 8001082:	3808      	subs	r0, #8
 8001084:	4084      	lsls	r4, r0
 8001086:	0027      	movs	r7, r4
 8001088:	2400      	movs	r4, #0
 800108a:	42b1      	cmp	r1, r6
 800108c:	db00      	blt.n	8001090 <__aeabi_dadd+0x2d0>
 800108e:	e6ff      	b.n	8000e90 <__aeabi_dadd+0xd0>
 8001090:	4a26      	ldr	r2, [pc, #152]	; (800112c <__aeabi_dadd+0x36c>)
 8001092:	1a76      	subs	r6, r6, r1
 8001094:	4017      	ands	r7, r2
 8001096:	e70d      	b.n	8000eb4 <__aeabi_dadd+0xf4>
 8001098:	2a00      	cmp	r2, #0
 800109a:	d02f      	beq.n	80010fc <__aeabi_dadd+0x33c>
 800109c:	464a      	mov	r2, r9
 800109e:	1b92      	subs	r2, r2, r6
 80010a0:	4694      	mov	ip, r2
 80010a2:	2e00      	cmp	r6, #0
 80010a4:	d100      	bne.n	80010a8 <__aeabi_dadd+0x2e8>
 80010a6:	e0ad      	b.n	8001204 <__aeabi_dadd+0x444>
 80010a8:	4a1f      	ldr	r2, [pc, #124]	; (8001128 <__aeabi_dadd+0x368>)
 80010aa:	4591      	cmp	r9, r2
 80010ac:	d100      	bne.n	80010b0 <__aeabi_dadd+0x2f0>
 80010ae:	e10f      	b.n	80012d0 <__aeabi_dadd+0x510>
 80010b0:	2280      	movs	r2, #128	; 0x80
 80010b2:	0412      	lsls	r2, r2, #16
 80010b4:	4310      	orrs	r0, r2
 80010b6:	4662      	mov	r2, ip
 80010b8:	2a38      	cmp	r2, #56	; 0x38
 80010ba:	dd00      	ble.n	80010be <__aeabi_dadd+0x2fe>
 80010bc:	e10f      	b.n	80012de <__aeabi_dadd+0x51e>
 80010be:	2a1f      	cmp	r2, #31
 80010c0:	dd00      	ble.n	80010c4 <__aeabi_dadd+0x304>
 80010c2:	e180      	b.n	80013c6 <__aeabi_dadd+0x606>
 80010c4:	4664      	mov	r4, ip
 80010c6:	2220      	movs	r2, #32
 80010c8:	001e      	movs	r6, r3
 80010ca:	1b12      	subs	r2, r2, r4
 80010cc:	4667      	mov	r7, ip
 80010ce:	0004      	movs	r4, r0
 80010d0:	4093      	lsls	r3, r2
 80010d2:	4094      	lsls	r4, r2
 80010d4:	40fe      	lsrs	r6, r7
 80010d6:	1e5a      	subs	r2, r3, #1
 80010d8:	4193      	sbcs	r3, r2
 80010da:	40f8      	lsrs	r0, r7
 80010dc:	4334      	orrs	r4, r6
 80010de:	431c      	orrs	r4, r3
 80010e0:	4480      	add	r8, r0
 80010e2:	1864      	adds	r4, r4, r1
 80010e4:	428c      	cmp	r4, r1
 80010e6:	41bf      	sbcs	r7, r7
 80010e8:	427f      	negs	r7, r7
 80010ea:	464e      	mov	r6, r9
 80010ec:	4447      	add	r7, r8
 80010ee:	e7a6      	b.n	800103e <__aeabi_dadd+0x27e>
 80010f0:	4642      	mov	r2, r8
 80010f2:	430a      	orrs	r2, r1
 80010f4:	0011      	movs	r1, r2
 80010f6:	1e4a      	subs	r2, r1, #1
 80010f8:	4191      	sbcs	r1, r2
 80010fa:	e6ad      	b.n	8000e58 <__aeabi_dadd+0x98>
 80010fc:	4c0c      	ldr	r4, [pc, #48]	; (8001130 <__aeabi_dadd+0x370>)
 80010fe:	1c72      	adds	r2, r6, #1
 8001100:	4222      	tst	r2, r4
 8001102:	d000      	beq.n	8001106 <__aeabi_dadd+0x346>
 8001104:	e0a1      	b.n	800124a <__aeabi_dadd+0x48a>
 8001106:	0002      	movs	r2, r0
 8001108:	431a      	orrs	r2, r3
 800110a:	2e00      	cmp	r6, #0
 800110c:	d000      	beq.n	8001110 <__aeabi_dadd+0x350>
 800110e:	e0fa      	b.n	8001306 <__aeabi_dadd+0x546>
 8001110:	2a00      	cmp	r2, #0
 8001112:	d100      	bne.n	8001116 <__aeabi_dadd+0x356>
 8001114:	e145      	b.n	80013a2 <__aeabi_dadd+0x5e2>
 8001116:	003a      	movs	r2, r7
 8001118:	430a      	orrs	r2, r1
 800111a:	d000      	beq.n	800111e <__aeabi_dadd+0x35e>
 800111c:	e146      	b.n	80013ac <__aeabi_dadd+0x5ec>
 800111e:	0742      	lsls	r2, r0, #29
 8001120:	08db      	lsrs	r3, r3, #3
 8001122:	4313      	orrs	r3, r2
 8001124:	08c0      	lsrs	r0, r0, #3
 8001126:	e77b      	b.n	8001020 <__aeabi_dadd+0x260>
 8001128:	000007ff 	.word	0x000007ff
 800112c:	ff7fffff 	.word	0xff7fffff
 8001130:	000007fe 	.word	0x000007fe
 8001134:	4647      	mov	r7, r8
 8001136:	1a5c      	subs	r4, r3, r1
 8001138:	1bc2      	subs	r2, r0, r7
 800113a:	42a3      	cmp	r3, r4
 800113c:	41bf      	sbcs	r7, r7
 800113e:	427f      	negs	r7, r7
 8001140:	46b9      	mov	r9, r7
 8001142:	0017      	movs	r7, r2
 8001144:	464a      	mov	r2, r9
 8001146:	1abf      	subs	r7, r7, r2
 8001148:	023a      	lsls	r2, r7, #8
 800114a:	d500      	bpl.n	800114e <__aeabi_dadd+0x38e>
 800114c:	e08d      	b.n	800126a <__aeabi_dadd+0x4aa>
 800114e:	0023      	movs	r3, r4
 8001150:	433b      	orrs	r3, r7
 8001152:	d000      	beq.n	8001156 <__aeabi_dadd+0x396>
 8001154:	e68a      	b.n	8000e6c <__aeabi_dadd+0xac>
 8001156:	2000      	movs	r0, #0
 8001158:	2500      	movs	r5, #0
 800115a:	e761      	b.n	8001020 <__aeabi_dadd+0x260>
 800115c:	4cb4      	ldr	r4, [pc, #720]	; (8001430 <__aeabi_dadd+0x670>)
 800115e:	45a1      	cmp	r9, r4
 8001160:	d100      	bne.n	8001164 <__aeabi_dadd+0x3a4>
 8001162:	e0ad      	b.n	80012c0 <__aeabi_dadd+0x500>
 8001164:	2480      	movs	r4, #128	; 0x80
 8001166:	0424      	lsls	r4, r4, #16
 8001168:	4320      	orrs	r0, r4
 800116a:	4664      	mov	r4, ip
 800116c:	2c38      	cmp	r4, #56	; 0x38
 800116e:	dc3d      	bgt.n	80011ec <__aeabi_dadd+0x42c>
 8001170:	4662      	mov	r2, ip
 8001172:	2c1f      	cmp	r4, #31
 8001174:	dd00      	ble.n	8001178 <__aeabi_dadd+0x3b8>
 8001176:	e0b7      	b.n	80012e8 <__aeabi_dadd+0x528>
 8001178:	2520      	movs	r5, #32
 800117a:	001e      	movs	r6, r3
 800117c:	1b2d      	subs	r5, r5, r4
 800117e:	0004      	movs	r4, r0
 8001180:	40ab      	lsls	r3, r5
 8001182:	40ac      	lsls	r4, r5
 8001184:	40d6      	lsrs	r6, r2
 8001186:	40d0      	lsrs	r0, r2
 8001188:	4642      	mov	r2, r8
 800118a:	1e5d      	subs	r5, r3, #1
 800118c:	41ab      	sbcs	r3, r5
 800118e:	4334      	orrs	r4, r6
 8001190:	1a12      	subs	r2, r2, r0
 8001192:	4690      	mov	r8, r2
 8001194:	4323      	orrs	r3, r4
 8001196:	e02c      	b.n	80011f2 <__aeabi_dadd+0x432>
 8001198:	0742      	lsls	r2, r0, #29
 800119a:	08db      	lsrs	r3, r3, #3
 800119c:	4313      	orrs	r3, r2
 800119e:	08c0      	lsrs	r0, r0, #3
 80011a0:	e73b      	b.n	800101a <__aeabi_dadd+0x25a>
 80011a2:	185c      	adds	r4, r3, r1
 80011a4:	429c      	cmp	r4, r3
 80011a6:	419b      	sbcs	r3, r3
 80011a8:	4440      	add	r0, r8
 80011aa:	425b      	negs	r3, r3
 80011ac:	18c7      	adds	r7, r0, r3
 80011ae:	2601      	movs	r6, #1
 80011b0:	023b      	lsls	r3, r7, #8
 80011b2:	d400      	bmi.n	80011b6 <__aeabi_dadd+0x3f6>
 80011b4:	e729      	b.n	800100a <__aeabi_dadd+0x24a>
 80011b6:	2602      	movs	r6, #2
 80011b8:	4a9e      	ldr	r2, [pc, #632]	; (8001434 <__aeabi_dadd+0x674>)
 80011ba:	0863      	lsrs	r3, r4, #1
 80011bc:	4017      	ands	r7, r2
 80011be:	2201      	movs	r2, #1
 80011c0:	4014      	ands	r4, r2
 80011c2:	431c      	orrs	r4, r3
 80011c4:	07fb      	lsls	r3, r7, #31
 80011c6:	431c      	orrs	r4, r3
 80011c8:	087f      	lsrs	r7, r7, #1
 80011ca:	e673      	b.n	8000eb4 <__aeabi_dadd+0xf4>
 80011cc:	4644      	mov	r4, r8
 80011ce:	3a20      	subs	r2, #32
 80011d0:	40d4      	lsrs	r4, r2
 80011d2:	4662      	mov	r2, ip
 80011d4:	2a20      	cmp	r2, #32
 80011d6:	d005      	beq.n	80011e4 <__aeabi_dadd+0x424>
 80011d8:	4667      	mov	r7, ip
 80011da:	2240      	movs	r2, #64	; 0x40
 80011dc:	1bd2      	subs	r2, r2, r7
 80011de:	4647      	mov	r7, r8
 80011e0:	4097      	lsls	r7, r2
 80011e2:	4339      	orrs	r1, r7
 80011e4:	1e4a      	subs	r2, r1, #1
 80011e6:	4191      	sbcs	r1, r2
 80011e8:	4321      	orrs	r1, r4
 80011ea:	e635      	b.n	8000e58 <__aeabi_dadd+0x98>
 80011ec:	4303      	orrs	r3, r0
 80011ee:	1e58      	subs	r0, r3, #1
 80011f0:	4183      	sbcs	r3, r0
 80011f2:	1acc      	subs	r4, r1, r3
 80011f4:	42a1      	cmp	r1, r4
 80011f6:	41bf      	sbcs	r7, r7
 80011f8:	4643      	mov	r3, r8
 80011fa:	427f      	negs	r7, r7
 80011fc:	4655      	mov	r5, sl
 80011fe:	464e      	mov	r6, r9
 8001200:	1bdf      	subs	r7, r3, r7
 8001202:	e62e      	b.n	8000e62 <__aeabi_dadd+0xa2>
 8001204:	0002      	movs	r2, r0
 8001206:	431a      	orrs	r2, r3
 8001208:	d100      	bne.n	800120c <__aeabi_dadd+0x44c>
 800120a:	e0bd      	b.n	8001388 <__aeabi_dadd+0x5c8>
 800120c:	4662      	mov	r2, ip
 800120e:	4664      	mov	r4, ip
 8001210:	3a01      	subs	r2, #1
 8001212:	2c01      	cmp	r4, #1
 8001214:	d100      	bne.n	8001218 <__aeabi_dadd+0x458>
 8001216:	e0e5      	b.n	80013e4 <__aeabi_dadd+0x624>
 8001218:	4c85      	ldr	r4, [pc, #532]	; (8001430 <__aeabi_dadd+0x670>)
 800121a:	45a4      	cmp	ip, r4
 800121c:	d058      	beq.n	80012d0 <__aeabi_dadd+0x510>
 800121e:	4694      	mov	ip, r2
 8001220:	e749      	b.n	80010b6 <__aeabi_dadd+0x2f6>
 8001222:	4664      	mov	r4, ip
 8001224:	2220      	movs	r2, #32
 8001226:	1b12      	subs	r2, r2, r4
 8001228:	4644      	mov	r4, r8
 800122a:	4094      	lsls	r4, r2
 800122c:	000f      	movs	r7, r1
 800122e:	46a1      	mov	r9, r4
 8001230:	4664      	mov	r4, ip
 8001232:	4091      	lsls	r1, r2
 8001234:	40e7      	lsrs	r7, r4
 8001236:	464c      	mov	r4, r9
 8001238:	1e4a      	subs	r2, r1, #1
 800123a:	4191      	sbcs	r1, r2
 800123c:	433c      	orrs	r4, r7
 800123e:	4642      	mov	r2, r8
 8001240:	430c      	orrs	r4, r1
 8001242:	4661      	mov	r1, ip
 8001244:	40ca      	lsrs	r2, r1
 8001246:	1880      	adds	r0, r0, r2
 8001248:	e6f4      	b.n	8001034 <__aeabi_dadd+0x274>
 800124a:	4c79      	ldr	r4, [pc, #484]	; (8001430 <__aeabi_dadd+0x670>)
 800124c:	42a2      	cmp	r2, r4
 800124e:	d100      	bne.n	8001252 <__aeabi_dadd+0x492>
 8001250:	e6fd      	b.n	800104e <__aeabi_dadd+0x28e>
 8001252:	1859      	adds	r1, r3, r1
 8001254:	4299      	cmp	r1, r3
 8001256:	419b      	sbcs	r3, r3
 8001258:	4440      	add	r0, r8
 800125a:	425f      	negs	r7, r3
 800125c:	19c7      	adds	r7, r0, r7
 800125e:	07fc      	lsls	r4, r7, #31
 8001260:	0849      	lsrs	r1, r1, #1
 8001262:	0016      	movs	r6, r2
 8001264:	430c      	orrs	r4, r1
 8001266:	087f      	lsrs	r7, r7, #1
 8001268:	e6cf      	b.n	800100a <__aeabi_dadd+0x24a>
 800126a:	1acc      	subs	r4, r1, r3
 800126c:	42a1      	cmp	r1, r4
 800126e:	41bf      	sbcs	r7, r7
 8001270:	4643      	mov	r3, r8
 8001272:	427f      	negs	r7, r7
 8001274:	1a18      	subs	r0, r3, r0
 8001276:	4655      	mov	r5, sl
 8001278:	1bc7      	subs	r7, r0, r7
 800127a:	e5f7      	b.n	8000e6c <__aeabi_dadd+0xac>
 800127c:	08c9      	lsrs	r1, r1, #3
 800127e:	077b      	lsls	r3, r7, #29
 8001280:	4655      	mov	r5, sl
 8001282:	430b      	orrs	r3, r1
 8001284:	08f8      	lsrs	r0, r7, #3
 8001286:	e6c8      	b.n	800101a <__aeabi_dadd+0x25a>
 8001288:	2c00      	cmp	r4, #0
 800128a:	d000      	beq.n	800128e <__aeabi_dadd+0x4ce>
 800128c:	e081      	b.n	8001392 <__aeabi_dadd+0x5d2>
 800128e:	4643      	mov	r3, r8
 8001290:	430b      	orrs	r3, r1
 8001292:	d115      	bne.n	80012c0 <__aeabi_dadd+0x500>
 8001294:	2080      	movs	r0, #128	; 0x80
 8001296:	2500      	movs	r5, #0
 8001298:	0300      	lsls	r0, r0, #12
 800129a:	e6e3      	b.n	8001064 <__aeabi_dadd+0x2a4>
 800129c:	1a5c      	subs	r4, r3, r1
 800129e:	42a3      	cmp	r3, r4
 80012a0:	419b      	sbcs	r3, r3
 80012a2:	1bc7      	subs	r7, r0, r7
 80012a4:	425b      	negs	r3, r3
 80012a6:	2601      	movs	r6, #1
 80012a8:	1aff      	subs	r7, r7, r3
 80012aa:	e5da      	b.n	8000e62 <__aeabi_dadd+0xa2>
 80012ac:	0742      	lsls	r2, r0, #29
 80012ae:	08db      	lsrs	r3, r3, #3
 80012b0:	4313      	orrs	r3, r2
 80012b2:	08c0      	lsrs	r0, r0, #3
 80012b4:	e6d2      	b.n	800105c <__aeabi_dadd+0x29c>
 80012b6:	0742      	lsls	r2, r0, #29
 80012b8:	08db      	lsrs	r3, r3, #3
 80012ba:	4313      	orrs	r3, r2
 80012bc:	08c0      	lsrs	r0, r0, #3
 80012be:	e6ac      	b.n	800101a <__aeabi_dadd+0x25a>
 80012c0:	4643      	mov	r3, r8
 80012c2:	4642      	mov	r2, r8
 80012c4:	08c9      	lsrs	r1, r1, #3
 80012c6:	075b      	lsls	r3, r3, #29
 80012c8:	4655      	mov	r5, sl
 80012ca:	430b      	orrs	r3, r1
 80012cc:	08d0      	lsrs	r0, r2, #3
 80012ce:	e6c5      	b.n	800105c <__aeabi_dadd+0x29c>
 80012d0:	4643      	mov	r3, r8
 80012d2:	4642      	mov	r2, r8
 80012d4:	075b      	lsls	r3, r3, #29
 80012d6:	08c9      	lsrs	r1, r1, #3
 80012d8:	430b      	orrs	r3, r1
 80012da:	08d0      	lsrs	r0, r2, #3
 80012dc:	e6be      	b.n	800105c <__aeabi_dadd+0x29c>
 80012de:	4303      	orrs	r3, r0
 80012e0:	001c      	movs	r4, r3
 80012e2:	1e63      	subs	r3, r4, #1
 80012e4:	419c      	sbcs	r4, r3
 80012e6:	e6fc      	b.n	80010e2 <__aeabi_dadd+0x322>
 80012e8:	0002      	movs	r2, r0
 80012ea:	3c20      	subs	r4, #32
 80012ec:	40e2      	lsrs	r2, r4
 80012ee:	0014      	movs	r4, r2
 80012f0:	4662      	mov	r2, ip
 80012f2:	2a20      	cmp	r2, #32
 80012f4:	d003      	beq.n	80012fe <__aeabi_dadd+0x53e>
 80012f6:	2540      	movs	r5, #64	; 0x40
 80012f8:	1aad      	subs	r5, r5, r2
 80012fa:	40a8      	lsls	r0, r5
 80012fc:	4303      	orrs	r3, r0
 80012fe:	1e58      	subs	r0, r3, #1
 8001300:	4183      	sbcs	r3, r0
 8001302:	4323      	orrs	r3, r4
 8001304:	e775      	b.n	80011f2 <__aeabi_dadd+0x432>
 8001306:	2a00      	cmp	r2, #0
 8001308:	d0e2      	beq.n	80012d0 <__aeabi_dadd+0x510>
 800130a:	003a      	movs	r2, r7
 800130c:	430a      	orrs	r2, r1
 800130e:	d0cd      	beq.n	80012ac <__aeabi_dadd+0x4ec>
 8001310:	0742      	lsls	r2, r0, #29
 8001312:	08db      	lsrs	r3, r3, #3
 8001314:	4313      	orrs	r3, r2
 8001316:	2280      	movs	r2, #128	; 0x80
 8001318:	08c0      	lsrs	r0, r0, #3
 800131a:	0312      	lsls	r2, r2, #12
 800131c:	4210      	tst	r0, r2
 800131e:	d006      	beq.n	800132e <__aeabi_dadd+0x56e>
 8001320:	08fc      	lsrs	r4, r7, #3
 8001322:	4214      	tst	r4, r2
 8001324:	d103      	bne.n	800132e <__aeabi_dadd+0x56e>
 8001326:	0020      	movs	r0, r4
 8001328:	08cb      	lsrs	r3, r1, #3
 800132a:	077a      	lsls	r2, r7, #29
 800132c:	4313      	orrs	r3, r2
 800132e:	0f5a      	lsrs	r2, r3, #29
 8001330:	00db      	lsls	r3, r3, #3
 8001332:	0752      	lsls	r2, r2, #29
 8001334:	08db      	lsrs	r3, r3, #3
 8001336:	4313      	orrs	r3, r2
 8001338:	e690      	b.n	800105c <__aeabi_dadd+0x29c>
 800133a:	4643      	mov	r3, r8
 800133c:	430b      	orrs	r3, r1
 800133e:	d100      	bne.n	8001342 <__aeabi_dadd+0x582>
 8001340:	e709      	b.n	8001156 <__aeabi_dadd+0x396>
 8001342:	4643      	mov	r3, r8
 8001344:	4642      	mov	r2, r8
 8001346:	08c9      	lsrs	r1, r1, #3
 8001348:	075b      	lsls	r3, r3, #29
 800134a:	4655      	mov	r5, sl
 800134c:	430b      	orrs	r3, r1
 800134e:	08d0      	lsrs	r0, r2, #3
 8001350:	e666      	b.n	8001020 <__aeabi_dadd+0x260>
 8001352:	1acc      	subs	r4, r1, r3
 8001354:	42a1      	cmp	r1, r4
 8001356:	4189      	sbcs	r1, r1
 8001358:	1a3f      	subs	r7, r7, r0
 800135a:	4249      	negs	r1, r1
 800135c:	4655      	mov	r5, sl
 800135e:	2601      	movs	r6, #1
 8001360:	1a7f      	subs	r7, r7, r1
 8001362:	e57e      	b.n	8000e62 <__aeabi_dadd+0xa2>
 8001364:	4642      	mov	r2, r8
 8001366:	1a5c      	subs	r4, r3, r1
 8001368:	1a87      	subs	r7, r0, r2
 800136a:	42a3      	cmp	r3, r4
 800136c:	4192      	sbcs	r2, r2
 800136e:	4252      	negs	r2, r2
 8001370:	1abf      	subs	r7, r7, r2
 8001372:	023a      	lsls	r2, r7, #8
 8001374:	d53d      	bpl.n	80013f2 <__aeabi_dadd+0x632>
 8001376:	1acc      	subs	r4, r1, r3
 8001378:	42a1      	cmp	r1, r4
 800137a:	4189      	sbcs	r1, r1
 800137c:	4643      	mov	r3, r8
 800137e:	4249      	negs	r1, r1
 8001380:	1a1f      	subs	r7, r3, r0
 8001382:	4655      	mov	r5, sl
 8001384:	1a7f      	subs	r7, r7, r1
 8001386:	e595      	b.n	8000eb4 <__aeabi_dadd+0xf4>
 8001388:	077b      	lsls	r3, r7, #29
 800138a:	08c9      	lsrs	r1, r1, #3
 800138c:	430b      	orrs	r3, r1
 800138e:	08f8      	lsrs	r0, r7, #3
 8001390:	e643      	b.n	800101a <__aeabi_dadd+0x25a>
 8001392:	4644      	mov	r4, r8
 8001394:	08db      	lsrs	r3, r3, #3
 8001396:	430c      	orrs	r4, r1
 8001398:	d130      	bne.n	80013fc <__aeabi_dadd+0x63c>
 800139a:	0742      	lsls	r2, r0, #29
 800139c:	4313      	orrs	r3, r2
 800139e:	08c0      	lsrs	r0, r0, #3
 80013a0:	e65c      	b.n	800105c <__aeabi_dadd+0x29c>
 80013a2:	077b      	lsls	r3, r7, #29
 80013a4:	08c9      	lsrs	r1, r1, #3
 80013a6:	430b      	orrs	r3, r1
 80013a8:	08f8      	lsrs	r0, r7, #3
 80013aa:	e639      	b.n	8001020 <__aeabi_dadd+0x260>
 80013ac:	185c      	adds	r4, r3, r1
 80013ae:	429c      	cmp	r4, r3
 80013b0:	419b      	sbcs	r3, r3
 80013b2:	4440      	add	r0, r8
 80013b4:	425b      	negs	r3, r3
 80013b6:	18c7      	adds	r7, r0, r3
 80013b8:	023b      	lsls	r3, r7, #8
 80013ba:	d400      	bmi.n	80013be <__aeabi_dadd+0x5fe>
 80013bc:	e625      	b.n	800100a <__aeabi_dadd+0x24a>
 80013be:	4b1d      	ldr	r3, [pc, #116]	; (8001434 <__aeabi_dadd+0x674>)
 80013c0:	2601      	movs	r6, #1
 80013c2:	401f      	ands	r7, r3
 80013c4:	e621      	b.n	800100a <__aeabi_dadd+0x24a>
 80013c6:	0004      	movs	r4, r0
 80013c8:	3a20      	subs	r2, #32
 80013ca:	40d4      	lsrs	r4, r2
 80013cc:	4662      	mov	r2, ip
 80013ce:	2a20      	cmp	r2, #32
 80013d0:	d004      	beq.n	80013dc <__aeabi_dadd+0x61c>
 80013d2:	2240      	movs	r2, #64	; 0x40
 80013d4:	4666      	mov	r6, ip
 80013d6:	1b92      	subs	r2, r2, r6
 80013d8:	4090      	lsls	r0, r2
 80013da:	4303      	orrs	r3, r0
 80013dc:	1e5a      	subs	r2, r3, #1
 80013de:	4193      	sbcs	r3, r2
 80013e0:	431c      	orrs	r4, r3
 80013e2:	e67e      	b.n	80010e2 <__aeabi_dadd+0x322>
 80013e4:	185c      	adds	r4, r3, r1
 80013e6:	428c      	cmp	r4, r1
 80013e8:	4189      	sbcs	r1, r1
 80013ea:	4440      	add	r0, r8
 80013ec:	4249      	negs	r1, r1
 80013ee:	1847      	adds	r7, r0, r1
 80013f0:	e6dd      	b.n	80011ae <__aeabi_dadd+0x3ee>
 80013f2:	0023      	movs	r3, r4
 80013f4:	433b      	orrs	r3, r7
 80013f6:	d100      	bne.n	80013fa <__aeabi_dadd+0x63a>
 80013f8:	e6ad      	b.n	8001156 <__aeabi_dadd+0x396>
 80013fa:	e606      	b.n	800100a <__aeabi_dadd+0x24a>
 80013fc:	0744      	lsls	r4, r0, #29
 80013fe:	4323      	orrs	r3, r4
 8001400:	2480      	movs	r4, #128	; 0x80
 8001402:	08c0      	lsrs	r0, r0, #3
 8001404:	0324      	lsls	r4, r4, #12
 8001406:	4220      	tst	r0, r4
 8001408:	d008      	beq.n	800141c <__aeabi_dadd+0x65c>
 800140a:	4642      	mov	r2, r8
 800140c:	08d6      	lsrs	r6, r2, #3
 800140e:	4226      	tst	r6, r4
 8001410:	d104      	bne.n	800141c <__aeabi_dadd+0x65c>
 8001412:	4655      	mov	r5, sl
 8001414:	0030      	movs	r0, r6
 8001416:	08cb      	lsrs	r3, r1, #3
 8001418:	0751      	lsls	r1, r2, #29
 800141a:	430b      	orrs	r3, r1
 800141c:	0f5a      	lsrs	r2, r3, #29
 800141e:	00db      	lsls	r3, r3, #3
 8001420:	08db      	lsrs	r3, r3, #3
 8001422:	0752      	lsls	r2, r2, #29
 8001424:	4313      	orrs	r3, r2
 8001426:	e619      	b.n	800105c <__aeabi_dadd+0x29c>
 8001428:	2300      	movs	r3, #0
 800142a:	4a01      	ldr	r2, [pc, #4]	; (8001430 <__aeabi_dadd+0x670>)
 800142c:	001f      	movs	r7, r3
 800142e:	e55e      	b.n	8000eee <__aeabi_dadd+0x12e>
 8001430:	000007ff 	.word	0x000007ff
 8001434:	ff7fffff 	.word	0xff7fffff

08001438 <__aeabi_f2d>:
 8001438:	b570      	push	{r4, r5, r6, lr}
 800143a:	0043      	lsls	r3, r0, #1
 800143c:	0246      	lsls	r6, r0, #9
 800143e:	0fc4      	lsrs	r4, r0, #31
 8001440:	20fe      	movs	r0, #254	; 0xfe
 8001442:	0e1b      	lsrs	r3, r3, #24
 8001444:	1c59      	adds	r1, r3, #1
 8001446:	0a75      	lsrs	r5, r6, #9
 8001448:	4208      	tst	r0, r1
 800144a:	d00c      	beq.n	8001466 <__aeabi_f2d+0x2e>
 800144c:	22e0      	movs	r2, #224	; 0xe0
 800144e:	0092      	lsls	r2, r2, #2
 8001450:	4694      	mov	ip, r2
 8001452:	076d      	lsls	r5, r5, #29
 8001454:	0b36      	lsrs	r6, r6, #12
 8001456:	4463      	add	r3, ip
 8001458:	051b      	lsls	r3, r3, #20
 800145a:	4333      	orrs	r3, r6
 800145c:	07e4      	lsls	r4, r4, #31
 800145e:	4323      	orrs	r3, r4
 8001460:	0028      	movs	r0, r5
 8001462:	0019      	movs	r1, r3
 8001464:	bd70      	pop	{r4, r5, r6, pc}
 8001466:	2b00      	cmp	r3, #0
 8001468:	d114      	bne.n	8001494 <__aeabi_f2d+0x5c>
 800146a:	2d00      	cmp	r5, #0
 800146c:	d01b      	beq.n	80014a6 <__aeabi_f2d+0x6e>
 800146e:	0028      	movs	r0, r5
 8001470:	f000 f8b2 	bl	80015d8 <__clzsi2>
 8001474:	280a      	cmp	r0, #10
 8001476:	dc1c      	bgt.n	80014b2 <__aeabi_f2d+0x7a>
 8001478:	230b      	movs	r3, #11
 800147a:	002e      	movs	r6, r5
 800147c:	1a1b      	subs	r3, r3, r0
 800147e:	40de      	lsrs	r6, r3
 8001480:	0003      	movs	r3, r0
 8001482:	3315      	adds	r3, #21
 8001484:	409d      	lsls	r5, r3
 8001486:	4a0e      	ldr	r2, [pc, #56]	; (80014c0 <__aeabi_f2d+0x88>)
 8001488:	0336      	lsls	r6, r6, #12
 800148a:	1a12      	subs	r2, r2, r0
 800148c:	0552      	lsls	r2, r2, #21
 800148e:	0b36      	lsrs	r6, r6, #12
 8001490:	0d53      	lsrs	r3, r2, #21
 8001492:	e7e1      	b.n	8001458 <__aeabi_f2d+0x20>
 8001494:	2d00      	cmp	r5, #0
 8001496:	d009      	beq.n	80014ac <__aeabi_f2d+0x74>
 8001498:	2280      	movs	r2, #128	; 0x80
 800149a:	0b36      	lsrs	r6, r6, #12
 800149c:	0312      	lsls	r2, r2, #12
 800149e:	4b09      	ldr	r3, [pc, #36]	; (80014c4 <__aeabi_f2d+0x8c>)
 80014a0:	076d      	lsls	r5, r5, #29
 80014a2:	4316      	orrs	r6, r2
 80014a4:	e7d8      	b.n	8001458 <__aeabi_f2d+0x20>
 80014a6:	2300      	movs	r3, #0
 80014a8:	2600      	movs	r6, #0
 80014aa:	e7d5      	b.n	8001458 <__aeabi_f2d+0x20>
 80014ac:	2600      	movs	r6, #0
 80014ae:	4b05      	ldr	r3, [pc, #20]	; (80014c4 <__aeabi_f2d+0x8c>)
 80014b0:	e7d2      	b.n	8001458 <__aeabi_f2d+0x20>
 80014b2:	0003      	movs	r3, r0
 80014b4:	3b0b      	subs	r3, #11
 80014b6:	409d      	lsls	r5, r3
 80014b8:	002e      	movs	r6, r5
 80014ba:	2500      	movs	r5, #0
 80014bc:	e7e3      	b.n	8001486 <__aeabi_f2d+0x4e>
 80014be:	46c0      	nop			; (mov r8, r8)
 80014c0:	00000389 	.word	0x00000389
 80014c4:	000007ff 	.word	0x000007ff

080014c8 <__aeabi_d2f>:
 80014c8:	0002      	movs	r2, r0
 80014ca:	004b      	lsls	r3, r1, #1
 80014cc:	b5f0      	push	{r4, r5, r6, r7, lr}
 80014ce:	0d5b      	lsrs	r3, r3, #21
 80014d0:	030c      	lsls	r4, r1, #12
 80014d2:	4e3d      	ldr	r6, [pc, #244]	; (80015c8 <__aeabi_d2f+0x100>)
 80014d4:	0a64      	lsrs	r4, r4, #9
 80014d6:	0f40      	lsrs	r0, r0, #29
 80014d8:	1c5f      	adds	r7, r3, #1
 80014da:	0fc9      	lsrs	r1, r1, #31
 80014dc:	4304      	orrs	r4, r0
 80014de:	00d5      	lsls	r5, r2, #3
 80014e0:	4237      	tst	r7, r6
 80014e2:	d00a      	beq.n	80014fa <__aeabi_d2f+0x32>
 80014e4:	4839      	ldr	r0, [pc, #228]	; (80015cc <__aeabi_d2f+0x104>)
 80014e6:	181e      	adds	r6, r3, r0
 80014e8:	2efe      	cmp	r6, #254	; 0xfe
 80014ea:	dd16      	ble.n	800151a <__aeabi_d2f+0x52>
 80014ec:	20ff      	movs	r0, #255	; 0xff
 80014ee:	2400      	movs	r4, #0
 80014f0:	05c0      	lsls	r0, r0, #23
 80014f2:	4320      	orrs	r0, r4
 80014f4:	07c9      	lsls	r1, r1, #31
 80014f6:	4308      	orrs	r0, r1
 80014f8:	bdf0      	pop	{r4, r5, r6, r7, pc}
 80014fa:	2b00      	cmp	r3, #0
 80014fc:	d106      	bne.n	800150c <__aeabi_d2f+0x44>
 80014fe:	432c      	orrs	r4, r5
 8001500:	d026      	beq.n	8001550 <__aeabi_d2f+0x88>
 8001502:	2205      	movs	r2, #5
 8001504:	0192      	lsls	r2, r2, #6
 8001506:	0a54      	lsrs	r4, r2, #9
 8001508:	b2d8      	uxtb	r0, r3
 800150a:	e7f1      	b.n	80014f0 <__aeabi_d2f+0x28>
 800150c:	4325      	orrs	r5, r4
 800150e:	d0ed      	beq.n	80014ec <__aeabi_d2f+0x24>
 8001510:	2080      	movs	r0, #128	; 0x80
 8001512:	03c0      	lsls	r0, r0, #15
 8001514:	4304      	orrs	r4, r0
 8001516:	20ff      	movs	r0, #255	; 0xff
 8001518:	e7ea      	b.n	80014f0 <__aeabi_d2f+0x28>
 800151a:	2e00      	cmp	r6, #0
 800151c:	dd1b      	ble.n	8001556 <__aeabi_d2f+0x8e>
 800151e:	0192      	lsls	r2, r2, #6
 8001520:	1e53      	subs	r3, r2, #1
 8001522:	419a      	sbcs	r2, r3
 8001524:	00e4      	lsls	r4, r4, #3
 8001526:	0f6d      	lsrs	r5, r5, #29
 8001528:	4322      	orrs	r2, r4
 800152a:	432a      	orrs	r2, r5
 800152c:	0753      	lsls	r3, r2, #29
 800152e:	d048      	beq.n	80015c2 <__aeabi_d2f+0xfa>
 8001530:	230f      	movs	r3, #15
 8001532:	4013      	ands	r3, r2
 8001534:	2b04      	cmp	r3, #4
 8001536:	d000      	beq.n	800153a <__aeabi_d2f+0x72>
 8001538:	3204      	adds	r2, #4
 800153a:	2380      	movs	r3, #128	; 0x80
 800153c:	04db      	lsls	r3, r3, #19
 800153e:	4013      	ands	r3, r2
 8001540:	d03f      	beq.n	80015c2 <__aeabi_d2f+0xfa>
 8001542:	1c70      	adds	r0, r6, #1
 8001544:	2efe      	cmp	r6, #254	; 0xfe
 8001546:	d0d1      	beq.n	80014ec <__aeabi_d2f+0x24>
 8001548:	0192      	lsls	r2, r2, #6
 800154a:	0a54      	lsrs	r4, r2, #9
 800154c:	b2c0      	uxtb	r0, r0
 800154e:	e7cf      	b.n	80014f0 <__aeabi_d2f+0x28>
 8001550:	2000      	movs	r0, #0
 8001552:	2400      	movs	r4, #0
 8001554:	e7cc      	b.n	80014f0 <__aeabi_d2f+0x28>
 8001556:	0032      	movs	r2, r6
 8001558:	3217      	adds	r2, #23
 800155a:	db22      	blt.n	80015a2 <__aeabi_d2f+0xda>
 800155c:	2080      	movs	r0, #128	; 0x80
 800155e:	0400      	lsls	r0, r0, #16
 8001560:	4320      	orrs	r0, r4
 8001562:	241e      	movs	r4, #30
 8001564:	1ba4      	subs	r4, r4, r6
 8001566:	2c1f      	cmp	r4, #31
 8001568:	dd1d      	ble.n	80015a6 <__aeabi_d2f+0xde>
 800156a:	2202      	movs	r2, #2
 800156c:	4252      	negs	r2, r2
 800156e:	1b96      	subs	r6, r2, r6
 8001570:	0002      	movs	r2, r0
 8001572:	40f2      	lsrs	r2, r6
 8001574:	0016      	movs	r6, r2
 8001576:	2c20      	cmp	r4, #32
 8001578:	d004      	beq.n	8001584 <__aeabi_d2f+0xbc>
 800157a:	4a15      	ldr	r2, [pc, #84]	; (80015d0 <__aeabi_d2f+0x108>)
 800157c:	4694      	mov	ip, r2
 800157e:	4463      	add	r3, ip
 8001580:	4098      	lsls	r0, r3
 8001582:	4305      	orrs	r5, r0
 8001584:	002a      	movs	r2, r5
 8001586:	1e53      	subs	r3, r2, #1
 8001588:	419a      	sbcs	r2, r3
 800158a:	4332      	orrs	r2, r6
 800158c:	2600      	movs	r6, #0
 800158e:	0753      	lsls	r3, r2, #29
 8001590:	d1ce      	bne.n	8001530 <__aeabi_d2f+0x68>
 8001592:	2480      	movs	r4, #128	; 0x80
 8001594:	0013      	movs	r3, r2
 8001596:	04e4      	lsls	r4, r4, #19
 8001598:	2001      	movs	r0, #1
 800159a:	4023      	ands	r3, r4
 800159c:	4222      	tst	r2, r4
 800159e:	d1d3      	bne.n	8001548 <__aeabi_d2f+0x80>
 80015a0:	e7b0      	b.n	8001504 <__aeabi_d2f+0x3c>
 80015a2:	2300      	movs	r3, #0
 80015a4:	e7ad      	b.n	8001502 <__aeabi_d2f+0x3a>
 80015a6:	4a0b      	ldr	r2, [pc, #44]	; (80015d4 <__aeabi_d2f+0x10c>)
 80015a8:	4694      	mov	ip, r2
 80015aa:	002a      	movs	r2, r5
 80015ac:	40e2      	lsrs	r2, r4
 80015ae:	0014      	movs	r4, r2
 80015b0:	002a      	movs	r2, r5
 80015b2:	4463      	add	r3, ip
 80015b4:	409a      	lsls	r2, r3
 80015b6:	4098      	lsls	r0, r3
 80015b8:	1e55      	subs	r5, r2, #1
 80015ba:	41aa      	sbcs	r2, r5
 80015bc:	4302      	orrs	r2, r0
 80015be:	4322      	orrs	r2, r4
 80015c0:	e7e4      	b.n	800158c <__aeabi_d2f+0xc4>
 80015c2:	0033      	movs	r3, r6
 80015c4:	e79e      	b.n	8001504 <__aeabi_d2f+0x3c>
 80015c6:	46c0      	nop			; (mov r8, r8)
 80015c8:	000007fe 	.word	0x000007fe
 80015cc:	fffffc80 	.word	0xfffffc80
 80015d0:	fffffca2 	.word	0xfffffca2
 80015d4:	fffffc82 	.word	0xfffffc82

080015d8 <__clzsi2>:
 80015d8:	211c      	movs	r1, #28
 80015da:	2301      	movs	r3, #1
 80015dc:	041b      	lsls	r3, r3, #16
 80015de:	4298      	cmp	r0, r3
 80015e0:	d301      	bcc.n	80015e6 <__clzsi2+0xe>
 80015e2:	0c00      	lsrs	r0, r0, #16
 80015e4:	3910      	subs	r1, #16
 80015e6:	0a1b      	lsrs	r3, r3, #8
 80015e8:	4298      	cmp	r0, r3
 80015ea:	d301      	bcc.n	80015f0 <__clzsi2+0x18>
 80015ec:	0a00      	lsrs	r0, r0, #8
 80015ee:	3908      	subs	r1, #8
 80015f0:	091b      	lsrs	r3, r3, #4
 80015f2:	4298      	cmp	r0, r3
 80015f4:	d301      	bcc.n	80015fa <__clzsi2+0x22>
 80015f6:	0900      	lsrs	r0, r0, #4
 80015f8:	3904      	subs	r1, #4
 80015fa:	a202      	add	r2, pc, #8	; (adr r2, 8001604 <__clzsi2+0x2c>)
 80015fc:	5c10      	ldrb	r0, [r2, r0]
 80015fe:	1840      	adds	r0, r0, r1
 8001600:	4770      	bx	lr
 8001602:	46c0      	nop			; (mov r8, r8)
 8001604:	02020304 	.word	0x02020304
 8001608:	01010101 	.word	0x01010101
	...

08001614 <_ZN3LEDC1EP6WS2812>:
 8001614:	6001      	str	r1, [r0, #0]
 8001616:	4770      	bx	lr

08001618 <_ZN3LED4initEh>:
 8001618:	b570      	push	{r4, r5, r6, lr}
 800161a:	0004      	movs	r4, r0
 800161c:	6800      	ldr	r0, [r0, #0]
 800161e:	000d      	movs	r5, r1
 8001620:	f000 fbd4 	bl	8001dcc <_ZN6WS28125clearEv>
 8001624:	2d00      	cmp	r5, #0
 8001626:	d102      	bne.n	800162e <_ZN3LED4initEh+0x16>
 8001628:	71e5      	strb	r5, [r4, #7]
 800162a:	7225      	strb	r5, [r4, #8]
 800162c:	bd70      	pop	{r4, r5, r6, pc}
 800162e:	2d01      	cmp	r5, #1
 8001630:	d104      	bne.n	800163c <_ZN3LED4initEh+0x24>
 8001632:	2300      	movs	r3, #0
 8001634:	71e3      	strb	r3, [r4, #7]
 8001636:	3310      	adds	r3, #16
 8001638:	7223      	strb	r3, [r4, #8]
 800163a:	e7f7      	b.n	800162c <_ZN3LED4initEh+0x14>
 800163c:	2d02      	cmp	r5, #2
 800163e:	d103      	bne.n	8001648 <_ZN3LED4initEh+0x30>
 8001640:	2300      	movs	r3, #0
 8001642:	71e3      	strb	r3, [r4, #7]
 8001644:	3320      	adds	r3, #32
 8001646:	e7f7      	b.n	8001638 <_ZN3LED4initEh+0x20>
 8001648:	2310      	movs	r3, #16
 800164a:	2d03      	cmp	r5, #3
 800164c:	d00b      	beq.n	8001666 <_ZN3LED4initEh+0x4e>
 800164e:	2310      	movs	r3, #16
 8001650:	2d04      	cmp	r5, #4
 8001652:	d014      	beq.n	800167e <_ZN3LED4initEh+0x66>
 8001654:	2d05      	cmp	r5, #5
 8001656:	d103      	bne.n	8001660 <_ZN3LED4initEh+0x48>
 8001658:	2310      	movs	r3, #16
 800165a:	71e3      	strb	r3, [r4, #7]
 800165c:	18db      	adds	r3, r3, r3
 800165e:	e7eb      	b.n	8001638 <_ZN3LED4initEh+0x20>
 8001660:	2d06      	cmp	r5, #6
 8001662:	d103      	bne.n	800166c <_ZN3LED4initEh+0x54>
 8001664:	2320      	movs	r3, #32
 8001666:	71e3      	strb	r3, [r4, #7]
 8001668:	2300      	movs	r3, #0
 800166a:	e7e5      	b.n	8001638 <_ZN3LED4initEh+0x20>
 800166c:	2d07      	cmp	r5, #7
 800166e:	d103      	bne.n	8001678 <_ZN3LED4initEh+0x60>
 8001670:	2320      	movs	r3, #32
 8001672:	71e3      	strb	r3, [r4, #7]
 8001674:	3b10      	subs	r3, #16
 8001676:	e7df      	b.n	8001638 <_ZN3LED4initEh+0x20>
 8001678:	2d08      	cmp	r5, #8
 800167a:	d1d7      	bne.n	800162c <_ZN3LED4initEh+0x14>
 800167c:	2320      	movs	r3, #32
 800167e:	71e3      	strb	r3, [r4, #7]
 8001680:	e7da      	b.n	8001638 <_ZN3LED4initEh+0x20>

08001682 <_ZN3LED10set_circleEiiiiii>:
 8001682:	b5f8      	push	{r3, r4, r5, r6, r7, lr}
 8001684:	0005      	movs	r5, r0
 8001686:	9807      	ldr	r0, [sp, #28]
 8001688:	1acc      	subs	r4, r1, r3
 800168a:	9b06      	ldr	r3, [sp, #24]
 800168c:	4340      	muls	r0, r0
 800168e:	1ad7      	subs	r7, r2, r3
 8001690:	f7ff fb48 	bl	8000d24 <__aeabi_i2f>
 8001694:	4364      	muls	r4, r4
 8001696:	437f      	muls	r7, r7
 8001698:	1c06      	adds	r6, r0, #0
 800169a:	19e0      	adds	r0, r4, r7
 800169c:	f7ff fb42 	bl	8000d24 <__aeabi_i2f>
 80016a0:	1c01      	adds	r1, r0, #0
 80016a2:	1c30      	adds	r0, r6, #0
 80016a4:	f7fe fdf2 	bl	800028c <__aeabi_fcmpge>
 80016a8:	2800      	cmp	r0, #0
 80016aa:	d005      	beq.n	80016b8 <_ZN3LED10set_circleEiiiiii+0x36>
 80016ac:	9b08      	ldr	r3, [sp, #32]
 80016ae:	60eb      	str	r3, [r5, #12]
 80016b0:	23f0      	movs	r3, #240	; 0xf0
 80016b2:	612b      	str	r3, [r5, #16]
 80016b4:	3be6      	subs	r3, #230	; 0xe6
 80016b6:	616b      	str	r3, [r5, #20]
 80016b8:	bdf8      	pop	{r3, r4, r5, r6, r7, pc}

080016ba <_ZN3LED17do_forwardRewriteEv>:
 80016ba:	b510      	push	{r4, lr}
 80016bc:	6800      	ldr	r0, [r0, #0]
 80016be:	f000 fbf7 	bl	8001eb0 <_ZN6WS281217do_forwardRewriteEv>
 80016c2:	bd10      	pop	{r4, pc}

080016c4 <_ZN3LED14do_backRewriteEv>:
 80016c4:	b510      	push	{r4, lr}
 80016c6:	6800      	ldr	r0, [r0, #0]
 80016c8:	f000 fc3c 	bl	8001f44 <_ZN6WS281214do_backRewriteEv>
 80016cc:	bd10      	pop	{r4, pc}

080016ce <_ZN3LED9set_colorEt>:
 80016ce:	b507      	push	{r0, r1, r2, lr}
 80016d0:	6943      	ldr	r3, [r0, #20]
 80016d2:	b2c9      	uxtb	r1, r1
 80016d4:	9300      	str	r3, [sp, #0]
 80016d6:	6903      	ldr	r3, [r0, #16]
 80016d8:	68c2      	ldr	r2, [r0, #12]
 80016da:	6800      	ldr	r0, [r0, #0]
 80016dc:	f000 fb84 	bl	8001de8 <_ZN6WS28127set_hsvEhiii>
 80016e0:	bd07      	pop	{r0, r1, r2, pc}

080016e2 <_ZN3LED19change_coord_to_numEii>:
 80016e2:	0110      	lsls	r0, r2, #4
 80016e4:	07d3      	lsls	r3, r2, #31
 80016e6:	d401      	bmi.n	80016ec <_ZN3LED19change_coord_to_numEii+0xa>
 80016e8:	1808      	adds	r0, r1, r0
 80016ea:	4770      	bx	lr
 80016ec:	300f      	adds	r0, #15
 80016ee:	1a40      	subs	r0, r0, r1
 80016f0:	e7fb      	b.n	80016ea <_ZN3LED19change_coord_to_numEii+0x8>

080016f2 <_ZN3LED4showEiiiii>:
 80016f2:	b5f0      	push	{r4, r5, r6, r7, lr}
 80016f4:	0004      	movs	r4, r0
 80016f6:	b087      	sub	sp, #28
 80016f8:	6800      	ldr	r0, [r0, #0]
 80016fa:	0017      	movs	r7, r2
 80016fc:	9104      	str	r1, [sp, #16]
 80016fe:	9305      	str	r3, [sp, #20]
 8001700:	2500      	movs	r5, #0
 8001702:	f000 fb63 	bl	8001dcc <_ZN6WS28125clearEv>
 8001706:	2600      	movs	r6, #0
 8001708:	79e1      	ldrb	r1, [r4, #7]
 800170a:	9b04      	ldr	r3, [sp, #16]
 800170c:	1949      	adds	r1, r1, r5
 800170e:	18c9      	adds	r1, r1, r3
 8001710:	2332      	movs	r3, #50	; 0x32
 8001712:	60e3      	str	r3, [r4, #12]
 8001714:	3396      	adds	r3, #150	; 0x96
 8001716:	6123      	str	r3, [r4, #16]
 8001718:	3bc3      	subs	r3, #195	; 0xc3
 800171a:	6163      	str	r3, [r4, #20]
 800171c:	9b0d      	ldr	r3, [sp, #52]	; 0x34
 800171e:	7a22      	ldrb	r2, [r4, #8]
 8001720:	9302      	str	r3, [sp, #8]
 8001722:	9b0c      	ldr	r3, [sp, #48]	; 0x30
 8001724:	1992      	adds	r2, r2, r6
 8001726:	9301      	str	r3, [sp, #4]
 8001728:	9b05      	ldr	r3, [sp, #20]
 800172a:	0020      	movs	r0, r4
 800172c:	9300      	str	r3, [sp, #0]
 800172e:	003b      	movs	r3, r7
 8001730:	f7ff ffa7 	bl	8001682 <_ZN3LED10set_circleEiiiiii>
 8001734:	0032      	movs	r2, r6
 8001736:	0029      	movs	r1, r5
 8001738:	0020      	movs	r0, r4
 800173a:	f7ff ffd2 	bl	80016e2 <_ZN3LED19change_coord_to_numEii>
 800173e:	3601      	adds	r6, #1
 8001740:	b281      	uxth	r1, r0
 8001742:	0020      	movs	r0, r4
 8001744:	f7ff ffc3 	bl	80016ce <_ZN3LED9set_colorEt>
 8001748:	2e10      	cmp	r6, #16
 800174a:	d1dd      	bne.n	8001708 <_ZN3LED4showEiiiii+0x16>
 800174c:	3501      	adds	r5, #1
 800174e:	2d10      	cmp	r5, #16
 8001750:	d1d9      	bne.n	8001706 <_ZN3LED4showEiiiii+0x14>
 8001752:	6820      	ldr	r0, [r4, #0]
 8001754:	f000 fb0e 	bl	8001d74 <_ZN6WS28124showEv>
 8001758:	b007      	add	sp, #28
 800175a:	bdf0      	pop	{r4, r5, r6, r7, pc}

0800175c <HAL_TIM_PWM_PulseFinishedHalfCpltCallback>:
 800175c:	b510      	push	{r4, lr}
 800175e:	4802      	ldr	r0, [pc, #8]	; (8001768 <HAL_TIM_PWM_PulseFinishedHalfCpltCallback+0xc>)
 8001760:	f7ff ffab 	bl	80016ba <_ZN3LED17do_forwardRewriteEv>
 8001764:	bd10      	pop	{r4, pc}
 8001766:	46c0      	nop			; (mov r8, r8)
 8001768:	200005b4 	.word	0x200005b4

0800176c <HAL_TIM_PWM_PulseFinishedCallback>:
 800176c:	b510      	push	{r4, lr}
 800176e:	4802      	ldr	r0, [pc, #8]	; (8001778 <HAL_TIM_PWM_PulseFinishedCallback+0xc>)
 8001770:	f7ff ffa8 	bl	80016c4 <_ZN3LED14do_backRewriteEv>
 8001774:	bd10      	pop	{r4, pc}
 8001776:	46c0      	nop			; (mov r8, r8)
 8001778:	200005b4 	.word	0x200005b4

0800177c <_Z6readIDv>:
 800177c:	b510      	push	{r4, lr}
 800177e:	2110      	movs	r1, #16
 8001780:	4814      	ldr	r0, [pc, #80]	; (80017d4 <_Z6readIDv+0x58>)
 8001782:	f000 ff29 	bl	80025d8 <HAL_GPIO_ReadPin>
 8001786:	2801      	cmp	r0, #1
 8001788:	d10c      	bne.n	80017a4 <_Z6readIDv+0x28>
 800178a:	2400      	movs	r4, #0
 800178c:	2180      	movs	r1, #128	; 0x80
 800178e:	20a0      	movs	r0, #160	; 0xa0
 8001790:	0149      	lsls	r1, r1, #5
 8001792:	05c0      	lsls	r0, r0, #23
 8001794:	f000 ff20 	bl	80025d8 <HAL_GPIO_ReadPin>
 8001798:	2801      	cmp	r0, #1
 800179a:	d112      	bne.n	80017c2 <_Z6readIDv+0x46>
 800179c:	3403      	adds	r4, #3
 800179e:	b2e4      	uxtb	r4, r4
 80017a0:	0020      	movs	r0, r4
 80017a2:	bd10      	pop	{r4, pc}
 80017a4:	2120      	movs	r1, #32
 80017a6:	480b      	ldr	r0, [pc, #44]	; (80017d4 <_Z6readIDv+0x58>)
 80017a8:	f000 ff16 	bl	80025d8 <HAL_GPIO_ReadPin>
 80017ac:	0004      	movs	r4, r0
 80017ae:	2801      	cmp	r0, #1
 80017b0:	d0ec      	beq.n	800178c <_Z6readIDv+0x10>
 80017b2:	2140      	movs	r1, #64	; 0x40
 80017b4:	4807      	ldr	r0, [pc, #28]	; (80017d4 <_Z6readIDv+0x58>)
 80017b6:	f000 ff0f 	bl	80025d8 <HAL_GPIO_ReadPin>
 80017ba:	2801      	cmp	r0, #1
 80017bc:	d1e5      	bne.n	800178a <_Z6readIDv+0xe>
 80017be:	2402      	movs	r4, #2
 80017c0:	e7e4      	b.n	800178c <_Z6readIDv+0x10>
 80017c2:	2108      	movs	r1, #8
 80017c4:	4803      	ldr	r0, [pc, #12]	; (80017d4 <_Z6readIDv+0x58>)
 80017c6:	f000 ff07 	bl	80025d8 <HAL_GPIO_ReadPin>
 80017ca:	2801      	cmp	r0, #1
 80017cc:	d1e8      	bne.n	80017a0 <_Z6readIDv+0x24>
 80017ce:	3406      	adds	r4, #6
 80017d0:	e7e5      	b.n	800179e <_Z6readIDv+0x22>
 80017d2:	46c0      	nop			; (mov r8, r8)
 80017d4:	50000400 	.word	0x50000400

080017d8 <_Z18SystemClock_Configv>:
 80017d8:	b530      	push	{r4, r5, lr}
 80017da:	b093      	sub	sp, #76	; 0x4c
 80017dc:	2234      	movs	r2, #52	; 0x34
 80017de:	2100      	movs	r1, #0
 80017e0:	a805      	add	r0, sp, #20
 80017e2:	f003 f8f5 	bl	80049d0 <memset>
 80017e6:	2210      	movs	r2, #16
 80017e8:	2100      	movs	r1, #0
 80017ea:	a801      	add	r0, sp, #4
 80017ec:	f003 f8f0 	bl	80049d0 <memset>
 80017f0:	2080      	movs	r0, #128	; 0x80
 80017f2:	0080      	lsls	r0, r0, #2
 80017f4:	f000 fefc 	bl	80025f0 <HAL_PWREx_ControlVoltageScaling>
 80017f8:	23a0      	movs	r3, #160	; 0xa0
 80017fa:	02db      	lsls	r3, r3, #11
 80017fc:	9306      	str	r3, [sp, #24]
 80017fe:	2303      	movs	r3, #3
 8001800:	930d      	str	r3, [sp, #52]	; 0x34
 8001802:	2300      	movs	r3, #0
 8001804:	930e      	str	r3, [sp, #56]	; 0x38
 8001806:	3309      	adds	r3, #9
 8001808:	930f      	str	r3, [sp, #60]	; 0x3c
 800180a:	2380      	movs	r3, #128	; 0x80
 800180c:	029b      	lsls	r3, r3, #10
 800180e:	9310      	str	r3, [sp, #64]	; 0x40
 8001810:	2380      	movs	r3, #128	; 0x80
 8001812:	2401      	movs	r4, #1
 8001814:	2502      	movs	r5, #2
 8001816:	05db      	lsls	r3, r3, #23
 8001818:	a805      	add	r0, sp, #20
 800181a:	9405      	str	r4, [sp, #20]
 800181c:	950c      	str	r5, [sp, #48]	; 0x30
 800181e:	9311      	str	r3, [sp, #68]	; 0x44
 8001820:	f000 ff12 	bl	8002648 <HAL_RCC_OscConfig>
 8001824:	2800      	cmp	r0, #0
 8001826:	d001      	beq.n	800182c <_Z18SystemClock_Configv+0x54>
 8001828:	b672      	cpsid	i
 800182a:	e7fe      	b.n	800182a <_Z18SystemClock_Configv+0x52>
 800182c:	2307      	movs	r3, #7
 800182e:	9003      	str	r0, [sp, #12]
 8001830:	9004      	str	r0, [sp, #16]
 8001832:	0021      	movs	r1, r4
 8001834:	a801      	add	r0, sp, #4
 8001836:	9301      	str	r3, [sp, #4]
 8001838:	9502      	str	r5, [sp, #8]
 800183a:	f001 f95b 	bl	8002af4 <HAL_RCC_ClockConfig>
 800183e:	2800      	cmp	r0, #0
 8001840:	d001      	beq.n	8001846 <_Z18SystemClock_Configv+0x6e>
 8001842:	b672      	cpsid	i
 8001844:	e7fe      	b.n	8001844 <_Z18SystemClock_Configv+0x6c>
 8001846:	b013      	add	sp, #76	; 0x4c
 8001848:	bd30      	pop	{r4, r5, pc}
	...

0800184c <main>:
 800184c:	b5f0      	push	{r4, r5, r6, r7, lr}
 800184e:	2604      	movs	r6, #4
 8001850:	2701      	movs	r7, #1
 8001852:	b095      	sub	sp, #84	; 0x54
 8001854:	f000 fc18 	bl	8002088 <HAL_Init>
 8001858:	f7ff ffbe 	bl	80017d8 <_Z18SystemClock_Configv>
 800185c:	2214      	movs	r2, #20
 800185e:	2100      	movs	r1, #0
 8001860:	a80d      	add	r0, sp, #52	; 0x34
 8001862:	f003 f8b5 	bl	80049d0 <memset>
 8001866:	2102      	movs	r1, #2
 8001868:	2400      	movs	r4, #0
 800186a:	4d6f      	ldr	r5, [pc, #444]	; (8001a28 <main+0x1dc>)
 800186c:	486f      	ldr	r0, [pc, #444]	; (8001a2c <main+0x1e0>)
 800186e:	6b6b      	ldr	r3, [r5, #52]	; 0x34
 8001870:	4333      	orrs	r3, r6
 8001872:	636b      	str	r3, [r5, #52]	; 0x34
 8001874:	6b6b      	ldr	r3, [r5, #52]	; 0x34
 8001876:	4033      	ands	r3, r6
 8001878:	9303      	str	r3, [sp, #12]
 800187a:	9b03      	ldr	r3, [sp, #12]
 800187c:	6b6b      	ldr	r3, [r5, #52]	; 0x34
 800187e:	433b      	orrs	r3, r7
 8001880:	636b      	str	r3, [r5, #52]	; 0x34
 8001882:	6b6b      	ldr	r3, [r5, #52]	; 0x34
 8001884:	403b      	ands	r3, r7
 8001886:	9304      	str	r3, [sp, #16]
 8001888:	9b04      	ldr	r3, [sp, #16]
 800188a:	6b6a      	ldr	r2, [r5, #52]	; 0x34
 800188c:	430a      	orrs	r2, r1
 800188e:	636a      	str	r2, [r5, #52]	; 0x34
 8001890:	6b6b      	ldr	r3, [r5, #52]	; 0x34
 8001892:	2200      	movs	r2, #0
 8001894:	400b      	ands	r3, r1
 8001896:	9305      	str	r3, [sp, #20]
 8001898:	0031      	movs	r1, r6
 800189a:	9b05      	ldr	r3, [sp, #20]
 800189c:	f000 fea2 	bl	80025e4 <HAL_GPIO_WritePin>
 80018a0:	4862      	ldr	r0, [pc, #392]	; (8001a2c <main+0x1e0>)
 80018a2:	a90d      	add	r1, sp, #52	; 0x34
 80018a4:	970e      	str	r7, [sp, #56]	; 0x38
 80018a6:	940f      	str	r4, [sp, #60]	; 0x3c
 80018a8:	9410      	str	r4, [sp, #64]	; 0x40
 80018aa:	960d      	str	r6, [sp, #52]	; 0x34
 80018ac:	f000 fde6 	bl	800247c <HAL_GPIO_Init>
 80018b0:	2380      	movs	r3, #128	; 0x80
 80018b2:	20a0      	movs	r0, #160	; 0xa0
 80018b4:	015b      	lsls	r3, r3, #5
 80018b6:	a90d      	add	r1, sp, #52	; 0x34
 80018b8:	05c0      	lsls	r0, r0, #23
 80018ba:	930d      	str	r3, [sp, #52]	; 0x34
 80018bc:	940e      	str	r4, [sp, #56]	; 0x38
 80018be:	940f      	str	r4, [sp, #60]	; 0x3c
 80018c0:	f000 fddc 	bl	800247c <HAL_GPIO_Init>
 80018c4:	2378      	movs	r3, #120	; 0x78
 80018c6:	4859      	ldr	r0, [pc, #356]	; (8001a2c <main+0x1e0>)
 80018c8:	a90d      	add	r1, sp, #52	; 0x34
 80018ca:	930d      	str	r3, [sp, #52]	; 0x34
 80018cc:	940e      	str	r4, [sp, #56]	; 0x38
 80018ce:	940f      	str	r4, [sp, #60]	; 0x3c
 80018d0:	f000 fdd4 	bl	800247c <HAL_GPIO_Init>
 80018d4:	6bab      	ldr	r3, [r5, #56]	; 0x38
 80018d6:	0022      	movs	r2, r4
 80018d8:	433b      	orrs	r3, r7
 80018da:	63ab      	str	r3, [r5, #56]	; 0x38
 80018dc:	6bab      	ldr	r3, [r5, #56]	; 0x38
 80018de:	0021      	movs	r1, r4
 80018e0:	401f      	ands	r7, r3
 80018e2:	2009      	movs	r0, #9
 80018e4:	9702      	str	r7, [sp, #8]
 80018e6:	9b02      	ldr	r3, [sp, #8]
 80018e8:	f000 fc06 	bl	80020f8 <HAL_NVIC_SetPriority>
 80018ec:	2009      	movs	r0, #9
 80018ee:	f000 fc2d 	bl	800214c <HAL_NVIC_EnableIRQ>
 80018f2:	0022      	movs	r2, r4
 80018f4:	0021      	movs	r1, r4
 80018f6:	200a      	movs	r0, #10
 80018f8:	f000 fbfe 	bl	80020f8 <HAL_NVIC_SetPriority>
 80018fc:	200a      	movs	r0, #10
 80018fe:	f000 fc25 	bl	800214c <HAL_NVIC_EnableIRQ>
 8001902:	484b      	ldr	r0, [pc, #300]	; (8001a30 <main+0x1e4>)
 8001904:	4b4b      	ldr	r3, [pc, #300]	; (8001a34 <main+0x1e8>)
 8001906:	250c      	movs	r5, #12
 8001908:	6003      	str	r3, [r0, #0]
 800190a:	23e1      	movs	r3, #225	; 0xe1
 800190c:	025b      	lsls	r3, r3, #9
 800190e:	6084      	str	r4, [r0, #8]
 8001910:	60c4      	str	r4, [r0, #12]
 8001912:	6104      	str	r4, [r0, #16]
 8001914:	6184      	str	r4, [r0, #24]
 8001916:	61c4      	str	r4, [r0, #28]
 8001918:	6204      	str	r4, [r0, #32]
 800191a:	6244      	str	r4, [r0, #36]	; 0x24
 800191c:	6284      	str	r4, [r0, #40]	; 0x28
 800191e:	6043      	str	r3, [r0, #4]
 8001920:	6145      	str	r5, [r0, #20]
 8001922:	f002 f9ab 	bl	8003c7c <HAL_UART_Init>
 8001926:	1e04      	subs	r4, r0, #0
 8001928:	d001      	beq.n	800192e <main+0xe2>
 800192a:	b672      	cpsid	i
 800192c:	e7fe      	b.n	800192c <main+0xe0>
 800192e:	0001      	movs	r1, r0
 8001930:	2210      	movs	r2, #16
 8001932:	a809      	add	r0, sp, #36	; 0x24
 8001934:	f003 f84c 	bl	80049d0 <memset>
 8001938:	002a      	movs	r2, r5
 800193a:	0021      	movs	r1, r4
 800193c:	a806      	add	r0, sp, #24
 800193e:	f003 f847 	bl	80049d0 <memset>
 8001942:	221c      	movs	r2, #28
 8001944:	0021      	movs	r1, r4
 8001946:	a80d      	add	r0, sp, #52	; 0x34
 8001948:	f003 f842 	bl	80049d0 <memset>
 800194c:	4d3a      	ldr	r5, [pc, #232]	; (8001a38 <main+0x1ec>)
 800194e:	4b3b      	ldr	r3, [pc, #236]	; (8001a3c <main+0x1f0>)
 8001950:	0028      	movs	r0, r5
 8001952:	602b      	str	r3, [r5, #0]
 8001954:	2303      	movs	r3, #3
 8001956:	606b      	str	r3, [r5, #4]
 8001958:	330b      	adds	r3, #11
 800195a:	60ac      	str	r4, [r5, #8]
 800195c:	60eb      	str	r3, [r5, #12]
 800195e:	612c      	str	r4, [r5, #16]
 8001960:	61ac      	str	r4, [r5, #24]
 8001962:	f001 fb6b 	bl	800303c <HAL_TIM_Base_Init>
 8001966:	2800      	cmp	r0, #0
 8001968:	d001      	beq.n	800196e <main+0x122>
 800196a:	b672      	cpsid	i
 800196c:	e7fe      	b.n	800196c <main+0x120>
 800196e:	2380      	movs	r3, #128	; 0x80
 8001970:	0028      	movs	r0, r5
 8001972:	015b      	lsls	r3, r3, #5
 8001974:	a909      	add	r1, sp, #36	; 0x24
 8001976:	9309      	str	r3, [sp, #36]	; 0x24
 8001978:	f001 fc80 	bl	800327c <HAL_TIM_ConfigClockSource>
 800197c:	2800      	cmp	r0, #0
 800197e:	d001      	beq.n	8001984 <main+0x138>
 8001980:	b672      	cpsid	i
 8001982:	e7fe      	b.n	8001982 <main+0x136>
 8001984:	0028      	movs	r0, r5
 8001986:	f001 fb83 	bl	8003090 <HAL_TIM_PWM_Init>
 800198a:	2800      	cmp	r0, #0
 800198c:	d001      	beq.n	8001992 <main+0x146>
 800198e:	b672      	cpsid	i
 8001990:	e7fe      	b.n	8001990 <main+0x144>
 8001992:	9006      	str	r0, [sp, #24]
 8001994:	9008      	str	r0, [sp, #32]
 8001996:	a906      	add	r1, sp, #24
 8001998:	0028      	movs	r0, r5
 800199a:	f001 fe93 	bl	80036c4 <HAL_TIMEx_MasterConfigSynchronization>
 800199e:	2800      	cmp	r0, #0
 80019a0:	d001      	beq.n	80019a6 <main+0x15a>
 80019a2:	b672      	cpsid	i
 80019a4:	e7fe      	b.n	80019a4 <main+0x158>
 80019a6:	2360      	movs	r3, #96	; 0x60
 80019a8:	900e      	str	r0, [sp, #56]	; 0x38
 80019aa:	900f      	str	r0, [sp, #60]	; 0x3c
 80019ac:	0032      	movs	r2, r6
 80019ae:	0028      	movs	r0, r5
 80019b0:	a90d      	add	r1, sp, #52	; 0x34
 80019b2:	930d      	str	r3, [sp, #52]	; 0x34
 80019b4:	9611      	str	r6, [sp, #68]	; 0x44
 80019b6:	f001 fbd1 	bl	800315c <HAL_TIM_PWM_ConfigChannel>
 80019ba:	2800      	cmp	r0, #0
 80019bc:	d001      	beq.n	80019c2 <main+0x176>
 80019be:	b672      	cpsid	i
 80019c0:	e7fe      	b.n	80019c0 <main+0x174>
 80019c2:	0028      	movs	r0, r5
 80019c4:	f000 f930 	bl	8001c28 <HAL_TIM_MspPostInit>
 80019c8:	f7ff fed8 	bl	800177c <_Z6readIDv>
 80019cc:	4d1c      	ldr	r5, [pc, #112]	; (8001a40 <main+0x1f4>)
 80019ce:	0001      	movs	r1, r0
 80019d0:	0028      	movs	r0, r5
 80019d2:	f7ff fe21 	bl	8001618 <_ZN3LED4initEh>
 80019d6:	4e1b      	ldr	r6, [pc, #108]	; (8001a44 <main+0x1f8>)
 80019d8:	0030      	movs	r0, r6
 80019da:	f000 f869 	bl	8001ab0 <_ZN13SDMA_TRANSMIT9begin_dmaEv>
 80019de:	0030      	movs	r0, r6
 80019e0:	f000 f872 	bl	8001ac8 <_ZN13SDMA_TRANSMIT9check_bufEv>
 80019e4:	4c18      	ldr	r4, [pc, #96]	; (8001a48 <main+0x1fc>)
 80019e6:	6820      	ldr	r0, [r4, #0]
 80019e8:	f002 fa02 	bl	8003df0 <sinf>
 80019ec:	4917      	ldr	r1, [pc, #92]	; (8001a4c <main+0x200>)
 80019ee:	f7fe fea5 	bl	800073c <__aeabi_fmul>
 80019f2:	2183      	movs	r1, #131	; 0x83
 80019f4:	05c9      	lsls	r1, r1, #23
 80019f6:	f7fe fc53 	bl	80002a0 <__aeabi_fadd>
 80019fa:	f7ff f973 	bl	8000ce4 <__aeabi_f2iz>
 80019fe:	2100      	movs	r1, #0
 8001a00:	2306      	movs	r3, #6
 8001a02:	0002      	movs	r2, r0
 8001a04:	9101      	str	r1, [sp, #4]
 8001a06:	9300      	str	r3, [sp, #0]
 8001a08:	0003      	movs	r3, r0
 8001a0a:	0028      	movs	r0, r5
 8001a0c:	f7ff fe71 	bl	80016f2 <_ZN3LED4showEiiiii>
 8001a10:	6820      	ldr	r0, [r4, #0]
 8001a12:	f7ff fd11 	bl	8001438 <__aeabi_f2d>
 8001a16:	4a0e      	ldr	r2, [pc, #56]	; (8001a50 <main+0x204>)
 8001a18:	4b0e      	ldr	r3, [pc, #56]	; (8001a54 <main+0x208>)
 8001a1a:	f7ff f9d1 	bl	8000dc0 <__aeabi_dadd>
 8001a1e:	f7ff fd53 	bl	80014c8 <__aeabi_d2f>
 8001a22:	6020      	str	r0, [r4, #0]
 8001a24:	e7db      	b.n	80019de <main+0x192>
 8001a26:	46c0      	nop			; (mov r8, r8)
 8001a28:	40021000 	.word	0x40021000
 8001a2c:	50000400 	.word	0x50000400
 8001a30:	2000051c 	.word	0x2000051c
 8001a34:	40004400 	.word	0x40004400
 8001a38:	200004d0 	.word	0x200004d0
 8001a3c:	40000400 	.word	0x40000400
 8001a40:	200005b4 	.word	0x200005b4
 8001a44:	2000036c 	.word	0x2000036c
 8001a48:	200005b0 	.word	0x200005b0
 8001a4c:	40a00000 	.word	0x40a00000
 8001a50:	47ae147b 	.word	0x47ae147b
 8001a54:	3fb47ae1 	.word	0x3fb47ae1

08001a58 <Error_Handler>:
 8001a58:	b672      	cpsid	i
 8001a5a:	e7fe      	b.n	8001a5a <Error_Handler+0x2>

08001a5c <_GLOBAL__sub_I_htim3>:
 8001a5c:	b510      	push	{r4, lr}
 8001a5e:	4c08      	ldr	r4, [pc, #32]	; (8001a80 <_GLOBAL__sub_I_htim3+0x24>)
 8001a60:	4b08      	ldr	r3, [pc, #32]	; (8001a84 <_GLOBAL__sub_I_htim3+0x28>)
 8001a62:	2204      	movs	r2, #4
 8001a64:	0020      	movs	r0, r4
 8001a66:	4908      	ldr	r1, [pc, #32]	; (8001a88 <_GLOBAL__sub_I_htim3+0x2c>)
 8001a68:	f000 f96e 	bl	8001d48 <_ZN6WS2812C1EP17TIM_HandleTypeDefmP19__DMA_HandleTypeDef>
 8001a6c:	0021      	movs	r1, r4
 8001a6e:	4807      	ldr	r0, [pc, #28]	; (8001a8c <_GLOBAL__sub_I_htim3+0x30>)
 8001a70:	f7ff fdd0 	bl	8001614 <_ZN3LEDC1EP6WS2812>
 8001a74:	2200      	movs	r2, #0
 8001a76:	4906      	ldr	r1, [pc, #24]	; (8001a90 <_GLOBAL__sub_I_htim3+0x34>)
 8001a78:	4806      	ldr	r0, [pc, #24]	; (8001a94 <_GLOBAL__sub_I_htim3+0x38>)
 8001a7a:	f000 f80d 	bl	8001a98 <_ZN13SDMA_TRANSMITC1EP20__UART_HandleTypeDefh>
 8001a7e:	bd10      	pop	{r4, pc}
 8001a80:	20000028 	.word	0x20000028
 8001a84:	20000418 	.word	0x20000418
 8001a88:	200004d0 	.word	0x200004d0
 8001a8c:	200005b4 	.word	0x200005b4
 8001a90:	2000051c 	.word	0x2000051c
 8001a94:	2000036c 	.word	0x2000036c

08001a98 <_ZN13SDMA_TRANSMITC1EP20__UART_HandleTypeDefh>:
 8001a98:	2300      	movs	r3, #0
 8001a9a:	b510      	push	{r4, lr}
 8001a9c:	1d04      	adds	r4, r0, #4
 8001a9e:	67e3      	str	r3, [r4, #124]	; 0x7c
 8001aa0:	3480      	adds	r4, #128	; 0x80
 8001aa2:	7023      	strb	r3, [r4, #0]
 8001aa4:	0003      	movs	r3, r0
 8001aa6:	3390      	adds	r3, #144	; 0x90
 8001aa8:	6019      	str	r1, [r3, #0]
 8001aaa:	3b0b      	subs	r3, #11
 8001aac:	701a      	strb	r2, [r3, #0]
 8001aae:	bd10      	pop	{r4, pc}

08001ab0 <_ZN13SDMA_TRANSMIT9begin_dmaEv>:
 8001ab0:	0003      	movs	r3, r0
 8001ab2:	b510      	push	{r4, lr}
 8001ab4:	3390      	adds	r3, #144	; 0x90
 8001ab6:	0001      	movs	r1, r0
 8001ab8:	2280      	movs	r2, #128	; 0x80
 8001aba:	6818      	ldr	r0, [r3, #0]
 8001abc:	f002 f968 	bl	8003d90 <HAL_UART_Receive_DMA>
 8001ac0:	2001      	movs	r0, #1
 8001ac2:	f000 fb07 	bl	80020d4 <HAL_Delay>
 8001ac6:	bd10      	pop	{r4, pc}

08001ac8 <_ZN13SDMA_TRANSMIT9check_bufEv>:
 8001ac8:	0003      	movs	r3, r0
 8001aca:	3390      	adds	r3, #144	; 0x90
 8001acc:	681b      	ldr	r3, [r3, #0]
 8001ace:	2180      	movs	r1, #128	; 0x80
 8001ad0:	3304      	adds	r3, #4
 8001ad2:	6fdb      	ldr	r3, [r3, #124]	; 0x7c
 8001ad4:	b530      	push	{r4, r5, lr}
 8001ad6:	681b      	ldr	r3, [r3, #0]
 8001ad8:	685a      	ldr	r2, [r3, #4]
 8001ada:	0003      	movs	r3, r0
 8001adc:	1a89      	subs	r1, r1, r2
 8001ade:	3394      	adds	r3, #148	; 0x94
 8001ae0:	6019      	str	r1, [r3, #0]
 8001ae2:	236d      	movs	r3, #109	; 0x6d
 8001ae4:	1a9b      	subs	r3, r3, r2
 8001ae6:	d501      	bpl.n	8001aec <_ZN13SDMA_TRANSMIT9check_bufEv+0x24>
 8001ae8:	23ed      	movs	r3, #237	; 0xed
 8001aea:	1a9b      	subs	r3, r3, r2
 8001aec:	0002      	movs	r2, r0
 8001aee:	3285      	adds	r2, #133	; 0x85
 8001af0:	7814      	ldrb	r4, [r2, #0]
 8001af2:	34dc      	adds	r4, #220	; 0xdc
 8001af4:	5cc5      	ldrb	r5, [r0, r3]
 8001af6:	1c5a      	adds	r2, r3, #1
 8001af8:	42a5      	cmp	r5, r4
 8001afa:	d13b      	bne.n	8001b74 <_ZN13SDMA_TRANSMIT9check_bufEv+0xac>
 8001afc:	0003      	movs	r3, r0
 8001afe:	3384      	adds	r3, #132	; 0x84
 8001b00:	701c      	strb	r4, [r3, #0]
 8001b02:	0004      	movs	r4, r0
 8001b04:	3302      	adds	r3, #2
 8001b06:	348e      	adds	r4, #142	; 0x8e
 8001b08:	0011      	movs	r1, r2
 8001b0a:	2a7f      	cmp	r2, #127	; 0x7f
 8001b0c:	d900      	bls.n	8001b10 <_ZN13SDMA_TRANSMIT9check_bufEv+0x48>
 8001b0e:	3980      	subs	r1, #128	; 0x80
 8001b10:	5c41      	ldrb	r1, [r0, r1]
 8001b12:	3201      	adds	r2, #1
 8001b14:	7019      	strb	r1, [r3, #0]
 8001b16:	3301      	adds	r3, #1
 8001b18:	429c      	cmp	r4, r3
 8001b1a:	d1f5      	bne.n	8001b08 <_ZN13SDMA_TRANSMIT9check_bufEv+0x40>
 8001b1c:	0003      	movs	r3, r0
 8001b1e:	3387      	adds	r3, #135	; 0x87
 8001b20:	781a      	ldrb	r2, [r3, #0]
 8001b22:	2364      	movs	r3, #100	; 0x64
 8001b24:	0004      	movs	r4, r0
 8001b26:	0001      	movs	r1, r0
 8001b28:	435a      	muls	r2, r3
 8001b2a:	3486      	adds	r4, #134	; 0x86
 8001b2c:	7824      	ldrb	r4, [r4, #0]
 8001b2e:	4d16      	ldr	r5, [pc, #88]	; (8001b88 <_ZN13SDMA_TRANSMIT9check_bufEv+0xc0>)
 8001b30:	1912      	adds	r2, r2, r4
 8001b32:	1952      	adds	r2, r2, r5
 8001b34:	3198      	adds	r1, #152	; 0x98
 8001b36:	600a      	str	r2, [r1, #0]
 8001b38:	0002      	movs	r2, r0
 8001b3a:	0004      	movs	r4, r0
 8001b3c:	3289      	adds	r2, #137	; 0x89
 8001b3e:	7812      	ldrb	r2, [r2, #0]
 8001b40:	3488      	adds	r4, #136	; 0x88
 8001b42:	435a      	muls	r2, r3
 8001b44:	7824      	ldrb	r4, [r4, #0]
 8001b46:	1912      	adds	r2, r2, r4
 8001b48:	1952      	adds	r2, r2, r5
 8001b4a:	604a      	str	r2, [r1, #4]
 8001b4c:	390d      	subs	r1, #13
 8001b4e:	7809      	ldrb	r1, [r1, #0]
 8001b50:	0002      	movs	r2, r0
 8001b52:	434b      	muls	r3, r1
 8001b54:	0001      	movs	r1, r0
 8001b56:	318a      	adds	r1, #138	; 0x8a
 8001b58:	7809      	ldrb	r1, [r1, #0]
 8001b5a:	32a0      	adds	r2, #160	; 0xa0
 8001b5c:	185b      	adds	r3, r3, r1
 8001b5e:	195b      	adds	r3, r3, r5
 8001b60:	6013      	str	r3, [r2, #0]
 8001b62:	0003      	movs	r3, r0
 8001b64:	3a14      	subs	r2, #20
 8001b66:	7812      	ldrb	r2, [r2, #0]
 8001b68:	33a4      	adds	r3, #164	; 0xa4
 8001b6a:	701a      	strb	r2, [r3, #0]
 8001b6c:	308d      	adds	r0, #141	; 0x8d
 8001b6e:	7802      	ldrb	r2, [r0, #0]
 8001b70:	605a      	str	r2, [r3, #4]
 8001b72:	bd30      	pop	{r4, r5, pc}
 8001b74:	3b7f      	subs	r3, #127	; 0x7f
 8001b76:	2a7f      	cmp	r2, #127	; 0x7f
 8001b78:	d800      	bhi.n	8001b7c <_ZN13SDMA_TRANSMIT9check_bufEv+0xb4>
 8001b7a:	0013      	movs	r3, r2
 8001b7c:	4299      	cmp	r1, r3
 8001b7e:	d1b9      	bne.n	8001af4 <_ZN13SDMA_TRANSMIT9check_bufEv+0x2c>
 8001b80:	0003      	movs	r3, r0
 8001b82:	3384      	adds	r3, #132	; 0x84
 8001b84:	701d      	strb	r5, [r3, #0]
 8001b86:	e7c9      	b.n	8001b1c <_ZN13SDMA_TRANSMIT9check_bufEv+0x54>
 8001b88:	ffffec78 	.word	0xffffec78

08001b8c <HAL_MspInit>:
 8001b8c:	2001      	movs	r0, #1
 8001b8e:	4b0a      	ldr	r3, [pc, #40]	; (8001bb8 <HAL_MspInit+0x2c>)
 8001b90:	b082      	sub	sp, #8
 8001b92:	6c19      	ldr	r1, [r3, #64]	; 0x40
 8001b94:	4301      	orrs	r1, r0
 8001b96:	6419      	str	r1, [r3, #64]	; 0x40
 8001b98:	2180      	movs	r1, #128	; 0x80
 8001b9a:	6c1a      	ldr	r2, [r3, #64]	; 0x40
 8001b9c:	0549      	lsls	r1, r1, #21
 8001b9e:	4002      	ands	r2, r0
 8001ba0:	9200      	str	r2, [sp, #0]
 8001ba2:	9a00      	ldr	r2, [sp, #0]
 8001ba4:	6bda      	ldr	r2, [r3, #60]	; 0x3c
 8001ba6:	430a      	orrs	r2, r1
 8001ba8:	63da      	str	r2, [r3, #60]	; 0x3c
 8001baa:	6bdb      	ldr	r3, [r3, #60]	; 0x3c
 8001bac:	400b      	ands	r3, r1
 8001bae:	9301      	str	r3, [sp, #4]
 8001bb0:	9b01      	ldr	r3, [sp, #4]
 8001bb2:	b002      	add	sp, #8
 8001bb4:	4770      	bx	lr
 8001bb6:	46c0      	nop			; (mov r8, r8)
 8001bb8:	40021000 	.word	0x40021000

08001bbc <HAL_TIM_Base_MspInit>:
 8001bbc:	b537      	push	{r0, r1, r2, r4, r5, lr}
 8001bbe:	4b16      	ldr	r3, [pc, #88]	; (8001c18 <HAL_TIM_Base_MspInit+0x5c>)
 8001bc0:	6802      	ldr	r2, [r0, #0]
 8001bc2:	0005      	movs	r5, r0
 8001bc4:	429a      	cmp	r2, r3
 8001bc6:	d125      	bne.n	8001c14 <HAL_TIM_Base_MspInit+0x58>
 8001bc8:	2002      	movs	r0, #2
 8001bca:	4a14      	ldr	r2, [pc, #80]	; (8001c1c <HAL_TIM_Base_MspInit+0x60>)
 8001bcc:	4c14      	ldr	r4, [pc, #80]	; (8001c20 <HAL_TIM_Base_MspInit+0x64>)
 8001bce:	6bd1      	ldr	r1, [r2, #60]	; 0x3c
 8001bd0:	4301      	orrs	r1, r0
 8001bd2:	63d1      	str	r1, [r2, #60]	; 0x3c
 8001bd4:	6bd3      	ldr	r3, [r2, #60]	; 0x3c
 8001bd6:	2280      	movs	r2, #128	; 0x80
 8001bd8:	4003      	ands	r3, r0
 8001bda:	9301      	str	r3, [sp, #4]
 8001bdc:	9b01      	ldr	r3, [sp, #4]
 8001bde:	4b11      	ldr	r3, [pc, #68]	; (8001c24 <HAL_TIM_Base_MspInit+0x68>)
 8001be0:	6122      	str	r2, [r4, #16]
 8001be2:	6023      	str	r3, [r4, #0]
 8001be4:	2321      	movs	r3, #33	; 0x21
 8001be6:	6063      	str	r3, [r4, #4]
 8001be8:	3b11      	subs	r3, #17
 8001bea:	60a3      	str	r3, [r4, #8]
 8001bec:	2300      	movs	r3, #0
 8001bee:	60e3      	str	r3, [r4, #12]
 8001bf0:	61a3      	str	r3, [r4, #24]
 8001bf2:	3320      	adds	r3, #32
 8001bf4:	61e3      	str	r3, [r4, #28]
 8001bf6:	23c0      	movs	r3, #192	; 0xc0
 8001bf8:	3281      	adds	r2, #129	; 0x81
 8001bfa:	32ff      	adds	r2, #255	; 0xff
 8001bfc:	019b      	lsls	r3, r3, #6
 8001bfe:	0020      	movs	r0, r4
 8001c00:	6162      	str	r2, [r4, #20]
 8001c02:	6223      	str	r3, [r4, #32]
 8001c04:	f000 fb02 	bl	800220c <HAL_DMA_Init>
 8001c08:	2800      	cmp	r0, #0
 8001c0a:	d001      	beq.n	8001c10 <HAL_TIM_Base_MspInit+0x54>
 8001c0c:	f7ff ff24 	bl	8001a58 <Error_Handler>
 8001c10:	62ac      	str	r4, [r5, #40]	; 0x28
 8001c12:	62a5      	str	r5, [r4, #40]	; 0x28
 8001c14:	bd37      	pop	{r0, r1, r2, r4, r5, pc}
 8001c16:	46c0      	nop			; (mov r8, r8)
 8001c18:	40000400 	.word	0x40000400
 8001c1c:	40021000 	.word	0x40021000
 8001c20:	20000418 	.word	0x20000418
 8001c24:	4002001c 	.word	0x4002001c

08001c28 <HAL_TIM_MspPostInit>:
 8001c28:	b510      	push	{r4, lr}
 8001c2a:	0004      	movs	r4, r0
 8001c2c:	b086      	sub	sp, #24
 8001c2e:	2214      	movs	r2, #20
 8001c30:	2100      	movs	r1, #0
 8001c32:	a801      	add	r0, sp, #4
 8001c34:	f002 fecc 	bl	80049d0 <memset>
 8001c38:	4b0c      	ldr	r3, [pc, #48]	; (8001c6c <HAL_TIM_MspPostInit+0x44>)
 8001c3a:	6822      	ldr	r2, [r4, #0]
 8001c3c:	429a      	cmp	r2, r3
 8001c3e:	d112      	bne.n	8001c66 <HAL_TIM_MspPostInit+0x3e>
 8001c40:	2301      	movs	r3, #1
 8001c42:	4a0b      	ldr	r2, [pc, #44]	; (8001c70 <HAL_TIM_MspPostInit+0x48>)
 8001c44:	20a0      	movs	r0, #160	; 0xa0
 8001c46:	6b51      	ldr	r1, [r2, #52]	; 0x34
 8001c48:	05c0      	lsls	r0, r0, #23
 8001c4a:	4319      	orrs	r1, r3
 8001c4c:	6351      	str	r1, [r2, #52]	; 0x34
 8001c4e:	6b52      	ldr	r2, [r2, #52]	; 0x34
 8001c50:	a901      	add	r1, sp, #4
 8001c52:	401a      	ands	r2, r3
 8001c54:	9200      	str	r2, [sp, #0]
 8001c56:	9a00      	ldr	r2, [sp, #0]
 8001c58:	2280      	movs	r2, #128	; 0x80
 8001c5a:	9201      	str	r2, [sp, #4]
 8001c5c:	3a7e      	subs	r2, #126	; 0x7e
 8001c5e:	9202      	str	r2, [sp, #8]
 8001c60:	9305      	str	r3, [sp, #20]
 8001c62:	f000 fc0b 	bl	800247c <HAL_GPIO_Init>
 8001c66:	b006      	add	sp, #24
 8001c68:	bd10      	pop	{r4, pc}
 8001c6a:	46c0      	nop			; (mov r8, r8)
 8001c6c:	40000400 	.word	0x40000400
 8001c70:	40021000 	.word	0x40021000

08001c74 <HAL_UART_MspInit>:
 8001c74:	b530      	push	{r4, r5, lr}
 8001c76:	0005      	movs	r5, r0
 8001c78:	b089      	sub	sp, #36	; 0x24
 8001c7a:	2214      	movs	r2, #20
 8001c7c:	2100      	movs	r1, #0
 8001c7e:	a803      	add	r0, sp, #12
 8001c80:	f002 fea6 	bl	80049d0 <memset>
 8001c84:	4b1e      	ldr	r3, [pc, #120]	; (8001d00 <HAL_UART_MspInit+0x8c>)
 8001c86:	682a      	ldr	r2, [r5, #0]
 8001c88:	429a      	cmp	r2, r3
 8001c8a:	d136      	bne.n	8001cfa <HAL_UART_MspInit+0x86>
 8001c8c:	2080      	movs	r0, #128	; 0x80
 8001c8e:	4b1d      	ldr	r3, [pc, #116]	; (8001d04 <HAL_UART_MspInit+0x90>)
 8001c90:	0280      	lsls	r0, r0, #10
 8001c92:	6bd9      	ldr	r1, [r3, #60]	; 0x3c
 8001c94:	4301      	orrs	r1, r0
 8001c96:	63d9      	str	r1, [r3, #60]	; 0x3c
 8001c98:	6bda      	ldr	r2, [r3, #60]	; 0x3c
 8001c9a:	4002      	ands	r2, r0
 8001c9c:	9201      	str	r2, [sp, #4]
 8001c9e:	9a01      	ldr	r2, [sp, #4]
 8001ca0:	2201      	movs	r2, #1
 8001ca2:	6b59      	ldr	r1, [r3, #52]	; 0x34
 8001ca4:	20a0      	movs	r0, #160	; 0xa0
 8001ca6:	4311      	orrs	r1, r2
 8001ca8:	6359      	str	r1, [r3, #52]	; 0x34
 8001caa:	6b5b      	ldr	r3, [r3, #52]	; 0x34
 8001cac:	05c0      	lsls	r0, r0, #23
 8001cae:	4013      	ands	r3, r2
 8001cb0:	9302      	str	r3, [sp, #8]
 8001cb2:	9b02      	ldr	r3, [sp, #8]
 8001cb4:	4b14      	ldr	r3, [pc, #80]	; (8001d08 <HAL_UART_MspInit+0x94>)
 8001cb6:	a903      	add	r1, sp, #12
 8001cb8:	9303      	str	r3, [sp, #12]
 8001cba:	2302      	movs	r3, #2
 8001cbc:	9207      	str	r2, [sp, #28]
 8001cbe:	9304      	str	r3, [sp, #16]
 8001cc0:	f000 fbdc 	bl	800247c <HAL_GPIO_Init>
 8001cc4:	4c11      	ldr	r4, [pc, #68]	; (8001d0c <HAL_UART_MspInit+0x98>)
 8001cc6:	4b12      	ldr	r3, [pc, #72]	; (8001d10 <HAL_UART_MspInit+0x9c>)
 8001cc8:	2280      	movs	r2, #128	; 0x80
 8001cca:	6023      	str	r3, [r4, #0]
 8001ccc:	2334      	movs	r3, #52	; 0x34
 8001cce:	6063      	str	r3, [r4, #4]
 8001cd0:	2300      	movs	r3, #0
 8001cd2:	60a3      	str	r3, [r4, #8]
 8001cd4:	60e3      	str	r3, [r4, #12]
 8001cd6:	6163      	str	r3, [r4, #20]
 8001cd8:	61a3      	str	r3, [r4, #24]
 8001cda:	3320      	adds	r3, #32
 8001cdc:	61e3      	str	r3, [r4, #28]
 8001cde:	2380      	movs	r3, #128	; 0x80
 8001ce0:	0020      	movs	r0, r4
 8001ce2:	019b      	lsls	r3, r3, #6
 8001ce4:	6122      	str	r2, [r4, #16]
 8001ce6:	6223      	str	r3, [r4, #32]
 8001ce8:	f000 fa90 	bl	800220c <HAL_DMA_Init>
 8001cec:	2800      	cmp	r0, #0
 8001cee:	d001      	beq.n	8001cf4 <HAL_UART_MspInit+0x80>
 8001cf0:	f7ff feb2 	bl	8001a58 <Error_Handler>
 8001cf4:	1d2b      	adds	r3, r5, #4
 8001cf6:	67dc      	str	r4, [r3, #124]	; 0x7c
 8001cf8:	62a5      	str	r5, [r4, #40]	; 0x28
 8001cfa:	b009      	add	sp, #36	; 0x24
 8001cfc:	bd30      	pop	{r4, r5, pc}
 8001cfe:	46c0      	nop			; (mov r8, r8)
 8001d00:	40004400 	.word	0x40004400
 8001d04:	40021000 	.word	0x40021000
 8001d08:	00008004 	.word	0x00008004
 8001d0c:	20000474 	.word	0x20000474
 8001d10:	40020008 	.word	0x40020008

08001d14 <NMI_Handler>:
 8001d14:	e7fe      	b.n	8001d14 <NMI_Handler>

08001d16 <HardFault_Handler>:
 8001d16:	e7fe      	b.n	8001d16 <HardFault_Handler>

08001d18 <SVC_Handler>:
 8001d18:	4770      	bx	lr

08001d1a <PendSV_Handler>:
 8001d1a:	4770      	bx	lr

08001d1c <SysTick_Handler>:
 8001d1c:	b510      	push	{r4, lr}
 8001d1e:	f000 f9c7 	bl	80020b0 <HAL_IncTick>
 8001d22:	bd10      	pop	{r4, pc}

08001d24 <DMA1_Channel1_IRQHandler>:
 8001d24:	b510      	push	{r4, lr}
 8001d26:	4802      	ldr	r0, [pc, #8]	; (8001d30 <DMA1_Channel1_IRQHandler+0xc>)
 8001d28:	f000 fb54 	bl	80023d4 <HAL_DMA_IRQHandler>
 8001d2c:	bd10      	pop	{r4, pc}
 8001d2e:	46c0      	nop			; (mov r8, r8)
 8001d30:	20000474 	.word	0x20000474

08001d34 <DMA1_Channel2_3_IRQHandler>:
 8001d34:	b510      	push	{r4, lr}
 8001d36:	4802      	ldr	r0, [pc, #8]	; (8001d40 <DMA1_Channel2_3_IRQHandler+0xc>)
 8001d38:	f000 fb4c 	bl	80023d4 <HAL_DMA_IRQHandler>
 8001d3c:	bd10      	pop	{r4, pc}
 8001d3e:	46c0      	nop			; (mov r8, r8)
 8001d40:	20000418 	.word	0x20000418

08001d44 <SystemInit>:
 8001d44:	4770      	bx	lr
	...

08001d48 <_ZN6WS2812C1EP17TIM_HandleTypeDefmP19__DMA_HandleTypeDef>:
 8001d48:	b5f8      	push	{r3, r4, r5, r6, r7, lr}
 8001d4a:	001d      	movs	r5, r3
 8001d4c:	4b08      	ldr	r3, [pc, #32]	; (8001d70 <_ZN6WS2812C1EP17TIM_HandleTypeDefmP19__DMA_HandleTypeDef+0x28>)
 8001d4e:	0004      	movs	r4, r0
 8001d50:	000f      	movs	r7, r1
 8001d52:	0016      	movs	r6, r2
 8001d54:	2100      	movs	r1, #0
 8001d56:	2230      	movs	r2, #48	; 0x30
 8001d58:	18c0      	adds	r0, r0, r3
 8001d5a:	f002 fe39 	bl	80049d0 <memset>
 8001d5e:	23d0      	movs	r3, #208	; 0xd0
 8001d60:	2200      	movs	r2, #0
 8001d62:	009b      	lsls	r3, r3, #2
 8001d64:	50e2      	str	r2, [r4, r3]
 8001d66:	0020      	movs	r0, r4
 8001d68:	6067      	str	r7, [r4, #4]
 8001d6a:	7026      	strb	r6, [r4, #0]
 8001d6c:	60a5      	str	r5, [r4, #8]
 8001d6e:	bdf8      	pop	{r3, r4, r5, r6, r7, pc}
 8001d70:	0000030f 	.word	0x0000030f

08001d74 <_ZN6WS28124showEv>:
 8001d74:	23d0      	movs	r3, #208	; 0xd0
 8001d76:	009b      	lsls	r3, r3, #2
 8001d78:	58c1      	ldr	r1, [r0, r3]
 8001d7a:	4b13      	ldr	r3, [pc, #76]	; (8001dc8 <_ZN6WS28124showEv+0x54>)
 8001d7c:	b570      	push	{r4, r5, r6, lr}
 8001d7e:	0004      	movs	r4, r0
 8001d80:	18c5      	adds	r5, r0, r3
 8001d82:	2900      	cmp	r1, #0
 8001d84:	d104      	bne.n	8001d90 <_ZN6WS28124showEv+0x1c>
 8001d86:	6883      	ldr	r3, [r0, #8]
 8001d88:	3306      	adds	r3, #6
 8001d8a:	7fdb      	ldrb	r3, [r3, #31]
 8001d8c:	2b01      	cmp	r3, #1
 8001d8e:	d00c      	beq.n	8001daa <_ZN6WS28124showEv+0x36>
 8001d90:	7821      	ldrb	r1, [r4, #0]
 8001d92:	6860      	ldr	r0, [r4, #4]
 8001d94:	f001 fc92 	bl	80036bc <HAL_TIM_PWM_Stop_DMA>
 8001d98:	23d0      	movs	r3, #208	; 0xd0
 8001d9a:	2100      	movs	r1, #0
 8001d9c:	009b      	lsls	r3, r3, #2
 8001d9e:	2230      	movs	r2, #48	; 0x30
 8001da0:	0028      	movs	r0, r5
 8001da2:	50e1      	str	r1, [r4, r3]
 8001da4:	f002 fe14 	bl	80049d0 <memset>
 8001da8:	bd70      	pop	{r4, r5, r6, pc}
 8001daa:	2230      	movs	r2, #48	; 0x30
 8001dac:	0028      	movs	r0, r5
 8001dae:	f002 fe0f 	bl	80049d0 <memset>
 8001db2:	2330      	movs	r3, #48	; 0x30
 8001db4:	002a      	movs	r2, r5
 8001db6:	7821      	ldrb	r1, [r4, #0]
 8001db8:	6860      	ldr	r0, [r4, #4]
 8001dba:	f001 fbfd 	bl	80035b8 <HAL_TIM_PWM_Start_DMA>
 8001dbe:	2008      	movs	r0, #8
 8001dc0:	f000 f988 	bl	80020d4 <HAL_Delay>
 8001dc4:	e7f0      	b.n	8001da8 <_ZN6WS28124showEv+0x34>
 8001dc6:	46c0      	nop			; (mov r8, r8)
 8001dc8:	0000030f 	.word	0x0000030f

08001dcc <_ZN6WS28125clearEv>:
 8001dcc:	4a05      	ldr	r2, [pc, #20]	; (8001de4 <_ZN6WS28125clearEv+0x18>)
 8001dce:	0003      	movs	r3, r0
 8001dd0:	1880      	adds	r0, r0, r2
 8001dd2:	2200      	movs	r2, #0
 8001dd4:	330c      	adds	r3, #12
 8001dd6:	701a      	strb	r2, [r3, #0]
 8001dd8:	705a      	strb	r2, [r3, #1]
 8001dda:	709a      	strb	r2, [r3, #2]
 8001ddc:	3303      	adds	r3, #3
 8001dde:	4283      	cmp	r3, r0
 8001de0:	d1f9      	bne.n	8001dd6 <_ZN6WS28125clearEv+0xa>
 8001de2:	4770      	bx	lr
 8001de4:	0000030f 	.word	0x0000030f

08001de8 <_ZN6WS28127set_hsvEhiii>:
 8001de8:	b5f7      	push	{r0, r1, r2, r4, r5, r6, r7, lr}
 8001dea:	9d08      	ldr	r5, [sp, #32]
 8001dec:	9101      	str	r1, [sp, #4]
 8001dee:	002c      	movs	r4, r5
 8001df0:	0029      	movs	r1, r5
 8001df2:	9000      	str	r0, [sp, #0]
 8001df4:	2b00      	cmp	r3, #0
 8001df6:	d03d      	beq.n	8001e74 <_ZN6WS28127set_hsvEhiii+0x8c>
 8001df8:	2706      	movs	r7, #6
 8001dfa:	4357      	muls	r7, r2
 8001dfc:	482a      	ldr	r0, [pc, #168]	; (8001ea8 <_ZN6WS28127set_hsvEhiii+0xc0>)
 8001dfe:	4038      	ands	r0, r7
 8001e00:	d503      	bpl.n	8001e0a <_ZN6WS28127set_hsvEhiii+0x22>
 8001e02:	4a2a      	ldr	r2, [pc, #168]	; (8001eac <_ZN6WS28127set_hsvEhiii+0xc4>)
 8001e04:	3801      	subs	r0, #1
 8001e06:	4310      	orrs	r0, r2
 8001e08:	3001      	adds	r0, #1
 8001e0a:	2480      	movs	r4, #128	; 0x80
 8001e0c:	26ff      	movs	r6, #255	; 0xff
 8001e0e:	0064      	lsls	r4, r4, #1
 8001e10:	1ae2      	subs	r2, r4, r3
 8001e12:	436a      	muls	r2, r5
 8001e14:	17d1      	asrs	r1, r2, #31
 8001e16:	4031      	ands	r1, r6
 8001e18:	1889      	adds	r1, r1, r2
 8001e1a:	0002      	movs	r2, r0
 8001e1c:	435a      	muls	r2, r3
 8001e1e:	4694      	mov	ip, r2
 8001e20:	17d2      	asrs	r2, r2, #31
 8001e22:	4032      	ands	r2, r6
 8001e24:	4462      	add	r2, ip
 8001e26:	1212      	asrs	r2, r2, #8
 8001e28:	4252      	negs	r2, r2
 8001e2a:	1912      	adds	r2, r2, r4
 8001e2c:	436a      	muls	r2, r5
 8001e2e:	17d4      	asrs	r4, r2, #31
 8001e30:	4034      	ands	r4, r6
 8001e32:	46a4      	mov	ip, r4
 8001e34:	2480      	movs	r4, #128	; 0x80
 8001e36:	0064      	lsls	r4, r4, #1
 8001e38:	1a24      	subs	r4, r4, r0
 8001e3a:	435c      	muls	r4, r3
 8001e3c:	17e3      	asrs	r3, r4, #31
 8001e3e:	4033      	ands	r3, r6
 8001e40:	191b      	adds	r3, r3, r4
 8001e42:	121b      	asrs	r3, r3, #8
 8001e44:	425b      	negs	r3, r3
 8001e46:	3301      	adds	r3, #1
 8001e48:	33ff      	adds	r3, #255	; 0xff
 8001e4a:	436b      	muls	r3, r5
 8001e4c:	17f8      	asrs	r0, r7, #31
 8001e4e:	17dc      	asrs	r4, r3, #31
 8001e50:	4034      	ands	r4, r6
 8001e52:	4030      	ands	r0, r6
 8001e54:	4462      	add	r2, ip
 8001e56:	18e4      	adds	r4, r4, r3
 8001e58:	19c0      	adds	r0, r0, r7
 8001e5a:	1209      	asrs	r1, r1, #8
 8001e5c:	1212      	asrs	r2, r2, #8
 8001e5e:	1224      	asrs	r4, r4, #8
 8001e60:	1200      	asrs	r0, r0, #8
 8001e62:	2804      	cmp	r0, #4
 8001e64:	d81d      	bhi.n	8001ea2 <_ZN6WS28127set_hsvEhiii+0xba>
 8001e66:	f7fe f94b 	bl	8000100 <__gnu_thumb1_case_uqi>
 8001e6a:	0305      	.short	0x0305
 8001e6c:	130e      	.short	0x130e
 8001e6e:	18          	.byte	0x18
 8001e6f:	00          	.byte	0x00
 8001e70:	002c      	movs	r4, r5
 8001e72:	0015      	movs	r5, r2
 8001e74:	2003      	movs	r0, #3
 8001e76:	9b01      	ldr	r3, [sp, #4]
 8001e78:	4358      	muls	r0, r3
 8001e7a:	9b00      	ldr	r3, [sp, #0]
 8001e7c:	1818      	adds	r0, r3, r0
 8001e7e:	7305      	strb	r5, [r0, #12]
 8001e80:	7344      	strb	r4, [r0, #13]
 8001e82:	7381      	strb	r1, [r0, #14]
 8001e84:	bdf7      	pop	{r0, r1, r2, r4, r5, r6, r7, pc}
 8001e86:	002b      	movs	r3, r5
 8001e88:	000d      	movs	r5, r1
 8001e8a:	0021      	movs	r1, r4
 8001e8c:	001c      	movs	r4, r3
 8001e8e:	e7f1      	b.n	8001e74 <_ZN6WS28127set_hsvEhiii+0x8c>
 8001e90:	002b      	movs	r3, r5
 8001e92:	0014      	movs	r4, r2
 8001e94:	000d      	movs	r5, r1
 8001e96:	0019      	movs	r1, r3
 8001e98:	e7ec      	b.n	8001e74 <_ZN6WS28127set_hsvEhiii+0x8c>
 8001e9a:	002b      	movs	r3, r5
 8001e9c:	0025      	movs	r5, r4
 8001e9e:	000c      	movs	r4, r1
 8001ea0:	e7f9      	b.n	8001e96 <_ZN6WS28127set_hsvEhiii+0xae>
 8001ea2:	000c      	movs	r4, r1
 8001ea4:	0011      	movs	r1, r2
 8001ea6:	e7e5      	b.n	8001e74 <_ZN6WS28127set_hsvEhiii+0x8c>
 8001ea8:	800000ff 	.word	0x800000ff
 8001eac:	ffffff00 	.word	0xffffff00

08001eb0 <_ZN6WS281217do_forwardRewriteEv>:
 8001eb0:	b5f0      	push	{r4, r5, r6, r7, lr}
 8001eb2:	26d0      	movs	r6, #208	; 0xd0
 8001eb4:	2380      	movs	r3, #128	; 0x80
 8001eb6:	00b6      	lsls	r6, r6, #2
 8001eb8:	5984      	ldr	r4, [r0, r6]
 8001eba:	0005      	movs	r5, r0
 8001ebc:	b085      	sub	sp, #20
 8001ebe:	005b      	lsls	r3, r3, #1
 8001ec0:	429c      	cmp	r4, r3
 8001ec2:	d82f      	bhi.n	8001f24 <_ZN6WS281217do_forwardRewriteEv+0x74>
 8001ec4:	3bfd      	subs	r3, #253	; 0xfd
 8001ec6:	4363      	muls	r3, r4
 8001ec8:	18c3      	adds	r3, r0, r3
 8001eca:	7b5a      	ldrb	r2, [r3, #13]
 8001ecc:	2101      	movs	r1, #1
 8001ece:	9201      	str	r2, [sp, #4]
 8001ed0:	7b1a      	ldrb	r2, [r3, #12]
 8001ed2:	7b9b      	ldrb	r3, [r3, #14]
 8001ed4:	9202      	str	r2, [sp, #8]
 8001ed6:	9303      	str	r3, [sp, #12]
 8001ed8:	4b19      	ldr	r3, [pc, #100]	; (8001f40 <_ZN6WS281217do_forwardRewriteEv+0x90>)
 8001eda:	2605      	movs	r6, #5
 8001edc:	18c2      	adds	r2, r0, r3
 8001ede:	2307      	movs	r3, #7
 8001ee0:	200a      	movs	r0, #10
 8001ee2:	9f01      	ldr	r7, [sp, #4]
 8001ee4:	4684      	mov	ip, r0
 8001ee6:	411f      	asrs	r7, r3
 8001ee8:	420f      	tst	r7, r1
 8001eea:	d100      	bne.n	8001eee <_ZN6WS281217do_forwardRewriteEv+0x3e>
 8001eec:	46b4      	mov	ip, r6
 8001eee:	4667      	mov	r7, ip
 8001ef0:	7017      	strb	r7, [r2, #0]
 8001ef2:	9f02      	ldr	r7, [sp, #8]
 8001ef4:	4684      	mov	ip, r0
 8001ef6:	411f      	asrs	r7, r3
 8001ef8:	420f      	tst	r7, r1
 8001efa:	d100      	bne.n	8001efe <_ZN6WS281217do_forwardRewriteEv+0x4e>
 8001efc:	46b4      	mov	ip, r6
 8001efe:	4667      	mov	r7, ip
 8001f00:	7217      	strb	r7, [r2, #8]
 8001f02:	9f03      	ldr	r7, [sp, #12]
 8001f04:	4684      	mov	ip, r0
 8001f06:	411f      	asrs	r7, r3
 8001f08:	420f      	tst	r7, r1
 8001f0a:	d100      	bne.n	8001f0e <_ZN6WS281217do_forwardRewriteEv+0x5e>
 8001f0c:	46b4      	mov	ip, r6
 8001f0e:	4667      	mov	r7, ip
 8001f10:	3201      	adds	r2, #1
 8001f12:	73d7      	strb	r7, [r2, #15]
 8001f14:	3b01      	subs	r3, #1
 8001f16:	d2e4      	bcs.n	8001ee2 <_ZN6WS281217do_forwardRewriteEv+0x32>
 8001f18:	23d0      	movs	r3, #208	; 0xd0
 8001f1a:	3401      	adds	r4, #1
 8001f1c:	009b      	lsls	r3, r3, #2
 8001f1e:	50ec      	str	r4, [r5, r3]
 8001f20:	b005      	add	sp, #20
 8001f22:	bdf0      	pop	{r4, r5, r6, r7, pc}
 8001f24:	2381      	movs	r3, #129	; 0x81
 8001f26:	005b      	lsls	r3, r3, #1
 8001f28:	429c      	cmp	r4, r3
 8001f2a:	d8f9      	bhi.n	8001f20 <_ZN6WS281217do_forwardRewriteEv+0x70>
 8001f2c:	4b04      	ldr	r3, [pc, #16]	; (8001f40 <_ZN6WS281217do_forwardRewriteEv+0x90>)
 8001f2e:	2218      	movs	r2, #24
 8001f30:	2100      	movs	r1, #0
 8001f32:	18c0      	adds	r0, r0, r3
 8001f34:	3401      	adds	r4, #1
 8001f36:	f002 fd4b 	bl	80049d0 <memset>
 8001f3a:	51ac      	str	r4, [r5, r6]
 8001f3c:	e7f0      	b.n	8001f20 <_ZN6WS281217do_forwardRewriteEv+0x70>
 8001f3e:	46c0      	nop			; (mov r8, r8)
 8001f40:	0000030f 	.word	0x0000030f

08001f44 <_ZN6WS281214do_backRewriteEv>:
 8001f44:	b5f0      	push	{r4, r5, r6, r7, lr}
 8001f46:	26d0      	movs	r6, #208	; 0xd0
 8001f48:	2380      	movs	r3, #128	; 0x80
 8001f4a:	00b6      	lsls	r6, r6, #2
 8001f4c:	5985      	ldr	r5, [r0, r6]
 8001f4e:	0004      	movs	r4, r0
 8001f50:	b085      	sub	sp, #20
 8001f52:	005b      	lsls	r3, r3, #1
 8001f54:	429d      	cmp	r5, r3
 8001f56:	d82f      	bhi.n	8001fb8 <_ZN6WS281214do_backRewriteEv+0x74>
 8001f58:	3bfd      	subs	r3, #253	; 0xfd
 8001f5a:	436b      	muls	r3, r5
 8001f5c:	18c3      	adds	r3, r0, r3
 8001f5e:	7b5a      	ldrb	r2, [r3, #13]
 8001f60:	2101      	movs	r1, #1
 8001f62:	9201      	str	r2, [sp, #4]
 8001f64:	7b1a      	ldrb	r2, [r3, #12]
 8001f66:	7b9b      	ldrb	r3, [r3, #14]
 8001f68:	9202      	str	r2, [sp, #8]
 8001f6a:	9303      	str	r3, [sp, #12]
 8001f6c:	4b1c      	ldr	r3, [pc, #112]	; (8001fe0 <_ZN6WS281214do_backRewriteEv+0x9c>)
 8001f6e:	2605      	movs	r6, #5
 8001f70:	18c2      	adds	r2, r0, r3
 8001f72:	2307      	movs	r3, #7
 8001f74:	200a      	movs	r0, #10
 8001f76:	9f01      	ldr	r7, [sp, #4]
 8001f78:	4684      	mov	ip, r0
 8001f7a:	411f      	asrs	r7, r3
 8001f7c:	420f      	tst	r7, r1
 8001f7e:	d100      	bne.n	8001f82 <_ZN6WS281214do_backRewriteEv+0x3e>
 8001f80:	46b4      	mov	ip, r6
 8001f82:	4667      	mov	r7, ip
 8001f84:	7017      	strb	r7, [r2, #0]
 8001f86:	9f02      	ldr	r7, [sp, #8]
 8001f88:	4684      	mov	ip, r0
 8001f8a:	411f      	asrs	r7, r3
 8001f8c:	420f      	tst	r7, r1
 8001f8e:	d100      	bne.n	8001f92 <_ZN6WS281214do_backRewriteEv+0x4e>
 8001f90:	46b4      	mov	ip, r6
 8001f92:	4667      	mov	r7, ip
 8001f94:	7217      	strb	r7, [r2, #8]
 8001f96:	9f03      	ldr	r7, [sp, #12]
 8001f98:	4684      	mov	ip, r0
 8001f9a:	411f      	asrs	r7, r3
 8001f9c:	420f      	tst	r7, r1
 8001f9e:	d100      	bne.n	8001fa2 <_ZN6WS281214do_backRewriteEv+0x5e>
 8001fa0:	46b4      	mov	ip, r6
 8001fa2:	4667      	mov	r7, ip
 8001fa4:	3201      	adds	r2, #1
 8001fa6:	73d7      	strb	r7, [r2, #15]
 8001fa8:	3b01      	subs	r3, #1
 8001faa:	d2e4      	bcs.n	8001f76 <_ZN6WS281214do_backRewriteEv+0x32>
 8001fac:	23d0      	movs	r3, #208	; 0xd0
 8001fae:	3501      	adds	r5, #1
 8001fb0:	009b      	lsls	r3, r3, #2
 8001fb2:	50e5      	str	r5, [r4, r3]
 8001fb4:	b005      	add	sp, #20
 8001fb6:	bdf0      	pop	{r4, r5, r6, r7, pc}
 8001fb8:	2381      	movs	r3, #129	; 0x81
 8001fba:	005b      	lsls	r3, r3, #1
 8001fbc:	429d      	cmp	r5, r3
 8001fbe:	d808      	bhi.n	8001fd2 <_ZN6WS281214do_backRewriteEv+0x8e>
 8001fc0:	4b07      	ldr	r3, [pc, #28]	; (8001fe0 <_ZN6WS281214do_backRewriteEv+0x9c>)
 8001fc2:	2218      	movs	r2, #24
 8001fc4:	2100      	movs	r1, #0
 8001fc6:	18c0      	adds	r0, r0, r3
 8001fc8:	3501      	adds	r5, #1
 8001fca:	f002 fd01 	bl	80049d0 <memset>
 8001fce:	51a5      	str	r5, [r4, r6]
 8001fd0:	e7f0      	b.n	8001fb4 <_ZN6WS281214do_backRewriteEv+0x70>
 8001fd2:	2300      	movs	r3, #0
 8001fd4:	5183      	str	r3, [r0, r6]
 8001fd6:	7801      	ldrb	r1, [r0, #0]
 8001fd8:	6840      	ldr	r0, [r0, #4]
 8001fda:	f001 fb6f 	bl	80036bc <HAL_TIM_PWM_Stop_DMA>
 8001fde:	e7e9      	b.n	8001fb4 <_ZN6WS281214do_backRewriteEv+0x70>
 8001fe0:	00000327 	.word	0x00000327

08001fe4 <Reset_Handler>:
 8001fe4:	480d      	ldr	r0, [pc, #52]	; (800201c <LoopForever+0x2>)
 8001fe6:	4685      	mov	sp, r0
 8001fe8:	f7ff feac 	bl	8001d44 <SystemInit>
 8001fec:	480c      	ldr	r0, [pc, #48]	; (8002020 <LoopForever+0x6>)
 8001fee:	490d      	ldr	r1, [pc, #52]	; (8002024 <LoopForever+0xa>)
 8001ff0:	4a0d      	ldr	r2, [pc, #52]	; (8002028 <LoopForever+0xe>)
 8001ff2:	2300      	movs	r3, #0
 8001ff4:	e002      	b.n	8001ffc <LoopCopyDataInit>

08001ff6 <CopyDataInit>:
 8001ff6:	58d4      	ldr	r4, [r2, r3]
 8001ff8:	50c4      	str	r4, [r0, r3]
 8001ffa:	3304      	adds	r3, #4

08001ffc <LoopCopyDataInit>:
 8001ffc:	18c4      	adds	r4, r0, r3
 8001ffe:	428c      	cmp	r4, r1
 8002000:	d3f9      	bcc.n	8001ff6 <CopyDataInit>
 8002002:	4a0a      	ldr	r2, [pc, #40]	; (800202c <LoopForever+0x12>)
 8002004:	4c0a      	ldr	r4, [pc, #40]	; (8002030 <LoopForever+0x16>)
 8002006:	2300      	movs	r3, #0
 8002008:	e001      	b.n	800200e <LoopFillZerobss>

0800200a <FillZerobss>:
 800200a:	6013      	str	r3, [r2, #0]
 800200c:	3204      	adds	r2, #4

0800200e <LoopFillZerobss>:
 800200e:	42a2      	cmp	r2, r4
 8002010:	d3fb      	bcc.n	800200a <FillZerobss>
 8002012:	f002 fcb9 	bl	8004988 <__libc_init_array>
 8002016:	f7ff fc19 	bl	800184c <main>

0800201a <LoopForever>:
 800201a:	e7fe      	b.n	800201a <LoopForever>
 800201c:	20002000 	.word	0x20002000
 8002020:	20000000 	.word	0x20000000
 8002024:	2000000c 	.word	0x2000000c
 8002028:	08004e90 	.word	0x08004e90
 800202c:	2000000c 	.word	0x2000000c
 8002030:	200005d0 	.word	0x200005d0

08002034 <ADC1_IRQHandler>:
 8002034:	e7fe      	b.n	8002034 <ADC1_IRQHandler>
	...

08002038 <HAL_InitTick>:
 8002038:	b570      	push	{r4, r5, r6, lr}
 800203a:	4b10      	ldr	r3, [pc, #64]	; (800207c <HAL_InitTick+0x44>)
 800203c:	0005      	movs	r5, r0
 800203e:	7819      	ldrb	r1, [r3, #0]
 8002040:	2900      	cmp	r1, #0
 8002042:	d101      	bne.n	8002048 <HAL_InitTick+0x10>
 8002044:	2001      	movs	r0, #1
 8002046:	bd70      	pop	{r4, r5, r6, pc}
 8002048:	20fa      	movs	r0, #250	; 0xfa
 800204a:	0080      	lsls	r0, r0, #2
 800204c:	f7fe f862 	bl	8000114 <__udivsi3>
 8002050:	4b0b      	ldr	r3, [pc, #44]	; (8002080 <HAL_InitTick+0x48>)
 8002052:	0001      	movs	r1, r0
 8002054:	6818      	ldr	r0, [r3, #0]
 8002056:	f7fe f85d 	bl	8000114 <__udivsi3>
 800205a:	f000 f883 	bl	8002164 <HAL_SYSTICK_Config>
 800205e:	1e04      	subs	r4, r0, #0
 8002060:	d1f0      	bne.n	8002044 <HAL_InitTick+0xc>
 8002062:	2d03      	cmp	r5, #3
 8002064:	d8ee      	bhi.n	8002044 <HAL_InitTick+0xc>
 8002066:	0002      	movs	r2, r0
 8002068:	2001      	movs	r0, #1
 800206a:	0029      	movs	r1, r5
 800206c:	4240      	negs	r0, r0
 800206e:	f000 f843 	bl	80020f8 <HAL_NVIC_SetPriority>
 8002072:	4b04      	ldr	r3, [pc, #16]	; (8002084 <HAL_InitTick+0x4c>)
 8002074:	0020      	movs	r0, r4
 8002076:	601d      	str	r5, [r3, #0]
 8002078:	e7e5      	b.n	8002046 <HAL_InitTick+0xe>
 800207a:	46c0      	nop			; (mov r8, r8)
 800207c:	20000004 	.word	0x20000004
 8002080:	20000000 	.word	0x20000000
 8002084:	20000008 	.word	0x20000008

08002088 <HAL_Init>:
 8002088:	2380      	movs	r3, #128	; 0x80
 800208a:	4a08      	ldr	r2, [pc, #32]	; (80020ac <HAL_Init+0x24>)
 800208c:	005b      	lsls	r3, r3, #1
 800208e:	6811      	ldr	r1, [r2, #0]
 8002090:	b510      	push	{r4, lr}
 8002092:	430b      	orrs	r3, r1
 8002094:	2003      	movs	r0, #3
 8002096:	6013      	str	r3, [r2, #0]
 8002098:	f7ff ffce 	bl	8002038 <HAL_InitTick>
 800209c:	1e04      	subs	r4, r0, #0
 800209e:	d103      	bne.n	80020a8 <HAL_Init+0x20>
 80020a0:	f7ff fd74 	bl	8001b8c <HAL_MspInit>
 80020a4:	0020      	movs	r0, r4
 80020a6:	bd10      	pop	{r4, pc}
 80020a8:	2401      	movs	r4, #1
 80020aa:	e7fb      	b.n	80020a4 <HAL_Init+0x1c>
 80020ac:	40022000 	.word	0x40022000

080020b0 <HAL_IncTick>:
 80020b0:	4a03      	ldr	r2, [pc, #12]	; (80020c0 <HAL_IncTick+0x10>)
 80020b2:	4b04      	ldr	r3, [pc, #16]	; (80020c4 <HAL_IncTick+0x14>)
 80020b4:	6811      	ldr	r1, [r2, #0]
 80020b6:	781b      	ldrb	r3, [r3, #0]
 80020b8:	185b      	adds	r3, r3, r1
 80020ba:	6013      	str	r3, [r2, #0]
 80020bc:	4770      	bx	lr
 80020be:	46c0      	nop			; (mov r8, r8)
 80020c0:	200005cc 	.word	0x200005cc
 80020c4:	20000004 	.word	0x20000004

080020c8 <HAL_GetTick>:
 80020c8:	4b01      	ldr	r3, [pc, #4]	; (80020d0 <HAL_GetTick+0x8>)
 80020ca:	6818      	ldr	r0, [r3, #0]
 80020cc:	4770      	bx	lr
 80020ce:	46c0      	nop			; (mov r8, r8)
 80020d0:	200005cc 	.word	0x200005cc

080020d4 <HAL_Delay>:
 80020d4:	b570      	push	{r4, r5, r6, lr}
 80020d6:	0004      	movs	r4, r0
 80020d8:	f7ff fff6 	bl	80020c8 <HAL_GetTick>
 80020dc:	0005      	movs	r5, r0
 80020de:	1c63      	adds	r3, r4, #1
 80020e0:	d002      	beq.n	80020e8 <HAL_Delay+0x14>
 80020e2:	4b04      	ldr	r3, [pc, #16]	; (80020f4 <HAL_Delay+0x20>)
 80020e4:	781b      	ldrb	r3, [r3, #0]
 80020e6:	18e4      	adds	r4, r4, r3
 80020e8:	f7ff ffee 	bl	80020c8 <HAL_GetTick>
 80020ec:	1b40      	subs	r0, r0, r5
 80020ee:	42a0      	cmp	r0, r4
 80020f0:	d3fa      	bcc.n	80020e8 <HAL_Delay+0x14>
 80020f2:	bd70      	pop	{r4, r5, r6, pc}
 80020f4:	20000004 	.word	0x20000004

080020f8 <HAL_NVIC_SetPriority>:
 80020f8:	b530      	push	{r4, r5, lr}
 80020fa:	25ff      	movs	r5, #255	; 0xff
 80020fc:	2403      	movs	r4, #3
 80020fe:	002a      	movs	r2, r5
 8002100:	4004      	ands	r4, r0
 8002102:	00e4      	lsls	r4, r4, #3
 8002104:	40a2      	lsls	r2, r4
 8002106:	0189      	lsls	r1, r1, #6
 8002108:	4029      	ands	r1, r5
 800210a:	43d2      	mvns	r2, r2
 800210c:	40a1      	lsls	r1, r4
 800210e:	b2c3      	uxtb	r3, r0
 8002110:	2800      	cmp	r0, #0
 8002112:	db0a      	blt.n	800212a <HAL_NVIC_SetPriority+0x32>
 8002114:	24c0      	movs	r4, #192	; 0xc0
 8002116:	4b0b      	ldr	r3, [pc, #44]	; (8002144 <HAL_NVIC_SetPriority+0x4c>)
 8002118:	0880      	lsrs	r0, r0, #2
 800211a:	0080      	lsls	r0, r0, #2
 800211c:	18c0      	adds	r0, r0, r3
 800211e:	00a4      	lsls	r4, r4, #2
 8002120:	5903      	ldr	r3, [r0, r4]
 8002122:	401a      	ands	r2, r3
 8002124:	4311      	orrs	r1, r2
 8002126:	5101      	str	r1, [r0, r4]
 8002128:	bd30      	pop	{r4, r5, pc}
 800212a:	200f      	movs	r0, #15
 800212c:	4003      	ands	r3, r0
 800212e:	3b08      	subs	r3, #8
 8002130:	4805      	ldr	r0, [pc, #20]	; (8002148 <HAL_NVIC_SetPriority+0x50>)
 8002132:	089b      	lsrs	r3, r3, #2
 8002134:	009b      	lsls	r3, r3, #2
 8002136:	181b      	adds	r3, r3, r0
 8002138:	69d8      	ldr	r0, [r3, #28]
 800213a:	4002      	ands	r2, r0
 800213c:	4311      	orrs	r1, r2
 800213e:	61d9      	str	r1, [r3, #28]
 8002140:	e7f2      	b.n	8002128 <HAL_NVIC_SetPriority+0x30>
 8002142:	46c0      	nop			; (mov r8, r8)
 8002144:	e000e100 	.word	0xe000e100
 8002148:	e000ed00 	.word	0xe000ed00

0800214c <HAL_NVIC_EnableIRQ>:
 800214c:	2800      	cmp	r0, #0
 800214e:	db05      	blt.n	800215c <HAL_NVIC_EnableIRQ+0x10>
 8002150:	231f      	movs	r3, #31
 8002152:	4018      	ands	r0, r3
 8002154:	3b1e      	subs	r3, #30
 8002156:	4083      	lsls	r3, r0
 8002158:	4a01      	ldr	r2, [pc, #4]	; (8002160 <HAL_NVIC_EnableIRQ+0x14>)
 800215a:	6013      	str	r3, [r2, #0]
 800215c:	4770      	bx	lr
 800215e:	46c0      	nop			; (mov r8, r8)
 8002160:	e000e100 	.word	0xe000e100

08002164 <HAL_SYSTICK_Config>:
 8002164:	2280      	movs	r2, #128	; 0x80
 8002166:	1e43      	subs	r3, r0, #1
 8002168:	0452      	lsls	r2, r2, #17
 800216a:	2001      	movs	r0, #1
 800216c:	4293      	cmp	r3, r2
 800216e:	d20d      	bcs.n	800218c <HAL_SYSTICK_Config+0x28>
 8002170:	21c0      	movs	r1, #192	; 0xc0
 8002172:	4a07      	ldr	r2, [pc, #28]	; (8002190 <HAL_SYSTICK_Config+0x2c>)
 8002174:	4807      	ldr	r0, [pc, #28]	; (8002194 <HAL_SYSTICK_Config+0x30>)
 8002176:	6053      	str	r3, [r2, #4]
 8002178:	6a03      	ldr	r3, [r0, #32]
 800217a:	0609      	lsls	r1, r1, #24
 800217c:	021b      	lsls	r3, r3, #8
 800217e:	0a1b      	lsrs	r3, r3, #8
 8002180:	430b      	orrs	r3, r1
 8002182:	6203      	str	r3, [r0, #32]
 8002184:	2000      	movs	r0, #0
 8002186:	2307      	movs	r3, #7
 8002188:	6090      	str	r0, [r2, #8]
 800218a:	6013      	str	r3, [r2, #0]
 800218c:	4770      	bx	lr
 800218e:	46c0      	nop			; (mov r8, r8)
 8002190:	e000e010 	.word	0xe000e010
 8002194:	e000ed00 	.word	0xe000ed00

08002198 <DMA_SetConfig>:
 8002198:	b5f0      	push	{r4, r5, r6, r7, lr}
 800219a:	6c84      	ldr	r4, [r0, #72]	; 0x48
 800219c:	6cc5      	ldr	r5, [r0, #76]	; 0x4c
 800219e:	6065      	str	r5, [r4, #4]
 80021a0:	6d04      	ldr	r4, [r0, #80]	; 0x50
 80021a2:	2c00      	cmp	r4, #0
 80021a4:	d002      	beq.n	80021ac <DMA_SetConfig+0x14>
 80021a6:	6d44      	ldr	r4, [r0, #84]	; 0x54
 80021a8:	6d85      	ldr	r5, [r0, #88]	; 0x58
 80021aa:	6065      	str	r5, [r4, #4]
 80021ac:	251c      	movs	r5, #28
 80021ae:	6c04      	ldr	r4, [r0, #64]	; 0x40
 80021b0:	4e08      	ldr	r6, [pc, #32]	; (80021d4 <DMA_SetConfig+0x3c>)
 80021b2:	4025      	ands	r5, r4
 80021b4:	2401      	movs	r4, #1
 80021b6:	40ac      	lsls	r4, r5
 80021b8:	6877      	ldr	r7, [r6, #4]
 80021ba:	433c      	orrs	r4, r7
 80021bc:	6074      	str	r4, [r6, #4]
 80021be:	6804      	ldr	r4, [r0, #0]
 80021c0:	6063      	str	r3, [r4, #4]
 80021c2:	6883      	ldr	r3, [r0, #8]
 80021c4:	2b10      	cmp	r3, #16
 80021c6:	d102      	bne.n	80021ce <DMA_SetConfig+0x36>
 80021c8:	60a2      	str	r2, [r4, #8]
 80021ca:	60e1      	str	r1, [r4, #12]
 80021cc:	bdf0      	pop	{r4, r5, r6, r7, pc}
 80021ce:	60a1      	str	r1, [r4, #8]
 80021d0:	60e2      	str	r2, [r4, #12]
 80021d2:	e7fb      	b.n	80021cc <DMA_SetConfig+0x34>
 80021d4:	40020000 	.word	0x40020000

080021d8 <DMA_CalcDMAMUXChannelBaseAndMask>:
 80021d8:	b510      	push	{r4, lr}
 80021da:	0004      	movs	r4, r0
 80021dc:	6c03      	ldr	r3, [r0, #64]	; 0x40
 80021de:	4a09      	ldr	r2, [pc, #36]	; (8002204 <DMA_CalcDMAMUXChannelBaseAndMask+0x2c>)
 80021e0:	089b      	lsrs	r3, r3, #2
 80021e2:	189b      	adds	r3, r3, r2
 80021e4:	009b      	lsls	r3, r3, #2
 80021e6:	6443      	str	r3, [r0, #68]	; 0x44
 80021e8:	6803      	ldr	r3, [r0, #0]
 80021ea:	2114      	movs	r1, #20
 80021ec:	b2d8      	uxtb	r0, r3
 80021ee:	3808      	subs	r0, #8
 80021f0:	f7fd ff90 	bl	8000114 <__udivsi3>
 80021f4:	4b04      	ldr	r3, [pc, #16]	; (8002208 <DMA_CalcDMAMUXChannelBaseAndMask+0x30>)
 80021f6:	64a3      	str	r3, [r4, #72]	; 0x48
 80021f8:	231f      	movs	r3, #31
 80021fa:	4018      	ands	r0, r3
 80021fc:	3b1e      	subs	r3, #30
 80021fe:	4083      	lsls	r3, r0
 8002200:	64e3      	str	r3, [r4, #76]	; 0x4c
 8002202:	bd10      	pop	{r4, pc}
 8002204:	10008200 	.word	0x10008200
 8002208:	40020880 	.word	0x40020880

0800220c <HAL_DMA_Init>:
 800220c:	b570      	push	{r4, r5, r6, lr}
 800220e:	0004      	movs	r4, r0
 8002210:	2001      	movs	r0, #1
 8002212:	2c00      	cmp	r4, #0
 8002214:	d049      	beq.n	80022aa <HAL_DMA_Init+0x9e>
 8002216:	6825      	ldr	r5, [r4, #0]
 8002218:	4b27      	ldr	r3, [pc, #156]	; (80022b8 <HAL_DMA_Init+0xac>)
 800221a:	2114      	movs	r1, #20
 800221c:	18e8      	adds	r0, r5, r3
 800221e:	f7fd ff79 	bl	8000114 <__udivsi3>
 8002222:	2302      	movs	r3, #2
 8002224:	0080      	lsls	r0, r0, #2
 8002226:	1da6      	adds	r6, r4, #6
 8002228:	6420      	str	r0, [r4, #64]	; 0x40
 800222a:	77f3      	strb	r3, [r6, #31]
 800222c:	682b      	ldr	r3, [r5, #0]
 800222e:	4a23      	ldr	r2, [pc, #140]	; (80022bc <HAL_DMA_Init+0xb0>)
 8002230:	68e1      	ldr	r1, [r4, #12]
 8002232:	4013      	ands	r3, r2
 8002234:	602b      	str	r3, [r5, #0]
 8002236:	68a3      	ldr	r3, [r4, #8]
 8002238:	682a      	ldr	r2, [r5, #0]
 800223a:	430b      	orrs	r3, r1
 800223c:	6921      	ldr	r1, [r4, #16]
 800223e:	0020      	movs	r0, r4
 8002240:	430b      	orrs	r3, r1
 8002242:	6961      	ldr	r1, [r4, #20]
 8002244:	430b      	orrs	r3, r1
 8002246:	69a1      	ldr	r1, [r4, #24]
 8002248:	430b      	orrs	r3, r1
 800224a:	69e1      	ldr	r1, [r4, #28]
 800224c:	430b      	orrs	r3, r1
 800224e:	6a21      	ldr	r1, [r4, #32]
 8002250:	430b      	orrs	r3, r1
 8002252:	4313      	orrs	r3, r2
 8002254:	602b      	str	r3, [r5, #0]
 8002256:	f7ff ffbf 	bl	80021d8 <DMA_CalcDMAMUXChannelBaseAndMask>
 800225a:	2380      	movs	r3, #128	; 0x80
 800225c:	68a2      	ldr	r2, [r4, #8]
 800225e:	01db      	lsls	r3, r3, #7
 8002260:	429a      	cmp	r2, r3
 8002262:	d101      	bne.n	8002268 <HAL_DMA_Init+0x5c>
 8002264:	2300      	movs	r3, #0
 8002266:	6063      	str	r3, [r4, #4]
 8002268:	233f      	movs	r3, #63	; 0x3f
 800226a:	6862      	ldr	r2, [r4, #4]
 800226c:	6c61      	ldr	r1, [r4, #68]	; 0x44
 800226e:	4013      	ands	r3, r2
 8002270:	600b      	str	r3, [r1, #0]
 8002272:	6ce0      	ldr	r0, [r4, #76]	; 0x4c
 8002274:	6ca1      	ldr	r1, [r4, #72]	; 0x48
 8002276:	3a01      	subs	r2, #1
 8002278:	6048      	str	r0, [r1, #4]
 800227a:	2a03      	cmp	r2, #3
 800227c:	d816      	bhi.n	80022ac <HAL_DMA_Init+0xa0>
 800227e:	4a10      	ldr	r2, [pc, #64]	; (80022c0 <HAL_DMA_Init+0xb4>)
 8002280:	4810      	ldr	r0, [pc, #64]	; (80022c4 <HAL_DMA_Init+0xb8>)
 8002282:	1899      	adds	r1, r3, r2
 8002284:	2203      	movs	r2, #3
 8002286:	3b01      	subs	r3, #1
 8002288:	4013      	ands	r3, r2
 800228a:	3a02      	subs	r2, #2
 800228c:	409a      	lsls	r2, r3
 800228e:	65a2      	str	r2, [r4, #88]	; 0x58
 8002290:	0013      	movs	r3, r2
 8002292:	2200      	movs	r2, #0
 8002294:	0089      	lsls	r1, r1, #2
 8002296:	6521      	str	r1, [r4, #80]	; 0x50
 8002298:	6560      	str	r0, [r4, #84]	; 0x54
 800229a:	600a      	str	r2, [r1, #0]
 800229c:	6043      	str	r3, [r0, #4]
 800229e:	2000      	movs	r0, #0
 80022a0:	2301      	movs	r3, #1
 80022a2:	63e0      	str	r0, [r4, #60]	; 0x3c
 80022a4:	3405      	adds	r4, #5
 80022a6:	77f3      	strb	r3, [r6, #31]
 80022a8:	77e0      	strb	r0, [r4, #31]
 80022aa:	bd70      	pop	{r4, r5, r6, pc}
 80022ac:	2300      	movs	r3, #0
 80022ae:	6523      	str	r3, [r4, #80]	; 0x50
 80022b0:	6563      	str	r3, [r4, #84]	; 0x54
 80022b2:	65a3      	str	r3, [r4, #88]	; 0x58
 80022b4:	e7f3      	b.n	800229e <HAL_DMA_Init+0x92>
 80022b6:	46c0      	nop			; (mov r8, r8)
 80022b8:	bffdfff8 	.word	0xbffdfff8
 80022bc:	ffff800f 	.word	0xffff800f
 80022c0:	1000823f 	.word	0x1000823f
 80022c4:	40020940 	.word	0x40020940

080022c8 <HAL_DMA_Start_IT>:
 80022c8:	b5f7      	push	{r0, r1, r2, r4, r5, r6, r7, lr}
 80022ca:	1d45      	adds	r5, r0, #5
 80022cc:	9301      	str	r3, [sp, #4]
 80022ce:	7fee      	ldrb	r6, [r5, #31]
 80022d0:	0004      	movs	r4, r0
 80022d2:	2002      	movs	r0, #2
 80022d4:	2e01      	cmp	r6, #1
 80022d6:	d034      	beq.n	8002342 <HAL_DMA_Start_IT+0x7a>
 80022d8:	3801      	subs	r0, #1
 80022da:	77e8      	strb	r0, [r5, #31]
 80022dc:	1da7      	adds	r7, r4, #6
 80022de:	7ffe      	ldrb	r6, [r7, #31]
 80022e0:	46b4      	mov	ip, r6
 80022e2:	4663      	mov	r3, ip
 80022e4:	b2f6      	uxtb	r6, r6
 80022e6:	9600      	str	r6, [sp, #0]
 80022e8:	2600      	movs	r6, #0
 80022ea:	4283      	cmp	r3, r0
 80022ec:	d131      	bne.n	8002352 <HAL_DMA_Start_IT+0x8a>
 80022ee:	3001      	adds	r0, #1
 80022f0:	77f8      	strb	r0, [r7, #31]
 80022f2:	6825      	ldr	r5, [r4, #0]
 80022f4:	63e6      	str	r6, [r4, #60]	; 0x3c
 80022f6:	6828      	ldr	r0, [r5, #0]
 80022f8:	9b00      	ldr	r3, [sp, #0]
 80022fa:	4398      	bics	r0, r3
 80022fc:	6028      	str	r0, [r5, #0]
 80022fe:	9b01      	ldr	r3, [sp, #4]
 8002300:	0020      	movs	r0, r4
 8002302:	f7ff ff49 	bl	8002198 <DMA_SetConfig>
 8002306:	6b22      	ldr	r2, [r4, #48]	; 0x30
 8002308:	6823      	ldr	r3, [r4, #0]
 800230a:	42b2      	cmp	r2, r6
 800230c:	d01a      	beq.n	8002344 <HAL_DMA_Start_IT+0x7c>
 800230e:	220e      	movs	r2, #14
 8002310:	6819      	ldr	r1, [r3, #0]
 8002312:	430a      	orrs	r2, r1
 8002314:	601a      	str	r2, [r3, #0]
 8002316:	6c62      	ldr	r2, [r4, #68]	; 0x44
 8002318:	6811      	ldr	r1, [r2, #0]
 800231a:	03c9      	lsls	r1, r1, #15
 800231c:	d504      	bpl.n	8002328 <HAL_DMA_Start_IT+0x60>
 800231e:	2180      	movs	r1, #128	; 0x80
 8002320:	6810      	ldr	r0, [r2, #0]
 8002322:	0049      	lsls	r1, r1, #1
 8002324:	4301      	orrs	r1, r0
 8002326:	6011      	str	r1, [r2, #0]
 8002328:	6d22      	ldr	r2, [r4, #80]	; 0x50
 800232a:	2a00      	cmp	r2, #0
 800232c:	d004      	beq.n	8002338 <HAL_DMA_Start_IT+0x70>
 800232e:	2180      	movs	r1, #128	; 0x80
 8002330:	6810      	ldr	r0, [r2, #0]
 8002332:	0049      	lsls	r1, r1, #1
 8002334:	4301      	orrs	r1, r0
 8002336:	6011      	str	r1, [r2, #0]
 8002338:	2201      	movs	r2, #1
 800233a:	2000      	movs	r0, #0
 800233c:	6819      	ldr	r1, [r3, #0]
 800233e:	430a      	orrs	r2, r1
 8002340:	601a      	str	r2, [r3, #0]
 8002342:	bdfe      	pop	{r1, r2, r3, r4, r5, r6, r7, pc}
 8002344:	2104      	movs	r1, #4
 8002346:	681a      	ldr	r2, [r3, #0]
 8002348:	438a      	bics	r2, r1
 800234a:	601a      	str	r2, [r3, #0]
 800234c:	6819      	ldr	r1, [r3, #0]
 800234e:	220a      	movs	r2, #10
 8002350:	e7df      	b.n	8002312 <HAL_DMA_Start_IT+0x4a>
 8002352:	2380      	movs	r3, #128	; 0x80
 8002354:	63e3      	str	r3, [r4, #60]	; 0x3c
 8002356:	77ee      	strb	r6, [r5, #31]
 8002358:	e7f3      	b.n	8002342 <HAL_DMA_Start_IT+0x7a>
	...

0800235c <HAL_DMA_Abort_IT>:
 800235c:	b5f8      	push	{r3, r4, r5, r6, r7, lr}
 800235e:	1d81      	adds	r1, r0, #6
 8002360:	7fcb      	ldrb	r3, [r1, #31]
 8002362:	2b02      	cmp	r3, #2
 8002364:	d004      	beq.n	8002370 <HAL_DMA_Abort_IT+0x14>
 8002366:	2304      	movs	r3, #4
 8002368:	63c3      	str	r3, [r0, #60]	; 0x3c
 800236a:	3b03      	subs	r3, #3
 800236c:	0018      	movs	r0, r3
 800236e:	bdf8      	pop	{r3, r4, r5, r6, r7, pc}
 8002370:	240e      	movs	r4, #14
 8002372:	6802      	ldr	r2, [r0, #0]
 8002374:	4d15      	ldr	r5, [pc, #84]	; (80023cc <HAL_DMA_Abort_IT+0x70>)
 8002376:	6813      	ldr	r3, [r2, #0]
 8002378:	6c07      	ldr	r7, [r0, #64]	; 0x40
 800237a:	43a3      	bics	r3, r4
 800237c:	6013      	str	r3, [r2, #0]
 800237e:	2301      	movs	r3, #1
 8002380:	6814      	ldr	r4, [r2, #0]
 8002382:	439c      	bics	r4, r3
 8002384:	6014      	str	r4, [r2, #0]
 8002386:	6c44      	ldr	r4, [r0, #68]	; 0x44
 8002388:	6822      	ldr	r2, [r4, #0]
 800238a:	402a      	ands	r2, r5
 800238c:	6022      	str	r2, [r4, #0]
 800238e:	241c      	movs	r4, #28
 8002390:	403c      	ands	r4, r7
 8002392:	40a3      	lsls	r3, r4
 8002394:	4a0e      	ldr	r2, [pc, #56]	; (80023d0 <HAL_DMA_Abort_IT+0x74>)
 8002396:	6856      	ldr	r6, [r2, #4]
 8002398:	4333      	orrs	r3, r6
 800239a:	6053      	str	r3, [r2, #4]
 800239c:	6cc2      	ldr	r2, [r0, #76]	; 0x4c
 800239e:	6c83      	ldr	r3, [r0, #72]	; 0x48
 80023a0:	605a      	str	r2, [r3, #4]
 80023a2:	6d03      	ldr	r3, [r0, #80]	; 0x50
 80023a4:	2b00      	cmp	r3, #0
 80023a6:	d005      	beq.n	80023b4 <HAL_DMA_Abort_IT+0x58>
 80023a8:	681a      	ldr	r2, [r3, #0]
 80023aa:	402a      	ands	r2, r5
 80023ac:	601a      	str	r2, [r3, #0]
 80023ae:	6d43      	ldr	r3, [r0, #84]	; 0x54
 80023b0:	6d82      	ldr	r2, [r0, #88]	; 0x58
 80023b2:	605a      	str	r2, [r3, #4]
 80023b4:	2301      	movs	r3, #1
 80023b6:	2400      	movs	r4, #0
 80023b8:	77cb      	strb	r3, [r1, #31]
 80023ba:	1d43      	adds	r3, r0, #5
 80023bc:	77dc      	strb	r4, [r3, #31]
 80023be:	6b82      	ldr	r2, [r0, #56]	; 0x38
 80023c0:	0013      	movs	r3, r2
 80023c2:	42a2      	cmp	r2, r4
 80023c4:	d0d2      	beq.n	800236c <HAL_DMA_Abort_IT+0x10>
 80023c6:	4790      	blx	r2
 80023c8:	0023      	movs	r3, r4
 80023ca:	e7cf      	b.n	800236c <HAL_DMA_Abort_IT+0x10>
 80023cc:	fffffeff 	.word	0xfffffeff
 80023d0:	40020000 	.word	0x40020000

080023d4 <HAL_DMA_IRQHandler>:
 80023d4:	b5f8      	push	{r3, r4, r5, r6, r7, lr}
 80023d6:	211c      	movs	r1, #28
 80023d8:	2704      	movs	r7, #4
 80023da:	6c04      	ldr	r4, [r0, #64]	; 0x40
 80023dc:	4a26      	ldr	r2, [pc, #152]	; (8002478 <HAL_DMA_IRQHandler+0xa4>)
 80023de:	4021      	ands	r1, r4
 80023e0:	003c      	movs	r4, r7
 80023e2:	408c      	lsls	r4, r1
 80023e4:	6816      	ldr	r6, [r2, #0]
 80023e6:	6803      	ldr	r3, [r0, #0]
 80023e8:	681d      	ldr	r5, [r3, #0]
 80023ea:	4226      	tst	r6, r4
 80023ec:	d00f      	beq.n	800240e <HAL_DMA_IRQHandler+0x3a>
 80023ee:	423d      	tst	r5, r7
 80023f0:	d00d      	beq.n	800240e <HAL_DMA_IRQHandler+0x3a>
 80023f2:	6819      	ldr	r1, [r3, #0]
 80023f4:	0689      	lsls	r1, r1, #26
 80023f6:	d402      	bmi.n	80023fe <HAL_DMA_IRQHandler+0x2a>
 80023f8:	6819      	ldr	r1, [r3, #0]
 80023fa:	43b9      	bics	r1, r7
 80023fc:	6019      	str	r1, [r3, #0]
 80023fe:	6853      	ldr	r3, [r2, #4]
 8002400:	431c      	orrs	r4, r3
 8002402:	6b03      	ldr	r3, [r0, #48]	; 0x30
 8002404:	6054      	str	r4, [r2, #4]
 8002406:	2b00      	cmp	r3, #0
 8002408:	d01b      	beq.n	8002442 <HAL_DMA_IRQHandler+0x6e>
 800240a:	4798      	blx	r3
 800240c:	e019      	b.n	8002442 <HAL_DMA_IRQHandler+0x6e>
 800240e:	2702      	movs	r7, #2
 8002410:	003c      	movs	r4, r7
 8002412:	408c      	lsls	r4, r1
 8002414:	4226      	tst	r6, r4
 8002416:	d015      	beq.n	8002444 <HAL_DMA_IRQHandler+0x70>
 8002418:	423d      	tst	r5, r7
 800241a:	d013      	beq.n	8002444 <HAL_DMA_IRQHandler+0x70>
 800241c:	6819      	ldr	r1, [r3, #0]
 800241e:	0689      	lsls	r1, r1, #26
 8002420:	d406      	bmi.n	8002430 <HAL_DMA_IRQHandler+0x5c>
 8002422:	250a      	movs	r5, #10
 8002424:	6819      	ldr	r1, [r3, #0]
 8002426:	43a9      	bics	r1, r5
 8002428:	6019      	str	r1, [r3, #0]
 800242a:	2101      	movs	r1, #1
 800242c:	1d83      	adds	r3, r0, #6
 800242e:	77d9      	strb	r1, [r3, #31]
 8002430:	6853      	ldr	r3, [r2, #4]
 8002432:	431c      	orrs	r4, r3
 8002434:	6054      	str	r4, [r2, #4]
 8002436:	2200      	movs	r2, #0
 8002438:	1d43      	adds	r3, r0, #5
 800243a:	77da      	strb	r2, [r3, #31]
 800243c:	6ac3      	ldr	r3, [r0, #44]	; 0x2c
 800243e:	4293      	cmp	r3, r2
 8002440:	d1e3      	bne.n	800240a <HAL_DMA_IRQHandler+0x36>
 8002442:	bdf8      	pop	{r3, r4, r5, r6, r7, pc}
 8002444:	2408      	movs	r4, #8
 8002446:	0027      	movs	r7, r4
 8002448:	408f      	lsls	r7, r1
 800244a:	423e      	tst	r6, r7
 800244c:	d0f9      	beq.n	8002442 <HAL_DMA_IRQHandler+0x6e>
 800244e:	4225      	tst	r5, r4
 8002450:	d0f7      	beq.n	8002442 <HAL_DMA_IRQHandler+0x6e>
 8002452:	250e      	movs	r5, #14
 8002454:	681c      	ldr	r4, [r3, #0]
 8002456:	43ac      	bics	r4, r5
 8002458:	601c      	str	r4, [r3, #0]
 800245a:	2301      	movs	r3, #1
 800245c:	001d      	movs	r5, r3
 800245e:	408d      	lsls	r5, r1
 8002460:	0029      	movs	r1, r5
 8002462:	6854      	ldr	r4, [r2, #4]
 8002464:	4321      	orrs	r1, r4
 8002466:	6051      	str	r1, [r2, #4]
 8002468:	1d82      	adds	r2, r0, #6
 800246a:	63c3      	str	r3, [r0, #60]	; 0x3c
 800246c:	77d3      	strb	r3, [r2, #31]
 800246e:	2200      	movs	r2, #0
 8002470:	1d43      	adds	r3, r0, #5
 8002472:	77da      	strb	r2, [r3, #31]
 8002474:	6b43      	ldr	r3, [r0, #52]	; 0x34
 8002476:	e7e2      	b.n	800243e <HAL_DMA_IRQHandler+0x6a>
 8002478:	40020000 	.word	0x40020000

0800247c <HAL_GPIO_Init>:
 800247c:	2300      	movs	r3, #0
 800247e:	b5f0      	push	{r4, r5, r6, r7, lr}
 8002480:	b085      	sub	sp, #20
 8002482:	680a      	ldr	r2, [r1, #0]
 8002484:	0014      	movs	r4, r2
 8002486:	40dc      	lsrs	r4, r3
 8002488:	d101      	bne.n	800248e <HAL_GPIO_Init+0x12>
 800248a:	b005      	add	sp, #20
 800248c:	bdf0      	pop	{r4, r5, r6, r7, pc}
 800248e:	2501      	movs	r5, #1
 8002490:	0014      	movs	r4, r2
 8002492:	409d      	lsls	r5, r3
 8002494:	402c      	ands	r4, r5
 8002496:	9401      	str	r4, [sp, #4]
 8002498:	422a      	tst	r2, r5
 800249a:	d100      	bne.n	800249e <HAL_GPIO_Init+0x22>
 800249c:	e08e      	b.n	80025bc <HAL_GPIO_Init+0x140>
 800249e:	684a      	ldr	r2, [r1, #4]
 80024a0:	005e      	lsls	r6, r3, #1
 80024a2:	4694      	mov	ip, r2
 80024a4:	2203      	movs	r2, #3
 80024a6:	4664      	mov	r4, ip
 80024a8:	4022      	ands	r2, r4
 80024aa:	2403      	movs	r4, #3
 80024ac:	40b4      	lsls	r4, r6
 80024ae:	43e4      	mvns	r4, r4
 80024b0:	9402      	str	r4, [sp, #8]
 80024b2:	1e54      	subs	r4, r2, #1
 80024b4:	2c01      	cmp	r4, #1
 80024b6:	d82a      	bhi.n	800250e <HAL_GPIO_Init+0x92>
 80024b8:	6887      	ldr	r7, [r0, #8]
 80024ba:	9c02      	ldr	r4, [sp, #8]
 80024bc:	4027      	ands	r7, r4
 80024be:	68cc      	ldr	r4, [r1, #12]
 80024c0:	40b4      	lsls	r4, r6
 80024c2:	433c      	orrs	r4, r7
 80024c4:	6084      	str	r4, [r0, #8]
 80024c6:	6844      	ldr	r4, [r0, #4]
 80024c8:	2701      	movs	r7, #1
 80024ca:	43ac      	bics	r4, r5
 80024cc:	0025      	movs	r5, r4
 80024ce:	4664      	mov	r4, ip
 80024d0:	0924      	lsrs	r4, r4, #4
 80024d2:	403c      	ands	r4, r7
 80024d4:	409c      	lsls	r4, r3
 80024d6:	432c      	orrs	r4, r5
 80024d8:	6044      	str	r4, [r0, #4]
 80024da:	68c5      	ldr	r5, [r0, #12]
 80024dc:	9c02      	ldr	r4, [sp, #8]
 80024de:	4025      	ands	r5, r4
 80024e0:	688c      	ldr	r4, [r1, #8]
 80024e2:	40b4      	lsls	r4, r6
 80024e4:	432c      	orrs	r4, r5
 80024e6:	60c4      	str	r4, [r0, #12]
 80024e8:	2a02      	cmp	r2, #2
 80024ea:	d112      	bne.n	8002512 <HAL_GPIO_Init+0x96>
 80024ec:	08dc      	lsrs	r4, r3, #3
 80024ee:	2507      	movs	r5, #7
 80024f0:	00a4      	lsls	r4, r4, #2
 80024f2:	1904      	adds	r4, r0, r4
 80024f4:	6a27      	ldr	r7, [r4, #32]
 80024f6:	9403      	str	r4, [sp, #12]
 80024f8:	240f      	movs	r4, #15
 80024fa:	401d      	ands	r5, r3
 80024fc:	00ad      	lsls	r5, r5, #2
 80024fe:	40ac      	lsls	r4, r5
 8002500:	43a7      	bics	r7, r4
 8002502:	690c      	ldr	r4, [r1, #16]
 8002504:	40ac      	lsls	r4, r5
 8002506:	4327      	orrs	r7, r4
 8002508:	9c03      	ldr	r4, [sp, #12]
 800250a:	6227      	str	r7, [r4, #32]
 800250c:	e001      	b.n	8002512 <HAL_GPIO_Init+0x96>
 800250e:	2a03      	cmp	r2, #3
 8002510:	d1e3      	bne.n	80024da <HAL_GPIO_Init+0x5e>
 8002512:	6804      	ldr	r4, [r0, #0]
 8002514:	9d02      	ldr	r5, [sp, #8]
 8002516:	40b2      	lsls	r2, r6
 8002518:	4025      	ands	r5, r4
 800251a:	002c      	movs	r4, r5
 800251c:	4314      	orrs	r4, r2
 800251e:	6004      	str	r4, [r0, #0]
 8002520:	24c0      	movs	r4, #192	; 0xc0
 8002522:	4662      	mov	r2, ip
 8002524:	02a4      	lsls	r4, r4, #10
 8002526:	4222      	tst	r2, r4
 8002528:	d048      	beq.n	80025bc <HAL_GPIO_Init+0x140>
 800252a:	4a25      	ldr	r2, [pc, #148]	; (80025c0 <HAL_GPIO_Init+0x144>)
 800252c:	2503      	movs	r5, #3
 800252e:	089c      	lsrs	r4, r3, #2
 8002530:	00a4      	lsls	r4, r4, #2
 8002532:	18a4      	adds	r4, r4, r2
 8002534:	220f      	movs	r2, #15
 8002536:	401d      	ands	r5, r3
 8002538:	00ed      	lsls	r5, r5, #3
 800253a:	40aa      	lsls	r2, r5
 800253c:	27a0      	movs	r7, #160	; 0xa0
 800253e:	6e26      	ldr	r6, [r4, #96]	; 0x60
 8002540:	05ff      	lsls	r7, r7, #23
 8002542:	4396      	bics	r6, r2
 8002544:	2200      	movs	r2, #0
 8002546:	42b8      	cmp	r0, r7
 8002548:	d00c      	beq.n	8002564 <HAL_GPIO_Init+0xe8>
 800254a:	4f1e      	ldr	r7, [pc, #120]	; (80025c4 <HAL_GPIO_Init+0x148>)
 800254c:	3201      	adds	r2, #1
 800254e:	42b8      	cmp	r0, r7
 8002550:	d008      	beq.n	8002564 <HAL_GPIO_Init+0xe8>
 8002552:	4f1d      	ldr	r7, [pc, #116]	; (80025c8 <HAL_GPIO_Init+0x14c>)
 8002554:	3201      	adds	r2, #1
 8002556:	42b8      	cmp	r0, r7
 8002558:	d004      	beq.n	8002564 <HAL_GPIO_Init+0xe8>
 800255a:	4f1c      	ldr	r7, [pc, #112]	; (80025cc <HAL_GPIO_Init+0x150>)
 800255c:	3201      	adds	r2, #1
 800255e:	42b8      	cmp	r0, r7
 8002560:	d000      	beq.n	8002564 <HAL_GPIO_Init+0xe8>
 8002562:	3202      	adds	r2, #2
 8002564:	40aa      	lsls	r2, r5
 8002566:	4667      	mov	r7, ip
 8002568:	4332      	orrs	r2, r6
 800256a:	6622      	str	r2, [r4, #96]	; 0x60
 800256c:	4c14      	ldr	r4, [pc, #80]	; (80025c0 <HAL_GPIO_Init+0x144>)
 800256e:	9a01      	ldr	r2, [sp, #4]
 8002570:	6826      	ldr	r6, [r4, #0]
 8002572:	9d01      	ldr	r5, [sp, #4]
 8002574:	43d2      	mvns	r2, r2
 8002576:	4335      	orrs	r5, r6
 8002578:	02ff      	lsls	r7, r7, #11
 800257a:	d401      	bmi.n	8002580 <HAL_GPIO_Init+0x104>
 800257c:	0035      	movs	r5, r6
 800257e:	4015      	ands	r5, r2
 8002580:	4667      	mov	r7, ip
 8002582:	6025      	str	r5, [r4, #0]
 8002584:	6866      	ldr	r6, [r4, #4]
 8002586:	9d01      	ldr	r5, [sp, #4]
 8002588:	4335      	orrs	r5, r6
 800258a:	02bf      	lsls	r7, r7, #10
 800258c:	d401      	bmi.n	8002592 <HAL_GPIO_Init+0x116>
 800258e:	0035      	movs	r5, r6
 8002590:	4015      	ands	r5, r2
 8002592:	4667      	mov	r7, ip
 8002594:	6065      	str	r5, [r4, #4]
 8002596:	4c0e      	ldr	r4, [pc, #56]	; (80025d0 <HAL_GPIO_Init+0x154>)
 8002598:	9d01      	ldr	r5, [sp, #4]
 800259a:	6fe6      	ldr	r6, [r4, #124]	; 0x7c
 800259c:	4335      	orrs	r5, r6
 800259e:	03bf      	lsls	r7, r7, #14
 80025a0:	d401      	bmi.n	80025a6 <HAL_GPIO_Init+0x12a>
 80025a2:	0035      	movs	r5, r6
 80025a4:	4015      	ands	r5, r2
 80025a6:	4667      	mov	r7, ip
 80025a8:	67e5      	str	r5, [r4, #124]	; 0x7c
 80025aa:	4c0a      	ldr	r4, [pc, #40]	; (80025d4 <HAL_GPIO_Init+0x158>)
 80025ac:	9e01      	ldr	r6, [sp, #4]
 80025ae:	6fe5      	ldr	r5, [r4, #124]	; 0x7c
 80025b0:	432e      	orrs	r6, r5
 80025b2:	03ff      	lsls	r7, r7, #15
 80025b4:	d401      	bmi.n	80025ba <HAL_GPIO_Init+0x13e>
 80025b6:	4015      	ands	r5, r2
 80025b8:	002e      	movs	r6, r5
 80025ba:	67e6      	str	r6, [r4, #124]	; 0x7c
 80025bc:	3301      	adds	r3, #1
 80025be:	e760      	b.n	8002482 <HAL_GPIO_Init+0x6>
 80025c0:	40021800 	.word	0x40021800
 80025c4:	50000400 	.word	0x50000400
 80025c8:	50000800 	.word	0x50000800
 80025cc:	50000c00 	.word	0x50000c00
 80025d0:	40021808 	.word	0x40021808
 80025d4:	40021804 	.word	0x40021804

080025d8 <HAL_GPIO_ReadPin>:
 80025d8:	6900      	ldr	r0, [r0, #16]
 80025da:	4008      	ands	r0, r1
 80025dc:	1e43      	subs	r3, r0, #1
 80025de:	4198      	sbcs	r0, r3
 80025e0:	b2c0      	uxtb	r0, r0
 80025e2:	4770      	bx	lr

080025e4 <HAL_GPIO_WritePin>:
 80025e4:	2a00      	cmp	r2, #0
 80025e6:	d001      	beq.n	80025ec <HAL_GPIO_WritePin+0x8>
 80025e8:	6181      	str	r1, [r0, #24]
 80025ea:	4770      	bx	lr
 80025ec:	6281      	str	r1, [r0, #40]	; 0x28
 80025ee:	e7fc      	b.n	80025ea <HAL_GPIO_WritePin+0x6>

080025f0 <HAL_PWREx_ControlVoltageScaling>:
 80025f0:	b510      	push	{r4, lr}
 80025f2:	4c11      	ldr	r4, [pc, #68]	; (8002638 <HAL_PWREx_ControlVoltageScaling+0x48>)
 80025f4:	4911      	ldr	r1, [pc, #68]	; (800263c <HAL_PWREx_ControlVoltageScaling+0x4c>)
 80025f6:	6823      	ldr	r3, [r4, #0]
 80025f8:	0002      	movs	r2, r0
 80025fa:	400b      	ands	r3, r1
 80025fc:	4303      	orrs	r3, r0
 80025fe:	6023      	str	r3, [r4, #0]
 8002600:	2380      	movs	r3, #128	; 0x80
 8002602:	2000      	movs	r0, #0
 8002604:	009b      	lsls	r3, r3, #2
 8002606:	429a      	cmp	r2, r3
 8002608:	d10e      	bne.n	8002628 <HAL_PWREx_ControlVoltageScaling+0x38>
 800260a:	4b0d      	ldr	r3, [pc, #52]	; (8002640 <HAL_PWREx_ControlVoltageScaling+0x50>)
 800260c:	490d      	ldr	r1, [pc, #52]	; (8002644 <HAL_PWREx_ControlVoltageScaling+0x54>)
 800260e:	6818      	ldr	r0, [r3, #0]
 8002610:	2306      	movs	r3, #6
 8002612:	4358      	muls	r0, r3
 8002614:	f7fd fd7e 	bl	8000114 <__udivsi3>
 8002618:	2280      	movs	r2, #128	; 0x80
 800261a:	1c43      	adds	r3, r0, #1
 800261c:	00d2      	lsls	r2, r2, #3
 800261e:	6961      	ldr	r1, [r4, #20]
 8002620:	0008      	movs	r0, r1
 8002622:	4010      	ands	r0, r2
 8002624:	4211      	tst	r1, r2
 8002626:	d100      	bne.n	800262a <HAL_PWREx_ControlVoltageScaling+0x3a>
 8002628:	bd10      	pop	{r4, pc}
 800262a:	2b00      	cmp	r3, #0
 800262c:	d001      	beq.n	8002632 <HAL_PWREx_ControlVoltageScaling+0x42>
 800262e:	3b01      	subs	r3, #1
 8002630:	e7f5      	b.n	800261e <HAL_PWREx_ControlVoltageScaling+0x2e>
 8002632:	2003      	movs	r0, #3
 8002634:	e7f8      	b.n	8002628 <HAL_PWREx_ControlVoltageScaling+0x38>
 8002636:	46c0      	nop			; (mov r8, r8)
 8002638:	40007000 	.word	0x40007000
 800263c:	fffff9ff 	.word	0xfffff9ff
 8002640:	20000000 	.word	0x20000000
 8002644:	000f4240 	.word	0x000f4240

08002648 <HAL_RCC_OscConfig>:
 8002648:	b5f0      	push	{r4, r5, r6, r7, lr}
 800264a:	0004      	movs	r4, r0
 800264c:	b085      	sub	sp, #20
 800264e:	2800      	cmp	r0, #0
 8002650:	d023      	beq.n	800269a <HAL_RCC_OscConfig+0x52>
 8002652:	6803      	ldr	r3, [r0, #0]
 8002654:	07db      	lsls	r3, r3, #31
 8002656:	d410      	bmi.n	800267a <HAL_RCC_OscConfig+0x32>
 8002658:	6823      	ldr	r3, [r4, #0]
 800265a:	079b      	lsls	r3, r3, #30
 800265c:	d45e      	bmi.n	800271c <HAL_RCC_OscConfig+0xd4>
 800265e:	6823      	ldr	r3, [r4, #0]
 8002660:	071b      	lsls	r3, r3, #28
 8002662:	d500      	bpl.n	8002666 <HAL_RCC_OscConfig+0x1e>
 8002664:	e0c3      	b.n	80027ee <HAL_RCC_OscConfig+0x1a6>
 8002666:	6823      	ldr	r3, [r4, #0]
 8002668:	075b      	lsls	r3, r3, #29
 800266a:	d500      	bpl.n	800266e <HAL_RCC_OscConfig+0x26>
 800266c:	e0f4      	b.n	8002858 <HAL_RCC_OscConfig+0x210>
 800266e:	69e3      	ldr	r3, [r4, #28]
 8002670:	2b00      	cmp	r3, #0
 8002672:	d000      	beq.n	8002676 <HAL_RCC_OscConfig+0x2e>
 8002674:	e17a      	b.n	800296c <HAL_RCC_OscConfig+0x324>
 8002676:	2000      	movs	r0, #0
 8002678:	e029      	b.n	80026ce <HAL_RCC_OscConfig+0x86>
 800267a:	2238      	movs	r2, #56	; 0x38
 800267c:	4daf      	ldr	r5, [pc, #700]	; (800293c <HAL_RCC_OscConfig+0x2f4>)
 800267e:	68ab      	ldr	r3, [r5, #8]
 8002680:	4013      	ands	r3, r2
 8002682:	68ea      	ldr	r2, [r5, #12]
 8002684:	2b10      	cmp	r3, #16
 8002686:	d10a      	bne.n	800269e <HAL_RCC_OscConfig+0x56>
 8002688:	43d2      	mvns	r2, r2
 800268a:	0793      	lsls	r3, r2, #30
 800268c:	d109      	bne.n	80026a2 <HAL_RCC_OscConfig+0x5a>
 800268e:	682b      	ldr	r3, [r5, #0]
 8002690:	039b      	lsls	r3, r3, #14
 8002692:	d5e1      	bpl.n	8002658 <HAL_RCC_OscConfig+0x10>
 8002694:	6863      	ldr	r3, [r4, #4]
 8002696:	2b00      	cmp	r3, #0
 8002698:	d1de      	bne.n	8002658 <HAL_RCC_OscConfig+0x10>
 800269a:	2001      	movs	r0, #1
 800269c:	e017      	b.n	80026ce <HAL_RCC_OscConfig+0x86>
 800269e:	2b08      	cmp	r3, #8
 80026a0:	d0f5      	beq.n	800268e <HAL_RCC_OscConfig+0x46>
 80026a2:	2280      	movs	r2, #128	; 0x80
 80026a4:	6863      	ldr	r3, [r4, #4]
 80026a6:	0252      	lsls	r2, r2, #9
 80026a8:	4293      	cmp	r3, r2
 80026aa:	d112      	bne.n	80026d2 <HAL_RCC_OscConfig+0x8a>
 80026ac:	682a      	ldr	r2, [r5, #0]
 80026ae:	4313      	orrs	r3, r2
 80026b0:	602b      	str	r3, [r5, #0]
 80026b2:	f7ff fd09 	bl	80020c8 <HAL_GetTick>
 80026b6:	2780      	movs	r7, #128	; 0x80
 80026b8:	0006      	movs	r6, r0
 80026ba:	02bf      	lsls	r7, r7, #10
 80026bc:	682b      	ldr	r3, [r5, #0]
 80026be:	423b      	tst	r3, r7
 80026c0:	d1ca      	bne.n	8002658 <HAL_RCC_OscConfig+0x10>
 80026c2:	f7ff fd01 	bl	80020c8 <HAL_GetTick>
 80026c6:	1b80      	subs	r0, r0, r6
 80026c8:	2864      	cmp	r0, #100	; 0x64
 80026ca:	d9f7      	bls.n	80026bc <HAL_RCC_OscConfig+0x74>
 80026cc:	2003      	movs	r0, #3
 80026ce:	b005      	add	sp, #20
 80026d0:	bdf0      	pop	{r4, r5, r6, r7, pc}
 80026d2:	21a0      	movs	r1, #160	; 0xa0
 80026d4:	02c9      	lsls	r1, r1, #11
 80026d6:	428b      	cmp	r3, r1
 80026d8:	d108      	bne.n	80026ec <HAL_RCC_OscConfig+0xa4>
 80026da:	2380      	movs	r3, #128	; 0x80
 80026dc:	6829      	ldr	r1, [r5, #0]
 80026de:	02db      	lsls	r3, r3, #11
 80026e0:	430b      	orrs	r3, r1
 80026e2:	602b      	str	r3, [r5, #0]
 80026e4:	682b      	ldr	r3, [r5, #0]
 80026e6:	431a      	orrs	r2, r3
 80026e8:	602a      	str	r2, [r5, #0]
 80026ea:	e7e2      	b.n	80026b2 <HAL_RCC_OscConfig+0x6a>
 80026ec:	682a      	ldr	r2, [r5, #0]
 80026ee:	4994      	ldr	r1, [pc, #592]	; (8002940 <HAL_RCC_OscConfig+0x2f8>)
 80026f0:	400a      	ands	r2, r1
 80026f2:	602a      	str	r2, [r5, #0]
 80026f4:	682a      	ldr	r2, [r5, #0]
 80026f6:	4993      	ldr	r1, [pc, #588]	; (8002944 <HAL_RCC_OscConfig+0x2fc>)
 80026f8:	400a      	ands	r2, r1
 80026fa:	602a      	str	r2, [r5, #0]
 80026fc:	2b00      	cmp	r3, #0
 80026fe:	d1d8      	bne.n	80026b2 <HAL_RCC_OscConfig+0x6a>
 8002700:	f7ff fce2 	bl	80020c8 <HAL_GetTick>
 8002704:	2780      	movs	r7, #128	; 0x80
 8002706:	0006      	movs	r6, r0
 8002708:	02bf      	lsls	r7, r7, #10
 800270a:	682b      	ldr	r3, [r5, #0]
 800270c:	423b      	tst	r3, r7
 800270e:	d0a3      	beq.n	8002658 <HAL_RCC_OscConfig+0x10>
 8002710:	f7ff fcda 	bl	80020c8 <HAL_GetTick>
 8002714:	1b80      	subs	r0, r0, r6
 8002716:	2864      	cmp	r0, #100	; 0x64
 8002718:	d9f7      	bls.n	800270a <HAL_RCC_OscConfig+0xc2>
 800271a:	e7d7      	b.n	80026cc <HAL_RCC_OscConfig+0x84>
 800271c:	2338      	movs	r3, #56	; 0x38
 800271e:	4d87      	ldr	r5, [pc, #540]	; (800293c <HAL_RCC_OscConfig+0x2f4>)
 8002720:	68aa      	ldr	r2, [r5, #8]
 8002722:	4013      	ands	r3, r2
 8002724:	68ea      	ldr	r2, [r5, #12]
 8002726:	2b10      	cmp	r3, #16
 8002728:	d128      	bne.n	800277c <HAL_RCC_OscConfig+0x134>
 800272a:	2103      	movs	r1, #3
 800272c:	400a      	ands	r2, r1
 800272e:	2a02      	cmp	r2, #2
 8002730:	d126      	bne.n	8002780 <HAL_RCC_OscConfig+0x138>
 8002732:	682a      	ldr	r2, [r5, #0]
 8002734:	0552      	lsls	r2, r2, #21
 8002736:	d502      	bpl.n	800273e <HAL_RCC_OscConfig+0xf6>
 8002738:	68e2      	ldr	r2, [r4, #12]
 800273a:	2a00      	cmp	r2, #0
 800273c:	d0ad      	beq.n	800269a <HAL_RCC_OscConfig+0x52>
 800273e:	6869      	ldr	r1, [r5, #4]
 8002740:	6962      	ldr	r2, [r4, #20]
 8002742:	4881      	ldr	r0, [pc, #516]	; (8002948 <HAL_RCC_OscConfig+0x300>)
 8002744:	0212      	lsls	r2, r2, #8
 8002746:	4001      	ands	r1, r0
 8002748:	430a      	orrs	r2, r1
 800274a:	606a      	str	r2, [r5, #4]
 800274c:	2b00      	cmp	r3, #0
 800274e:	d10d      	bne.n	800276c <HAL_RCC_OscConfig+0x124>
 8002750:	682b      	ldr	r3, [r5, #0]
 8002752:	4a7e      	ldr	r2, [pc, #504]	; (800294c <HAL_RCC_OscConfig+0x304>)
 8002754:	4013      	ands	r3, r2
 8002756:	6922      	ldr	r2, [r4, #16]
 8002758:	4313      	orrs	r3, r2
 800275a:	602b      	str	r3, [r5, #0]
 800275c:	682b      	ldr	r3, [r5, #0]
 800275e:	4a7c      	ldr	r2, [pc, #496]	; (8002950 <HAL_RCC_OscConfig+0x308>)
 8002760:	049b      	lsls	r3, r3, #18
 8002762:	0f5b      	lsrs	r3, r3, #29
 8002764:	40da      	lsrs	r2, r3
 8002766:	0013      	movs	r3, r2
 8002768:	4a7a      	ldr	r2, [pc, #488]	; (8002954 <HAL_RCC_OscConfig+0x30c>)
 800276a:	6013      	str	r3, [r2, #0]
 800276c:	4b7a      	ldr	r3, [pc, #488]	; (8002958 <HAL_RCC_OscConfig+0x310>)
 800276e:	6818      	ldr	r0, [r3, #0]
 8002770:	f7ff fc62 	bl	8002038 <HAL_InitTick>
 8002774:	2800      	cmp	r0, #0
 8002776:	d100      	bne.n	800277a <HAL_RCC_OscConfig+0x132>
 8002778:	e771      	b.n	800265e <HAL_RCC_OscConfig+0x16>
 800277a:	e78e      	b.n	800269a <HAL_RCC_OscConfig+0x52>
 800277c:	2b00      	cmp	r3, #0
 800277e:	d0d8      	beq.n	8002732 <HAL_RCC_OscConfig+0xea>
 8002780:	68e3      	ldr	r3, [r4, #12]
 8002782:	2b00      	cmp	r3, #0
 8002784:	d020      	beq.n	80027c8 <HAL_RCC_OscConfig+0x180>
 8002786:	682b      	ldr	r3, [r5, #0]
 8002788:	4a70      	ldr	r2, [pc, #448]	; (800294c <HAL_RCC_OscConfig+0x304>)
 800278a:	2780      	movs	r7, #128	; 0x80
 800278c:	4013      	ands	r3, r2
 800278e:	6922      	ldr	r2, [r4, #16]
 8002790:	00ff      	lsls	r7, r7, #3
 8002792:	4313      	orrs	r3, r2
 8002794:	602b      	str	r3, [r5, #0]
 8002796:	2380      	movs	r3, #128	; 0x80
 8002798:	682a      	ldr	r2, [r5, #0]
 800279a:	005b      	lsls	r3, r3, #1
 800279c:	4313      	orrs	r3, r2
 800279e:	602b      	str	r3, [r5, #0]
 80027a0:	f7ff fc92 	bl	80020c8 <HAL_GetTick>
 80027a4:	0006      	movs	r6, r0
 80027a6:	682b      	ldr	r3, [r5, #0]
 80027a8:	423b      	tst	r3, r7
 80027aa:	d007      	beq.n	80027bc <HAL_RCC_OscConfig+0x174>
 80027ac:	686a      	ldr	r2, [r5, #4]
 80027ae:	6963      	ldr	r3, [r4, #20]
 80027b0:	4965      	ldr	r1, [pc, #404]	; (8002948 <HAL_RCC_OscConfig+0x300>)
 80027b2:	021b      	lsls	r3, r3, #8
 80027b4:	400a      	ands	r2, r1
 80027b6:	4313      	orrs	r3, r2
 80027b8:	606b      	str	r3, [r5, #4]
 80027ba:	e750      	b.n	800265e <HAL_RCC_OscConfig+0x16>
 80027bc:	f7ff fc84 	bl	80020c8 <HAL_GetTick>
 80027c0:	1b80      	subs	r0, r0, r6
 80027c2:	2802      	cmp	r0, #2
 80027c4:	d9ef      	bls.n	80027a6 <HAL_RCC_OscConfig+0x15e>
 80027c6:	e781      	b.n	80026cc <HAL_RCC_OscConfig+0x84>
 80027c8:	682b      	ldr	r3, [r5, #0]
 80027ca:	4a64      	ldr	r2, [pc, #400]	; (800295c <HAL_RCC_OscConfig+0x314>)
 80027cc:	2780      	movs	r7, #128	; 0x80
 80027ce:	4013      	ands	r3, r2
 80027d0:	602b      	str	r3, [r5, #0]
 80027d2:	f7ff fc79 	bl	80020c8 <HAL_GetTick>
 80027d6:	0006      	movs	r6, r0
 80027d8:	00ff      	lsls	r7, r7, #3
 80027da:	682b      	ldr	r3, [r5, #0]
 80027dc:	423b      	tst	r3, r7
 80027de:	d100      	bne.n	80027e2 <HAL_RCC_OscConfig+0x19a>
 80027e0:	e73d      	b.n	800265e <HAL_RCC_OscConfig+0x16>
 80027e2:	f7ff fc71 	bl	80020c8 <HAL_GetTick>
 80027e6:	1b80      	subs	r0, r0, r6
 80027e8:	2802      	cmp	r0, #2
 80027ea:	d9f6      	bls.n	80027da <HAL_RCC_OscConfig+0x192>
 80027ec:	e76e      	b.n	80026cc <HAL_RCC_OscConfig+0x84>
 80027ee:	2238      	movs	r2, #56	; 0x38
 80027f0:	4d52      	ldr	r5, [pc, #328]	; (800293c <HAL_RCC_OscConfig+0x2f4>)
 80027f2:	68ab      	ldr	r3, [r5, #8]
 80027f4:	4013      	ands	r3, r2
 80027f6:	2b18      	cmp	r3, #24
 80027f8:	d108      	bne.n	800280c <HAL_RCC_OscConfig+0x1c4>
 80027fa:	6e2b      	ldr	r3, [r5, #96]	; 0x60
 80027fc:	079b      	lsls	r3, r3, #30
 80027fe:	d400      	bmi.n	8002802 <HAL_RCC_OscConfig+0x1ba>
 8002800:	e731      	b.n	8002666 <HAL_RCC_OscConfig+0x1e>
 8002802:	69a3      	ldr	r3, [r4, #24]
 8002804:	2b00      	cmp	r3, #0
 8002806:	d000      	beq.n	800280a <HAL_RCC_OscConfig+0x1c2>
 8002808:	e72d      	b.n	8002666 <HAL_RCC_OscConfig+0x1e>
 800280a:	e746      	b.n	800269a <HAL_RCC_OscConfig+0x52>
 800280c:	69a2      	ldr	r2, [r4, #24]
 800280e:	2301      	movs	r3, #1
 8002810:	2a00      	cmp	r2, #0
 8002812:	d010      	beq.n	8002836 <HAL_RCC_OscConfig+0x1ee>
 8002814:	6e2a      	ldr	r2, [r5, #96]	; 0x60
 8002816:	2702      	movs	r7, #2
 8002818:	4313      	orrs	r3, r2
 800281a:	662b      	str	r3, [r5, #96]	; 0x60
 800281c:	f7ff fc54 	bl	80020c8 <HAL_GetTick>
 8002820:	0006      	movs	r6, r0
 8002822:	6e2b      	ldr	r3, [r5, #96]	; 0x60
 8002824:	423b      	tst	r3, r7
 8002826:	d000      	beq.n	800282a <HAL_RCC_OscConfig+0x1e2>
 8002828:	e71d      	b.n	8002666 <HAL_RCC_OscConfig+0x1e>
 800282a:	f7ff fc4d 	bl	80020c8 <HAL_GetTick>
 800282e:	1b80      	subs	r0, r0, r6
 8002830:	2802      	cmp	r0, #2
 8002832:	d9f6      	bls.n	8002822 <HAL_RCC_OscConfig+0x1da>
 8002834:	e74a      	b.n	80026cc <HAL_RCC_OscConfig+0x84>
 8002836:	6e2a      	ldr	r2, [r5, #96]	; 0x60
 8002838:	2702      	movs	r7, #2
 800283a:	439a      	bics	r2, r3
 800283c:	662a      	str	r2, [r5, #96]	; 0x60
 800283e:	f7ff fc43 	bl	80020c8 <HAL_GetTick>
 8002842:	0006      	movs	r6, r0
 8002844:	6e2b      	ldr	r3, [r5, #96]	; 0x60
 8002846:	423b      	tst	r3, r7
 8002848:	d100      	bne.n	800284c <HAL_RCC_OscConfig+0x204>
 800284a:	e70c      	b.n	8002666 <HAL_RCC_OscConfig+0x1e>
 800284c:	f7ff fc3c 	bl	80020c8 <HAL_GetTick>
 8002850:	1b80      	subs	r0, r0, r6
 8002852:	2802      	cmp	r0, #2
 8002854:	d9f6      	bls.n	8002844 <HAL_RCC_OscConfig+0x1fc>
 8002856:	e739      	b.n	80026cc <HAL_RCC_OscConfig+0x84>
 8002858:	2238      	movs	r2, #56	; 0x38
 800285a:	4d38      	ldr	r5, [pc, #224]	; (800293c <HAL_RCC_OscConfig+0x2f4>)
 800285c:	68ab      	ldr	r3, [r5, #8]
 800285e:	4013      	ands	r3, r2
 8002860:	2b20      	cmp	r3, #32
 8002862:	d108      	bne.n	8002876 <HAL_RCC_OscConfig+0x22e>
 8002864:	6deb      	ldr	r3, [r5, #92]	; 0x5c
 8002866:	079b      	lsls	r3, r3, #30
 8002868:	d400      	bmi.n	800286c <HAL_RCC_OscConfig+0x224>
 800286a:	e700      	b.n	800266e <HAL_RCC_OscConfig+0x26>
 800286c:	68a3      	ldr	r3, [r4, #8]
 800286e:	2b00      	cmp	r3, #0
 8002870:	d000      	beq.n	8002874 <HAL_RCC_OscConfig+0x22c>
 8002872:	e6fc      	b.n	800266e <HAL_RCC_OscConfig+0x26>
 8002874:	e711      	b.n	800269a <HAL_RCC_OscConfig+0x52>
 8002876:	2280      	movs	r2, #128	; 0x80
 8002878:	2100      	movs	r1, #0
 800287a:	6beb      	ldr	r3, [r5, #60]	; 0x3c
 800287c:	0552      	lsls	r2, r2, #21
 800287e:	9100      	str	r1, [sp, #0]
 8002880:	4213      	tst	r3, r2
 8002882:	d108      	bne.n	8002896 <HAL_RCC_OscConfig+0x24e>
 8002884:	6beb      	ldr	r3, [r5, #60]	; 0x3c
 8002886:	4313      	orrs	r3, r2
 8002888:	63eb      	str	r3, [r5, #60]	; 0x3c
 800288a:	6beb      	ldr	r3, [r5, #60]	; 0x3c
 800288c:	4013      	ands	r3, r2
 800288e:	9303      	str	r3, [sp, #12]
 8002890:	9b03      	ldr	r3, [sp, #12]
 8002892:	2301      	movs	r3, #1
 8002894:	9300      	str	r3, [sp, #0]
 8002896:	2780      	movs	r7, #128	; 0x80
 8002898:	4e31      	ldr	r6, [pc, #196]	; (8002960 <HAL_RCC_OscConfig+0x318>)
 800289a:	007f      	lsls	r7, r7, #1
 800289c:	6833      	ldr	r3, [r6, #0]
 800289e:	423b      	tst	r3, r7
 80028a0:	d015      	beq.n	80028ce <HAL_RCC_OscConfig+0x286>
 80028a2:	68a3      	ldr	r3, [r4, #8]
 80028a4:	2b01      	cmp	r3, #1
 80028a6:	d122      	bne.n	80028ee <HAL_RCC_OscConfig+0x2a6>
 80028a8:	6dea      	ldr	r2, [r5, #92]	; 0x5c
 80028aa:	4313      	orrs	r3, r2
 80028ac:	65eb      	str	r3, [r5, #92]	; 0x5c
 80028ae:	f7ff fc0b 	bl	80020c8 <HAL_GetTick>
 80028b2:	2702      	movs	r7, #2
 80028b4:	0006      	movs	r6, r0
 80028b6:	6deb      	ldr	r3, [r5, #92]	; 0x5c
 80028b8:	423b      	tst	r3, r7
 80028ba:	d038      	beq.n	800292e <HAL_RCC_OscConfig+0x2e6>
 80028bc:	9b00      	ldr	r3, [sp, #0]
 80028be:	2b01      	cmp	r3, #1
 80028c0:	d000      	beq.n	80028c4 <HAL_RCC_OscConfig+0x27c>
 80028c2:	e6d4      	b.n	800266e <HAL_RCC_OscConfig+0x26>
 80028c4:	6beb      	ldr	r3, [r5, #60]	; 0x3c
 80028c6:	4a27      	ldr	r2, [pc, #156]	; (8002964 <HAL_RCC_OscConfig+0x31c>)
 80028c8:	4013      	ands	r3, r2
 80028ca:	63eb      	str	r3, [r5, #60]	; 0x3c
 80028cc:	e6cf      	b.n	800266e <HAL_RCC_OscConfig+0x26>
 80028ce:	6833      	ldr	r3, [r6, #0]
 80028d0:	433b      	orrs	r3, r7
 80028d2:	6033      	str	r3, [r6, #0]
 80028d4:	f7ff fbf8 	bl	80020c8 <HAL_GetTick>
 80028d8:	9001      	str	r0, [sp, #4]
 80028da:	6833      	ldr	r3, [r6, #0]
 80028dc:	423b      	tst	r3, r7
 80028de:	d1e0      	bne.n	80028a2 <HAL_RCC_OscConfig+0x25a>
 80028e0:	f7ff fbf2 	bl	80020c8 <HAL_GetTick>
 80028e4:	9b01      	ldr	r3, [sp, #4]
 80028e6:	1ac0      	subs	r0, r0, r3
 80028e8:	2802      	cmp	r0, #2
 80028ea:	d9f6      	bls.n	80028da <HAL_RCC_OscConfig+0x292>
 80028ec:	e6ee      	b.n	80026cc <HAL_RCC_OscConfig+0x84>
 80028ee:	6dea      	ldr	r2, [r5, #92]	; 0x5c
 80028f0:	2b05      	cmp	r3, #5
 80028f2:	d105      	bne.n	8002900 <HAL_RCC_OscConfig+0x2b8>
 80028f4:	3b01      	subs	r3, #1
 80028f6:	4313      	orrs	r3, r2
 80028f8:	65eb      	str	r3, [r5, #92]	; 0x5c
 80028fa:	6dea      	ldr	r2, [r5, #92]	; 0x5c
 80028fc:	2301      	movs	r3, #1
 80028fe:	e7d4      	b.n	80028aa <HAL_RCC_OscConfig+0x262>
 8002900:	2101      	movs	r1, #1
 8002902:	438a      	bics	r2, r1
 8002904:	65ea      	str	r2, [r5, #92]	; 0x5c
 8002906:	6dea      	ldr	r2, [r5, #92]	; 0x5c
 8002908:	3103      	adds	r1, #3
 800290a:	438a      	bics	r2, r1
 800290c:	65ea      	str	r2, [r5, #92]	; 0x5c
 800290e:	2b00      	cmp	r3, #0
 8002910:	d1cd      	bne.n	80028ae <HAL_RCC_OscConfig+0x266>
 8002912:	f7ff fbd9 	bl	80020c8 <HAL_GetTick>
 8002916:	2702      	movs	r7, #2
 8002918:	0006      	movs	r6, r0
 800291a:	6deb      	ldr	r3, [r5, #92]	; 0x5c
 800291c:	423b      	tst	r3, r7
 800291e:	d0cd      	beq.n	80028bc <HAL_RCC_OscConfig+0x274>
 8002920:	f7ff fbd2 	bl	80020c8 <HAL_GetTick>
 8002924:	4b10      	ldr	r3, [pc, #64]	; (8002968 <HAL_RCC_OscConfig+0x320>)
 8002926:	1b80      	subs	r0, r0, r6
 8002928:	4298      	cmp	r0, r3
 800292a:	d9f6      	bls.n	800291a <HAL_RCC_OscConfig+0x2d2>
 800292c:	e6ce      	b.n	80026cc <HAL_RCC_OscConfig+0x84>
 800292e:	f7ff fbcb 	bl	80020c8 <HAL_GetTick>
 8002932:	4b0d      	ldr	r3, [pc, #52]	; (8002968 <HAL_RCC_OscConfig+0x320>)
 8002934:	1b80      	subs	r0, r0, r6
 8002936:	4298      	cmp	r0, r3
 8002938:	d9bd      	bls.n	80028b6 <HAL_RCC_OscConfig+0x26e>
 800293a:	e6c7      	b.n	80026cc <HAL_RCC_OscConfig+0x84>
 800293c:	40021000 	.word	0x40021000
 8002940:	fffeffff 	.word	0xfffeffff
 8002944:	fffbffff 	.word	0xfffbffff
 8002948:	ffff80ff 	.word	0xffff80ff
 800294c:	ffffc7ff 	.word	0xffffc7ff
 8002950:	00f42400 	.word	0x00f42400
 8002954:	20000000 	.word	0x20000000
 8002958:	20000008 	.word	0x20000008
 800295c:	fffffeff 	.word	0xfffffeff
 8002960:	40007000 	.word	0x40007000
 8002964:	efffffff 	.word	0xefffffff
 8002968:	00001388 	.word	0x00001388
 800296c:	2138      	movs	r1, #56	; 0x38
 800296e:	4d3f      	ldr	r5, [pc, #252]	; (8002a6c <HAL_RCC_OscConfig+0x424>)
 8002970:	68aa      	ldr	r2, [r5, #8]
 8002972:	400a      	ands	r2, r1
 8002974:	2a10      	cmp	r2, #16
 8002976:	d053      	beq.n	8002a20 <HAL_RCC_OscConfig+0x3d8>
 8002978:	4a3d      	ldr	r2, [pc, #244]	; (8002a70 <HAL_RCC_OscConfig+0x428>)
 800297a:	2b02      	cmp	r3, #2
 800297c:	d138      	bne.n	80029f0 <HAL_RCC_OscConfig+0x3a8>
 800297e:	682b      	ldr	r3, [r5, #0]
 8002980:	2780      	movs	r7, #128	; 0x80
 8002982:	4013      	ands	r3, r2
 8002984:	602b      	str	r3, [r5, #0]
 8002986:	f7ff fb9f 	bl	80020c8 <HAL_GetTick>
 800298a:	0006      	movs	r6, r0
 800298c:	04bf      	lsls	r7, r7, #18
 800298e:	682b      	ldr	r3, [r5, #0]
 8002990:	423b      	tst	r3, r7
 8002992:	d127      	bne.n	80029e4 <HAL_RCC_OscConfig+0x39c>
 8002994:	6a61      	ldr	r1, [r4, #36]	; 0x24
 8002996:	6a23      	ldr	r3, [r4, #32]
 8002998:	68ea      	ldr	r2, [r5, #12]
 800299a:	430b      	orrs	r3, r1
 800299c:	4935      	ldr	r1, [pc, #212]	; (8002a74 <HAL_RCC_OscConfig+0x42c>)
 800299e:	2680      	movs	r6, #128	; 0x80
 80029a0:	400a      	ands	r2, r1
 80029a2:	4313      	orrs	r3, r2
 80029a4:	6ae2      	ldr	r2, [r4, #44]	; 0x2c
 80029a6:	04b6      	lsls	r6, r6, #18
 80029a8:	4313      	orrs	r3, r2
 80029aa:	6b22      	ldr	r2, [r4, #48]	; 0x30
 80029ac:	4313      	orrs	r3, r2
 80029ae:	6aa2      	ldr	r2, [r4, #40]	; 0x28
 80029b0:	0212      	lsls	r2, r2, #8
 80029b2:	4313      	orrs	r3, r2
 80029b4:	60eb      	str	r3, [r5, #12]
 80029b6:	2380      	movs	r3, #128	; 0x80
 80029b8:	682a      	ldr	r2, [r5, #0]
 80029ba:	045b      	lsls	r3, r3, #17
 80029bc:	4313      	orrs	r3, r2
 80029be:	602b      	str	r3, [r5, #0]
 80029c0:	2380      	movs	r3, #128	; 0x80
 80029c2:	68ea      	ldr	r2, [r5, #12]
 80029c4:	055b      	lsls	r3, r3, #21
 80029c6:	4313      	orrs	r3, r2
 80029c8:	60eb      	str	r3, [r5, #12]
 80029ca:	f7ff fb7d 	bl	80020c8 <HAL_GetTick>
 80029ce:	0004      	movs	r4, r0
 80029d0:	682b      	ldr	r3, [r5, #0]
 80029d2:	4233      	tst	r3, r6
 80029d4:	d000      	beq.n	80029d8 <HAL_RCC_OscConfig+0x390>
 80029d6:	e64e      	b.n	8002676 <HAL_RCC_OscConfig+0x2e>
 80029d8:	f7ff fb76 	bl	80020c8 <HAL_GetTick>
 80029dc:	1b00      	subs	r0, r0, r4
 80029de:	2802      	cmp	r0, #2
 80029e0:	d9f6      	bls.n	80029d0 <HAL_RCC_OscConfig+0x388>
 80029e2:	e673      	b.n	80026cc <HAL_RCC_OscConfig+0x84>
 80029e4:	f7ff fb70 	bl	80020c8 <HAL_GetTick>
 80029e8:	1b80      	subs	r0, r0, r6
 80029ea:	2802      	cmp	r0, #2
 80029ec:	d9cf      	bls.n	800298e <HAL_RCC_OscConfig+0x346>
 80029ee:	e66d      	b.n	80026cc <HAL_RCC_OscConfig+0x84>
 80029f0:	682b      	ldr	r3, [r5, #0]
 80029f2:	2680      	movs	r6, #128	; 0x80
 80029f4:	4013      	ands	r3, r2
 80029f6:	602b      	str	r3, [r5, #0]
 80029f8:	f7ff fb66 	bl	80020c8 <HAL_GetTick>
 80029fc:	0004      	movs	r4, r0
 80029fe:	04b6      	lsls	r6, r6, #18
 8002a00:	682b      	ldr	r3, [r5, #0]
 8002a02:	0018      	movs	r0, r3
 8002a04:	4030      	ands	r0, r6
 8002a06:	4233      	tst	r3, r6
 8002a08:	d104      	bne.n	8002a14 <HAL_RCC_OscConfig+0x3cc>
 8002a0a:	68eb      	ldr	r3, [r5, #12]
 8002a0c:	4a1a      	ldr	r2, [pc, #104]	; (8002a78 <HAL_RCC_OscConfig+0x430>)
 8002a0e:	4013      	ands	r3, r2
 8002a10:	60eb      	str	r3, [r5, #12]
 8002a12:	e65c      	b.n	80026ce <HAL_RCC_OscConfig+0x86>
 8002a14:	f7ff fb58 	bl	80020c8 <HAL_GetTick>
 8002a18:	1b00      	subs	r0, r0, r4
 8002a1a:	2802      	cmp	r0, #2
 8002a1c:	d9f0      	bls.n	8002a00 <HAL_RCC_OscConfig+0x3b8>
 8002a1e:	e655      	b.n	80026cc <HAL_RCC_OscConfig+0x84>
 8002a20:	2b01      	cmp	r3, #1
 8002a22:	d100      	bne.n	8002a26 <HAL_RCC_OscConfig+0x3de>
 8002a24:	e639      	b.n	800269a <HAL_RCC_OscConfig+0x52>
 8002a26:	2203      	movs	r2, #3
 8002a28:	68eb      	ldr	r3, [r5, #12]
 8002a2a:	6a21      	ldr	r1, [r4, #32]
 8002a2c:	401a      	ands	r2, r3
 8002a2e:	428a      	cmp	r2, r1
 8002a30:	d000      	beq.n	8002a34 <HAL_RCC_OscConfig+0x3ec>
 8002a32:	e632      	b.n	800269a <HAL_RCC_OscConfig+0x52>
 8002a34:	2270      	movs	r2, #112	; 0x70
 8002a36:	6a61      	ldr	r1, [r4, #36]	; 0x24
 8002a38:	401a      	ands	r2, r3
 8002a3a:	428a      	cmp	r2, r1
 8002a3c:	d000      	beq.n	8002a40 <HAL_RCC_OscConfig+0x3f8>
 8002a3e:	e62c      	b.n	800269a <HAL_RCC_OscConfig+0x52>
 8002a40:	21fe      	movs	r1, #254	; 0xfe
 8002a42:	6aa2      	ldr	r2, [r4, #40]	; 0x28
 8002a44:	01c9      	lsls	r1, r1, #7
 8002a46:	4019      	ands	r1, r3
 8002a48:	0212      	lsls	r2, r2, #8
 8002a4a:	4291      	cmp	r1, r2
 8002a4c:	d000      	beq.n	8002a50 <HAL_RCC_OscConfig+0x408>
 8002a4e:	e624      	b.n	800269a <HAL_RCC_OscConfig+0x52>
 8002a50:	22f8      	movs	r2, #248	; 0xf8
 8002a52:	6ae1      	ldr	r1, [r4, #44]	; 0x2c
 8002a54:	0392      	lsls	r2, r2, #14
 8002a56:	401a      	ands	r2, r3
 8002a58:	428a      	cmp	r2, r1
 8002a5a:	d000      	beq.n	8002a5e <HAL_RCC_OscConfig+0x416>
 8002a5c:	e61d      	b.n	800269a <HAL_RCC_OscConfig+0x52>
 8002a5e:	6b22      	ldr	r2, [r4, #48]	; 0x30
 8002a60:	0f5b      	lsrs	r3, r3, #29
 8002a62:	075b      	lsls	r3, r3, #29
 8002a64:	4293      	cmp	r3, r2
 8002a66:	d100      	bne.n	8002a6a <HAL_RCC_OscConfig+0x422>
 8002a68:	e605      	b.n	8002676 <HAL_RCC_OscConfig+0x2e>
 8002a6a:	e616      	b.n	800269a <HAL_RCC_OscConfig+0x52>
 8002a6c:	40021000 	.word	0x40021000
 8002a70:	feffffff 	.word	0xfeffffff
 8002a74:	1fc1808c 	.word	0x1fc1808c
 8002a78:	effefffc 	.word	0xeffefffc

08002a7c <HAL_RCC_GetSysClockFreq>:
 8002a7c:	2338      	movs	r3, #56	; 0x38
 8002a7e:	b570      	push	{r4, r5, r6, lr}
 8002a80:	4c1a      	ldr	r4, [pc, #104]	; (8002aec <HAL_RCC_GetSysClockFreq+0x70>)
 8002a82:	68a2      	ldr	r2, [r4, #8]
 8002a84:	421a      	tst	r2, r3
 8002a86:	d105      	bne.n	8002a94 <HAL_RCC_GetSysClockFreq+0x18>
 8002a88:	6823      	ldr	r3, [r4, #0]
 8002a8a:	4819      	ldr	r0, [pc, #100]	; (8002af0 <HAL_RCC_GetSysClockFreq+0x74>)
 8002a8c:	049b      	lsls	r3, r3, #18
 8002a8e:	0f5b      	lsrs	r3, r3, #29
 8002a90:	40d8      	lsrs	r0, r3
 8002a92:	bd70      	pop	{r4, r5, r6, pc}
 8002a94:	68a2      	ldr	r2, [r4, #8]
 8002a96:	401a      	ands	r2, r3
 8002a98:	2a08      	cmp	r2, #8
 8002a9a:	d022      	beq.n	8002ae2 <HAL_RCC_GetSysClockFreq+0x66>
 8002a9c:	68a2      	ldr	r2, [r4, #8]
 8002a9e:	401a      	ands	r2, r3
 8002aa0:	2a10      	cmp	r2, #16
 8002aa2:	d112      	bne.n	8002aca <HAL_RCC_GetSysClockFreq+0x4e>
 8002aa4:	257f      	movs	r5, #127	; 0x7f
 8002aa6:	68e3      	ldr	r3, [r4, #12]
 8002aa8:	68e1      	ldr	r1, [r4, #12]
 8002aaa:	68e3      	ldr	r3, [r4, #12]
 8002aac:	0649      	lsls	r1, r1, #25
 8002aae:	0f49      	lsrs	r1, r1, #29
 8002ab0:	0a1b      	lsrs	r3, r3, #8
 8002ab2:	3101      	adds	r1, #1
 8002ab4:	480e      	ldr	r0, [pc, #56]	; (8002af0 <HAL_RCC_GetSysClockFreq+0x74>)
 8002ab6:	401d      	ands	r5, r3
 8002ab8:	f7fd fb2c 	bl	8000114 <__udivsi3>
 8002abc:	68e1      	ldr	r1, [r4, #12]
 8002abe:	4368      	muls	r0, r5
 8002ac0:	0f49      	lsrs	r1, r1, #29
 8002ac2:	3101      	adds	r1, #1
 8002ac4:	f7fd fb26 	bl	8000114 <__udivsi3>
 8002ac8:	e7e3      	b.n	8002a92 <HAL_RCC_GetSysClockFreq+0x16>
 8002aca:	68a2      	ldr	r2, [r4, #8]
 8002acc:	401a      	ands	r2, r3
 8002ace:	2a20      	cmp	r2, #32
 8002ad0:	d009      	beq.n	8002ae6 <HAL_RCC_GetSysClockFreq+0x6a>
 8002ad2:	68a2      	ldr	r2, [r4, #8]
 8002ad4:	2000      	movs	r0, #0
 8002ad6:	4013      	ands	r3, r2
 8002ad8:	2b18      	cmp	r3, #24
 8002ada:	d1da      	bne.n	8002a92 <HAL_RCC_GetSysClockFreq+0x16>
 8002adc:	20fa      	movs	r0, #250	; 0xfa
 8002ade:	01c0      	lsls	r0, r0, #7
 8002ae0:	e7d7      	b.n	8002a92 <HAL_RCC_GetSysClockFreq+0x16>
 8002ae2:	4803      	ldr	r0, [pc, #12]	; (8002af0 <HAL_RCC_GetSysClockFreq+0x74>)
 8002ae4:	e7d5      	b.n	8002a92 <HAL_RCC_GetSysClockFreq+0x16>
 8002ae6:	2080      	movs	r0, #128	; 0x80
 8002ae8:	0200      	lsls	r0, r0, #8
 8002aea:	e7d2      	b.n	8002a92 <HAL_RCC_GetSysClockFreq+0x16>
 8002aec:	40021000 	.word	0x40021000
 8002af0:	00f42400 	.word	0x00f42400

08002af4 <HAL_RCC_ClockConfig>:
 8002af4:	b5f7      	push	{r0, r1, r2, r4, r5, r6, r7, lr}
 8002af6:	0004      	movs	r4, r0
 8002af8:	000d      	movs	r5, r1
 8002afa:	2800      	cmp	r0, #0
 8002afc:	d101      	bne.n	8002b02 <HAL_RCC_ClockConfig+0xe>
 8002afe:	2001      	movs	r0, #1
 8002b00:	bdfe      	pop	{r1, r2, r3, r4, r5, r6, r7, pc}
 8002b02:	2707      	movs	r7, #7
 8002b04:	4e4a      	ldr	r6, [pc, #296]	; (8002c30 <HAL_RCC_ClockConfig+0x13c>)
 8002b06:	6833      	ldr	r3, [r6, #0]
 8002b08:	403b      	ands	r3, r7
 8002b0a:	428b      	cmp	r3, r1
 8002b0c:	d32a      	bcc.n	8002b64 <HAL_RCC_ClockConfig+0x70>
 8002b0e:	6821      	ldr	r1, [r4, #0]
 8002b10:	078b      	lsls	r3, r1, #30
 8002b12:	d43b      	bmi.n	8002b8c <HAL_RCC_ClockConfig+0x98>
 8002b14:	07cb      	lsls	r3, r1, #31
 8002b16:	d448      	bmi.n	8002baa <HAL_RCC_ClockConfig+0xb6>
 8002b18:	2707      	movs	r7, #7
 8002b1a:	6833      	ldr	r3, [r6, #0]
 8002b1c:	403b      	ands	r3, r7
 8002b1e:	42ab      	cmp	r3, r5
 8002b20:	d90a      	bls.n	8002b38 <HAL_RCC_ClockConfig+0x44>
 8002b22:	6833      	ldr	r3, [r6, #0]
 8002b24:	43bb      	bics	r3, r7
 8002b26:	432b      	orrs	r3, r5
 8002b28:	6033      	str	r3, [r6, #0]
 8002b2a:	f7ff facd 	bl	80020c8 <HAL_GetTick>
 8002b2e:	9001      	str	r0, [sp, #4]
 8002b30:	6833      	ldr	r3, [r6, #0]
 8002b32:	403b      	ands	r3, r7
 8002b34:	42ab      	cmp	r3, r5
 8002b36:	d16b      	bne.n	8002c10 <HAL_RCC_ClockConfig+0x11c>
 8002b38:	6823      	ldr	r3, [r4, #0]
 8002b3a:	4d3e      	ldr	r5, [pc, #248]	; (8002c34 <HAL_RCC_ClockConfig+0x140>)
 8002b3c:	075b      	lsls	r3, r3, #29
 8002b3e:	d46f      	bmi.n	8002c20 <HAL_RCC_ClockConfig+0x12c>
 8002b40:	f7ff ff9c 	bl	8002a7c <HAL_RCC_GetSysClockFreq>
 8002b44:	68ab      	ldr	r3, [r5, #8]
 8002b46:	4a3c      	ldr	r2, [pc, #240]	; (8002c38 <HAL_RCC_ClockConfig+0x144>)
 8002b48:	051b      	lsls	r3, r3, #20
 8002b4a:	0f1b      	lsrs	r3, r3, #28
 8002b4c:	009b      	lsls	r3, r3, #2
 8002b4e:	589b      	ldr	r3, [r3, r2]
 8002b50:	221f      	movs	r2, #31
 8002b52:	4013      	ands	r3, r2
 8002b54:	40d8      	lsrs	r0, r3
 8002b56:	4b39      	ldr	r3, [pc, #228]	; (8002c3c <HAL_RCC_ClockConfig+0x148>)
 8002b58:	6018      	str	r0, [r3, #0]
 8002b5a:	4b39      	ldr	r3, [pc, #228]	; (8002c40 <HAL_RCC_ClockConfig+0x14c>)
 8002b5c:	6818      	ldr	r0, [r3, #0]
 8002b5e:	f7ff fa6b 	bl	8002038 <HAL_InitTick>
 8002b62:	e7cd      	b.n	8002b00 <HAL_RCC_ClockConfig+0xc>
 8002b64:	6833      	ldr	r3, [r6, #0]
 8002b66:	43bb      	bics	r3, r7
 8002b68:	430b      	orrs	r3, r1
 8002b6a:	6033      	str	r3, [r6, #0]
 8002b6c:	f7ff faac 	bl	80020c8 <HAL_GetTick>
 8002b70:	9001      	str	r0, [sp, #4]
 8002b72:	6833      	ldr	r3, [r6, #0]
 8002b74:	403b      	ands	r3, r7
 8002b76:	42ab      	cmp	r3, r5
 8002b78:	d0c9      	beq.n	8002b0e <HAL_RCC_ClockConfig+0x1a>
 8002b7a:	f7ff faa5 	bl	80020c8 <HAL_GetTick>
 8002b7e:	9b01      	ldr	r3, [sp, #4]
 8002b80:	1ac0      	subs	r0, r0, r3
 8002b82:	4b30      	ldr	r3, [pc, #192]	; (8002c44 <HAL_RCC_ClockConfig+0x150>)
 8002b84:	4298      	cmp	r0, r3
 8002b86:	d9f4      	bls.n	8002b72 <HAL_RCC_ClockConfig+0x7e>
 8002b88:	2003      	movs	r0, #3
 8002b8a:	e7b9      	b.n	8002b00 <HAL_RCC_ClockConfig+0xc>
 8002b8c:	4a29      	ldr	r2, [pc, #164]	; (8002c34 <HAL_RCC_ClockConfig+0x140>)
 8002b8e:	074b      	lsls	r3, r1, #29
 8002b90:	d504      	bpl.n	8002b9c <HAL_RCC_ClockConfig+0xa8>
 8002b92:	23e0      	movs	r3, #224	; 0xe0
 8002b94:	6890      	ldr	r0, [r2, #8]
 8002b96:	01db      	lsls	r3, r3, #7
 8002b98:	4303      	orrs	r3, r0
 8002b9a:	6093      	str	r3, [r2, #8]
 8002b9c:	6893      	ldr	r3, [r2, #8]
 8002b9e:	482a      	ldr	r0, [pc, #168]	; (8002c48 <HAL_RCC_ClockConfig+0x154>)
 8002ba0:	4003      	ands	r3, r0
 8002ba2:	68a0      	ldr	r0, [r4, #8]
 8002ba4:	4303      	orrs	r3, r0
 8002ba6:	6093      	str	r3, [r2, #8]
 8002ba8:	e7b4      	b.n	8002b14 <HAL_RCC_ClockConfig+0x20>
 8002baa:	6862      	ldr	r2, [r4, #4]
 8002bac:	4f21      	ldr	r7, [pc, #132]	; (8002c34 <HAL_RCC_ClockConfig+0x140>)
 8002bae:	2a01      	cmp	r2, #1
 8002bb0:	d119      	bne.n	8002be6 <HAL_RCC_ClockConfig+0xf2>
 8002bb2:	683b      	ldr	r3, [r7, #0]
 8002bb4:	039b      	lsls	r3, r3, #14
 8002bb6:	d5a2      	bpl.n	8002afe <HAL_RCC_ClockConfig+0xa>
 8002bb8:	2107      	movs	r1, #7
 8002bba:	68bb      	ldr	r3, [r7, #8]
 8002bbc:	438b      	bics	r3, r1
 8002bbe:	4313      	orrs	r3, r2
 8002bc0:	60bb      	str	r3, [r7, #8]
 8002bc2:	f7ff fa81 	bl	80020c8 <HAL_GetTick>
 8002bc6:	9001      	str	r0, [sp, #4]
 8002bc8:	2338      	movs	r3, #56	; 0x38
 8002bca:	68ba      	ldr	r2, [r7, #8]
 8002bcc:	401a      	ands	r2, r3
 8002bce:	6863      	ldr	r3, [r4, #4]
 8002bd0:	00db      	lsls	r3, r3, #3
 8002bd2:	429a      	cmp	r2, r3
 8002bd4:	d0a0      	beq.n	8002b18 <HAL_RCC_ClockConfig+0x24>
 8002bd6:	f7ff fa77 	bl	80020c8 <HAL_GetTick>
 8002bda:	9b01      	ldr	r3, [sp, #4]
 8002bdc:	1ac0      	subs	r0, r0, r3
 8002bde:	4b19      	ldr	r3, [pc, #100]	; (8002c44 <HAL_RCC_ClockConfig+0x150>)
 8002be0:	4298      	cmp	r0, r3
 8002be2:	d9f1      	bls.n	8002bc8 <HAL_RCC_ClockConfig+0xd4>
 8002be4:	e7d0      	b.n	8002b88 <HAL_RCC_ClockConfig+0x94>
 8002be6:	2a02      	cmp	r2, #2
 8002be8:	d103      	bne.n	8002bf2 <HAL_RCC_ClockConfig+0xfe>
 8002bea:	683b      	ldr	r3, [r7, #0]
 8002bec:	019b      	lsls	r3, r3, #6
 8002bee:	d4e3      	bmi.n	8002bb8 <HAL_RCC_ClockConfig+0xc4>
 8002bf0:	e785      	b.n	8002afe <HAL_RCC_ClockConfig+0xa>
 8002bf2:	2a00      	cmp	r2, #0
 8002bf4:	d103      	bne.n	8002bfe <HAL_RCC_ClockConfig+0x10a>
 8002bf6:	683b      	ldr	r3, [r7, #0]
 8002bf8:	055b      	lsls	r3, r3, #21
 8002bfa:	d4dd      	bmi.n	8002bb8 <HAL_RCC_ClockConfig+0xc4>
 8002bfc:	e77f      	b.n	8002afe <HAL_RCC_ClockConfig+0xa>
 8002bfe:	2302      	movs	r3, #2
 8002c00:	2a03      	cmp	r2, #3
 8002c02:	d103      	bne.n	8002c0c <HAL_RCC_ClockConfig+0x118>
 8002c04:	6e39      	ldr	r1, [r7, #96]	; 0x60
 8002c06:	4219      	tst	r1, r3
 8002c08:	d1d6      	bne.n	8002bb8 <HAL_RCC_ClockConfig+0xc4>
 8002c0a:	e778      	b.n	8002afe <HAL_RCC_ClockConfig+0xa>
 8002c0c:	6df9      	ldr	r1, [r7, #92]	; 0x5c
 8002c0e:	e7fa      	b.n	8002c06 <HAL_RCC_ClockConfig+0x112>
 8002c10:	f7ff fa5a 	bl	80020c8 <HAL_GetTick>
 8002c14:	9b01      	ldr	r3, [sp, #4]
 8002c16:	1ac0      	subs	r0, r0, r3
 8002c18:	4b0a      	ldr	r3, [pc, #40]	; (8002c44 <HAL_RCC_ClockConfig+0x150>)
 8002c1a:	4298      	cmp	r0, r3
 8002c1c:	d988      	bls.n	8002b30 <HAL_RCC_ClockConfig+0x3c>
 8002c1e:	e7b3      	b.n	8002b88 <HAL_RCC_ClockConfig+0x94>
 8002c20:	68ab      	ldr	r3, [r5, #8]
 8002c22:	4a0a      	ldr	r2, [pc, #40]	; (8002c4c <HAL_RCC_ClockConfig+0x158>)
 8002c24:	4013      	ands	r3, r2
 8002c26:	68e2      	ldr	r2, [r4, #12]
 8002c28:	4313      	orrs	r3, r2
 8002c2a:	60ab      	str	r3, [r5, #8]
 8002c2c:	e788      	b.n	8002b40 <HAL_RCC_ClockConfig+0x4c>
 8002c2e:	46c0      	nop			; (mov r8, r8)
 8002c30:	40022000 	.word	0x40022000
 8002c34:	40021000 	.word	0x40021000
 8002c38:	08004a38 	.word	0x08004a38
 8002c3c:	20000000 	.word	0x20000000
 8002c40:	20000008 	.word	0x20000008
 8002c44:	00001388 	.word	0x00001388
 8002c48:	fffff0ff 	.word	0xfffff0ff
 8002c4c:	ffff8fff 	.word	0xffff8fff

08002c50 <HAL_RCC_GetPCLK1Freq>:
 8002c50:	4b06      	ldr	r3, [pc, #24]	; (8002c6c <HAL_RCC_GetPCLK1Freq+0x1c>)
 8002c52:	4a07      	ldr	r2, [pc, #28]	; (8002c70 <HAL_RCC_GetPCLK1Freq+0x20>)
 8002c54:	689b      	ldr	r3, [r3, #8]
 8002c56:	045b      	lsls	r3, r3, #17
 8002c58:	0f5b      	lsrs	r3, r3, #29
 8002c5a:	009b      	lsls	r3, r3, #2
 8002c5c:	589b      	ldr	r3, [r3, r2]
 8002c5e:	221f      	movs	r2, #31
 8002c60:	4013      	ands	r3, r2
 8002c62:	4a04      	ldr	r2, [pc, #16]	; (8002c74 <HAL_RCC_GetPCLK1Freq+0x24>)
 8002c64:	6810      	ldr	r0, [r2, #0]
 8002c66:	40d8      	lsrs	r0, r3
 8002c68:	4770      	bx	lr
 8002c6a:	46c0      	nop			; (mov r8, r8)
 8002c6c:	40021000 	.word	0x40021000
 8002c70:	08004a78 	.word	0x08004a78
 8002c74:	20000000 	.word	0x20000000

08002c78 <TIM_OC1_SetConfig>:
 8002c78:	b570      	push	{r4, r5, r6, lr}
 8002c7a:	2401      	movs	r4, #1
 8002c7c:	6a03      	ldr	r3, [r0, #32]
 8002c7e:	6a02      	ldr	r2, [r0, #32]
 8002c80:	43a2      	bics	r2, r4
 8002c82:	6202      	str	r2, [r0, #32]
 8002c84:	6844      	ldr	r4, [r0, #4]
 8002c86:	4a16      	ldr	r2, [pc, #88]	; (8002ce0 <TIM_OC1_SetConfig+0x68>)
 8002c88:	6985      	ldr	r5, [r0, #24]
 8002c8a:	4015      	ands	r5, r2
 8002c8c:	680a      	ldr	r2, [r1, #0]
 8002c8e:	4315      	orrs	r5, r2
 8002c90:	2202      	movs	r2, #2
 8002c92:	4393      	bics	r3, r2
 8002c94:	688a      	ldr	r2, [r1, #8]
 8002c96:	4313      	orrs	r3, r2
 8002c98:	4a12      	ldr	r2, [pc, #72]	; (8002ce4 <TIM_OC1_SetConfig+0x6c>)
 8002c9a:	4290      	cmp	r0, r2
 8002c9c:	d005      	beq.n	8002caa <TIM_OC1_SetConfig+0x32>
 8002c9e:	4e12      	ldr	r6, [pc, #72]	; (8002ce8 <TIM_OC1_SetConfig+0x70>)
 8002ca0:	42b0      	cmp	r0, r6
 8002ca2:	d002      	beq.n	8002caa <TIM_OC1_SetConfig+0x32>
 8002ca4:	4e11      	ldr	r6, [pc, #68]	; (8002cec <TIM_OC1_SetConfig+0x74>)
 8002ca6:	42b0      	cmp	r0, r6
 8002ca8:	d113      	bne.n	8002cd2 <TIM_OC1_SetConfig+0x5a>
 8002caa:	2608      	movs	r6, #8
 8002cac:	43b3      	bics	r3, r6
 8002cae:	68ce      	ldr	r6, [r1, #12]
 8002cb0:	4333      	orrs	r3, r6
 8002cb2:	2604      	movs	r6, #4
 8002cb4:	43b3      	bics	r3, r6
 8002cb6:	4290      	cmp	r0, r2
 8002cb8:	d005      	beq.n	8002cc6 <TIM_OC1_SetConfig+0x4e>
 8002cba:	4a0b      	ldr	r2, [pc, #44]	; (8002ce8 <TIM_OC1_SetConfig+0x70>)
 8002cbc:	4290      	cmp	r0, r2
 8002cbe:	d002      	beq.n	8002cc6 <TIM_OC1_SetConfig+0x4e>
 8002cc0:	4a0a      	ldr	r2, [pc, #40]	; (8002cec <TIM_OC1_SetConfig+0x74>)
 8002cc2:	4290      	cmp	r0, r2
 8002cc4:	d105      	bne.n	8002cd2 <TIM_OC1_SetConfig+0x5a>
 8002cc6:	4a0a      	ldr	r2, [pc, #40]	; (8002cf0 <TIM_OC1_SetConfig+0x78>)
 8002cc8:	698e      	ldr	r6, [r1, #24]
 8002cca:	4022      	ands	r2, r4
 8002ccc:	694c      	ldr	r4, [r1, #20]
 8002cce:	4334      	orrs	r4, r6
 8002cd0:	4314      	orrs	r4, r2
 8002cd2:	684a      	ldr	r2, [r1, #4]
 8002cd4:	6044      	str	r4, [r0, #4]
 8002cd6:	6185      	str	r5, [r0, #24]
 8002cd8:	6342      	str	r2, [r0, #52]	; 0x34
 8002cda:	6203      	str	r3, [r0, #32]
 8002cdc:	bd70      	pop	{r4, r5, r6, pc}
 8002cde:	46c0      	nop			; (mov r8, r8)
 8002ce0:	fffeff8c 	.word	0xfffeff8c
 8002ce4:	40012c00 	.word	0x40012c00
 8002ce8:	40014400 	.word	0x40014400
 8002cec:	40014800 	.word	0x40014800
 8002cf0:	fffffcff 	.word	0xfffffcff

08002cf4 <TIM_OC3_SetConfig>:
 8002cf4:	6a03      	ldr	r3, [r0, #32]
 8002cf6:	b570      	push	{r4, r5, r6, lr}
 8002cf8:	6a02      	ldr	r2, [r0, #32]
 8002cfa:	4c16      	ldr	r4, [pc, #88]	; (8002d54 <TIM_OC3_SetConfig+0x60>)
 8002cfc:	4d16      	ldr	r5, [pc, #88]	; (8002d58 <TIM_OC3_SetConfig+0x64>)
 8002cfe:	4022      	ands	r2, r4
 8002d00:	6202      	str	r2, [r0, #32]
 8002d02:	6842      	ldr	r2, [r0, #4]
 8002d04:	69c4      	ldr	r4, [r0, #28]
 8002d06:	402c      	ands	r4, r5
 8002d08:	680d      	ldr	r5, [r1, #0]
 8002d0a:	432c      	orrs	r4, r5
 8002d0c:	4d13      	ldr	r5, [pc, #76]	; (8002d5c <TIM_OC3_SetConfig+0x68>)
 8002d0e:	402b      	ands	r3, r5
 8002d10:	688d      	ldr	r5, [r1, #8]
 8002d12:	022d      	lsls	r5, r5, #8
 8002d14:	432b      	orrs	r3, r5
 8002d16:	4d12      	ldr	r5, [pc, #72]	; (8002d60 <TIM_OC3_SetConfig+0x6c>)
 8002d18:	42a8      	cmp	r0, r5
 8002d1a:	d10e      	bne.n	8002d3a <TIM_OC3_SetConfig+0x46>
 8002d1c:	4d11      	ldr	r5, [pc, #68]	; (8002d64 <TIM_OC3_SetConfig+0x70>)
 8002d1e:	401d      	ands	r5, r3
 8002d20:	68cb      	ldr	r3, [r1, #12]
 8002d22:	021b      	lsls	r3, r3, #8
 8002d24:	432b      	orrs	r3, r5
 8002d26:	4d10      	ldr	r5, [pc, #64]	; (8002d68 <TIM_OC3_SetConfig+0x74>)
 8002d28:	402b      	ands	r3, r5
 8002d2a:	4d10      	ldr	r5, [pc, #64]	; (8002d6c <TIM_OC3_SetConfig+0x78>)
 8002d2c:	694e      	ldr	r6, [r1, #20]
 8002d2e:	4015      	ands	r5, r2
 8002d30:	698a      	ldr	r2, [r1, #24]
 8002d32:	4332      	orrs	r2, r6
 8002d34:	0112      	lsls	r2, r2, #4
 8002d36:	432a      	orrs	r2, r5
 8002d38:	e005      	b.n	8002d46 <TIM_OC3_SetConfig+0x52>
 8002d3a:	4d0d      	ldr	r5, [pc, #52]	; (8002d70 <TIM_OC3_SetConfig+0x7c>)
 8002d3c:	42a8      	cmp	r0, r5
 8002d3e:	d0f4      	beq.n	8002d2a <TIM_OC3_SetConfig+0x36>
 8002d40:	4d0c      	ldr	r5, [pc, #48]	; (8002d74 <TIM_OC3_SetConfig+0x80>)
 8002d42:	42a8      	cmp	r0, r5
 8002d44:	d0f1      	beq.n	8002d2a <TIM_OC3_SetConfig+0x36>
 8002d46:	6042      	str	r2, [r0, #4]
 8002d48:	684a      	ldr	r2, [r1, #4]
 8002d4a:	61c4      	str	r4, [r0, #28]
 8002d4c:	63c2      	str	r2, [r0, #60]	; 0x3c
 8002d4e:	6203      	str	r3, [r0, #32]
 8002d50:	bd70      	pop	{r4, r5, r6, pc}
 8002d52:	46c0      	nop			; (mov r8, r8)
 8002d54:	fffffeff 	.word	0xfffffeff
 8002d58:	fffeff8c 	.word	0xfffeff8c
 8002d5c:	fffffdff 	.word	0xfffffdff
 8002d60:	40012c00 	.word	0x40012c00
 8002d64:	fffff7ff 	.word	0xfffff7ff
 8002d68:	fffffbff 	.word	0xfffffbff
 8002d6c:	ffffcfff 	.word	0xffffcfff
 8002d70:	40014400 	.word	0x40014400
 8002d74:	40014800 	.word	0x40014800

08002d78 <TIM_OC4_SetConfig>:
 8002d78:	6a02      	ldr	r2, [r0, #32]
 8002d7a:	b530      	push	{r4, r5, lr}
 8002d7c:	6a03      	ldr	r3, [r0, #32]
 8002d7e:	4c11      	ldr	r4, [pc, #68]	; (8002dc4 <TIM_OC4_SetConfig+0x4c>)
 8002d80:	4023      	ands	r3, r4
 8002d82:	6203      	str	r3, [r0, #32]
 8002d84:	4c10      	ldr	r4, [pc, #64]	; (8002dc8 <TIM_OC4_SetConfig+0x50>)
 8002d86:	6843      	ldr	r3, [r0, #4]
 8002d88:	69c5      	ldr	r5, [r0, #28]
 8002d8a:	4025      	ands	r5, r4
 8002d8c:	680c      	ldr	r4, [r1, #0]
 8002d8e:	0224      	lsls	r4, r4, #8
 8002d90:	4325      	orrs	r5, r4
 8002d92:	4c0e      	ldr	r4, [pc, #56]	; (8002dcc <TIM_OC4_SetConfig+0x54>)
 8002d94:	4022      	ands	r2, r4
 8002d96:	688c      	ldr	r4, [r1, #8]
 8002d98:	0324      	lsls	r4, r4, #12
 8002d9a:	4322      	orrs	r2, r4
 8002d9c:	4c0c      	ldr	r4, [pc, #48]	; (8002dd0 <TIM_OC4_SetConfig+0x58>)
 8002d9e:	42a0      	cmp	r0, r4
 8002da0:	d005      	beq.n	8002dae <TIM_OC4_SetConfig+0x36>
 8002da2:	4c0c      	ldr	r4, [pc, #48]	; (8002dd4 <TIM_OC4_SetConfig+0x5c>)
 8002da4:	42a0      	cmp	r0, r4
 8002da6:	d002      	beq.n	8002dae <TIM_OC4_SetConfig+0x36>
 8002da8:	4c0b      	ldr	r4, [pc, #44]	; (8002dd8 <TIM_OC4_SetConfig+0x60>)
 8002daa:	42a0      	cmp	r0, r4
 8002dac:	d104      	bne.n	8002db8 <TIM_OC4_SetConfig+0x40>
 8002dae:	4c0b      	ldr	r4, [pc, #44]	; (8002ddc <TIM_OC4_SetConfig+0x64>)
 8002db0:	4023      	ands	r3, r4
 8002db2:	694c      	ldr	r4, [r1, #20]
 8002db4:	01a4      	lsls	r4, r4, #6
 8002db6:	4323      	orrs	r3, r4
 8002db8:	6043      	str	r3, [r0, #4]
 8002dba:	684b      	ldr	r3, [r1, #4]
 8002dbc:	61c5      	str	r5, [r0, #28]
 8002dbe:	6403      	str	r3, [r0, #64]	; 0x40
 8002dc0:	6202      	str	r2, [r0, #32]
 8002dc2:	bd30      	pop	{r4, r5, pc}
 8002dc4:	ffffefff 	.word	0xffffefff
 8002dc8:	feff8cff 	.word	0xfeff8cff
 8002dcc:	ffffdfff 	.word	0xffffdfff
 8002dd0:	40012c00 	.word	0x40012c00
 8002dd4:	40014400 	.word	0x40014400
 8002dd8:	40014800 	.word	0x40014800
 8002ddc:	ffffbfff 	.word	0xffffbfff

08002de0 <TIM_OC5_SetConfig>:
 8002de0:	6a02      	ldr	r2, [r0, #32]
 8002de2:	b570      	push	{r4, r5, r6, lr}
 8002de4:	6a03      	ldr	r3, [r0, #32]
 8002de6:	4e10      	ldr	r6, [pc, #64]	; (8002e28 <TIM_OC5_SetConfig+0x48>)
 8002de8:	4c10      	ldr	r4, [pc, #64]	; (8002e2c <TIM_OC5_SetConfig+0x4c>)
 8002dea:	4033      	ands	r3, r6
 8002dec:	6203      	str	r3, [r0, #32]
 8002dee:	6843      	ldr	r3, [r0, #4]
 8002df0:	6d45      	ldr	r5, [r0, #84]	; 0x54
 8002df2:	4025      	ands	r5, r4
 8002df4:	680c      	ldr	r4, [r1, #0]
 8002df6:	4325      	orrs	r5, r4
 8002df8:	4c0d      	ldr	r4, [pc, #52]	; (8002e30 <TIM_OC5_SetConfig+0x50>)
 8002dfa:	4022      	ands	r2, r4
 8002dfc:	688c      	ldr	r4, [r1, #8]
 8002dfe:	0424      	lsls	r4, r4, #16
 8002e00:	4322      	orrs	r2, r4
 8002e02:	4c0c      	ldr	r4, [pc, #48]	; (8002e34 <TIM_OC5_SetConfig+0x54>)
 8002e04:	42a0      	cmp	r0, r4
 8002e06:	d005      	beq.n	8002e14 <TIM_OC5_SetConfig+0x34>
 8002e08:	4c0b      	ldr	r4, [pc, #44]	; (8002e38 <TIM_OC5_SetConfig+0x58>)
 8002e0a:	42a0      	cmp	r0, r4
 8002e0c:	d002      	beq.n	8002e14 <TIM_OC5_SetConfig+0x34>
 8002e0e:	4c0b      	ldr	r4, [pc, #44]	; (8002e3c <TIM_OC5_SetConfig+0x5c>)
 8002e10:	42a0      	cmp	r0, r4
 8002e12:	d103      	bne.n	8002e1c <TIM_OC5_SetConfig+0x3c>
 8002e14:	694c      	ldr	r4, [r1, #20]
 8002e16:	4033      	ands	r3, r6
 8002e18:	0224      	lsls	r4, r4, #8
 8002e1a:	4323      	orrs	r3, r4
 8002e1c:	6043      	str	r3, [r0, #4]
 8002e1e:	684b      	ldr	r3, [r1, #4]
 8002e20:	6545      	str	r5, [r0, #84]	; 0x54
 8002e22:	6583      	str	r3, [r0, #88]	; 0x58
 8002e24:	6202      	str	r2, [r0, #32]
 8002e26:	bd70      	pop	{r4, r5, r6, pc}
 8002e28:	fffeffff 	.word	0xfffeffff
 8002e2c:	fffeff8f 	.word	0xfffeff8f
 8002e30:	fffdffff 	.word	0xfffdffff
 8002e34:	40012c00 	.word	0x40012c00
 8002e38:	40014400 	.word	0x40014400
 8002e3c:	40014800 	.word	0x40014800

08002e40 <TIM_OC6_SetConfig>:
 8002e40:	6a02      	ldr	r2, [r0, #32]
 8002e42:	b530      	push	{r4, r5, lr}
 8002e44:	6a03      	ldr	r3, [r0, #32]
 8002e46:	4c11      	ldr	r4, [pc, #68]	; (8002e8c <TIM_OC6_SetConfig+0x4c>)
 8002e48:	4023      	ands	r3, r4
 8002e4a:	6203      	str	r3, [r0, #32]
 8002e4c:	4c10      	ldr	r4, [pc, #64]	; (8002e90 <TIM_OC6_SetConfig+0x50>)
 8002e4e:	6843      	ldr	r3, [r0, #4]
 8002e50:	6d45      	ldr	r5, [r0, #84]	; 0x54
 8002e52:	4025      	ands	r5, r4
 8002e54:	680c      	ldr	r4, [r1, #0]
 8002e56:	0224      	lsls	r4, r4, #8
 8002e58:	4325      	orrs	r5, r4
 8002e5a:	4c0e      	ldr	r4, [pc, #56]	; (8002e94 <TIM_OC6_SetConfig+0x54>)
 8002e5c:	4022      	ands	r2, r4
 8002e5e:	688c      	ldr	r4, [r1, #8]
 8002e60:	0524      	lsls	r4, r4, #20
 8002e62:	4322      	orrs	r2, r4
 8002e64:	4c0c      	ldr	r4, [pc, #48]	; (8002e98 <TIM_OC6_SetConfig+0x58>)
 8002e66:	42a0      	cmp	r0, r4
 8002e68:	d005      	beq.n	8002e76 <TIM_OC6_SetConfig+0x36>
 8002e6a:	4c0c      	ldr	r4, [pc, #48]	; (8002e9c <TIM_OC6_SetConfig+0x5c>)
 8002e6c:	42a0      	cmp	r0, r4
 8002e6e:	d002      	beq.n	8002e76 <TIM_OC6_SetConfig+0x36>
 8002e70:	4c0b      	ldr	r4, [pc, #44]	; (8002ea0 <TIM_OC6_SetConfig+0x60>)
 8002e72:	42a0      	cmp	r0, r4
 8002e74:	d104      	bne.n	8002e80 <TIM_OC6_SetConfig+0x40>
 8002e76:	4c0b      	ldr	r4, [pc, #44]	; (8002ea4 <TIM_OC6_SetConfig+0x64>)
 8002e78:	4023      	ands	r3, r4
 8002e7a:	694c      	ldr	r4, [r1, #20]
 8002e7c:	02a4      	lsls	r4, r4, #10
 8002e7e:	4323      	orrs	r3, r4
 8002e80:	6043      	str	r3, [r0, #4]
 8002e82:	684b      	ldr	r3, [r1, #4]
 8002e84:	6545      	str	r5, [r0, #84]	; 0x54
 8002e86:	65c3      	str	r3, [r0, #92]	; 0x5c
 8002e88:	6202      	str	r2, [r0, #32]
 8002e8a:	bd30      	pop	{r4, r5, pc}
 8002e8c:	ffefffff 	.word	0xffefffff
 8002e90:	feff8fff 	.word	0xfeff8fff
 8002e94:	ffdfffff 	.word	0xffdfffff
 8002e98:	40012c00 	.word	0x40012c00
 8002e9c:	40014400 	.word	0x40014400
 8002ea0:	40014800 	.word	0x40014800
 8002ea4:	fffbffff 	.word	0xfffbffff

08002ea8 <HAL_TIM_PWM_MspInit>:
 8002ea8:	4770      	bx	lr

08002eaa <TIM_DMADelayPulseCplt>:
 8002eaa:	b510      	push	{r4, lr}
 8002eac:	6a84      	ldr	r4, [r0, #40]	; 0x28
 8002eae:	6a62      	ldr	r2, [r4, #36]	; 0x24
 8002eb0:	4282      	cmp	r2, r0
 8002eb2:	d10d      	bne.n	8002ed0 <TIM_DMADelayPulseCplt+0x26>
 8002eb4:	2301      	movs	r3, #1
 8002eb6:	7723      	strb	r3, [r4, #28]
 8002eb8:	69d2      	ldr	r2, [r2, #28]
 8002eba:	2a00      	cmp	r2, #0
 8002ebc:	d102      	bne.n	8002ec4 <TIM_DMADelayPulseCplt+0x1a>
 8002ebe:	0022      	movs	r2, r4
 8002ec0:	323e      	adds	r2, #62	; 0x3e
 8002ec2:	7013      	strb	r3, [r2, #0]
 8002ec4:	0020      	movs	r0, r4
 8002ec6:	f7fe fc51 	bl	800176c <HAL_TIM_PWM_PulseFinishedCallback>
 8002eca:	2300      	movs	r3, #0
 8002ecc:	7723      	strb	r3, [r4, #28]
 8002ece:	bd10      	pop	{r4, pc}
 8002ed0:	6aa3      	ldr	r3, [r4, #40]	; 0x28
 8002ed2:	4283      	cmp	r3, r0
 8002ed4:	d109      	bne.n	8002eea <TIM_DMADelayPulseCplt+0x40>
 8002ed6:	2202      	movs	r2, #2
 8002ed8:	7722      	strb	r2, [r4, #28]
 8002eda:	69db      	ldr	r3, [r3, #28]
 8002edc:	2b00      	cmp	r3, #0
 8002ede:	d1f1      	bne.n	8002ec4 <TIM_DMADelayPulseCplt+0x1a>
 8002ee0:	0023      	movs	r3, r4
 8002ee2:	3a01      	subs	r2, #1
 8002ee4:	333f      	adds	r3, #63	; 0x3f
 8002ee6:	701a      	strb	r2, [r3, #0]
 8002ee8:	e7ec      	b.n	8002ec4 <TIM_DMADelayPulseCplt+0x1a>
 8002eea:	6ae3      	ldr	r3, [r4, #44]	; 0x2c
 8002eec:	4283      	cmp	r3, r0
 8002eee:	d108      	bne.n	8002f02 <TIM_DMADelayPulseCplt+0x58>
 8002ef0:	2204      	movs	r2, #4
 8002ef2:	7722      	strb	r2, [r4, #28]
 8002ef4:	69db      	ldr	r3, [r3, #28]
 8002ef6:	2b00      	cmp	r3, #0
 8002ef8:	d1e4      	bne.n	8002ec4 <TIM_DMADelayPulseCplt+0x1a>
 8002efa:	0023      	movs	r3, r4
 8002efc:	3a03      	subs	r2, #3
 8002efe:	3340      	adds	r3, #64	; 0x40
 8002f00:	e7f1      	b.n	8002ee6 <TIM_DMADelayPulseCplt+0x3c>
 8002f02:	6b23      	ldr	r3, [r4, #48]	; 0x30
 8002f04:	4283      	cmp	r3, r0
 8002f06:	d1dd      	bne.n	8002ec4 <TIM_DMADelayPulseCplt+0x1a>
 8002f08:	2208      	movs	r2, #8
 8002f0a:	7722      	strb	r2, [r4, #28]
 8002f0c:	69db      	ldr	r3, [r3, #28]
 8002f0e:	2b00      	cmp	r3, #0
 8002f10:	d1d8      	bne.n	8002ec4 <TIM_DMADelayPulseCplt+0x1a>
 8002f12:	0023      	movs	r3, r4
 8002f14:	3a07      	subs	r2, #7
 8002f16:	3341      	adds	r3, #65	; 0x41
 8002f18:	e7e5      	b.n	8002ee6 <TIM_DMADelayPulseCplt+0x3c>

08002f1a <TIM_DMADelayPulseHalfCplt>:
 8002f1a:	b510      	push	{r4, lr}
 8002f1c:	6a84      	ldr	r4, [r0, #40]	; 0x28
 8002f1e:	6a63      	ldr	r3, [r4, #36]	; 0x24
 8002f20:	4283      	cmp	r3, r0
 8002f22:	d107      	bne.n	8002f34 <TIM_DMADelayPulseHalfCplt+0x1a>
 8002f24:	2301      	movs	r3, #1
 8002f26:	7723      	strb	r3, [r4, #28]
 8002f28:	0020      	movs	r0, r4
 8002f2a:	f7fe fc17 	bl	800175c <HAL_TIM_PWM_PulseFinishedHalfCpltCallback>
 8002f2e:	2300      	movs	r3, #0
 8002f30:	7723      	strb	r3, [r4, #28]
 8002f32:	bd10      	pop	{r4, pc}
 8002f34:	6aa3      	ldr	r3, [r4, #40]	; 0x28
 8002f36:	4283      	cmp	r3, r0
 8002f38:	d101      	bne.n	8002f3e <TIM_DMADelayPulseHalfCplt+0x24>
 8002f3a:	2302      	movs	r3, #2
 8002f3c:	e7f3      	b.n	8002f26 <TIM_DMADelayPulseHalfCplt+0xc>
 8002f3e:	6ae3      	ldr	r3, [r4, #44]	; 0x2c
 8002f40:	4283      	cmp	r3, r0
 8002f42:	d101      	bne.n	8002f48 <TIM_DMADelayPulseHalfCplt+0x2e>
 8002f44:	2304      	movs	r3, #4
 8002f46:	e7ee      	b.n	8002f26 <TIM_DMADelayPulseHalfCplt+0xc>
 8002f48:	6b23      	ldr	r3, [r4, #48]	; 0x30
 8002f4a:	4283      	cmp	r3, r0
 8002f4c:	d1ec      	bne.n	8002f28 <TIM_DMADelayPulseHalfCplt+0xe>
 8002f4e:	2308      	movs	r3, #8
 8002f50:	e7e9      	b.n	8002f26 <TIM_DMADelayPulseHalfCplt+0xc>

08002f52 <HAL_TIM_ErrorCallback>:
 8002f52:	4770      	bx	lr

08002f54 <TIM_DMAError>:
 8002f54:	b510      	push	{r4, lr}
 8002f56:	6a84      	ldr	r4, [r0, #40]	; 0x28
 8002f58:	6a63      	ldr	r3, [r4, #36]	; 0x24
 8002f5a:	4283      	cmp	r3, r0
 8002f5c:	d105      	bne.n	8002f6a <TIM_DMAError+0x16>
 8002f5e:	2301      	movs	r3, #1
 8002f60:	0022      	movs	r2, r4
 8002f62:	7723      	strb	r3, [r4, #28]
 8002f64:	323e      	adds	r2, #62	; 0x3e
 8002f66:	7013      	strb	r3, [r2, #0]
 8002f68:	e008      	b.n	8002f7c <TIM_DMAError+0x28>
 8002f6a:	6aa3      	ldr	r3, [r4, #40]	; 0x28
 8002f6c:	4283      	cmp	r3, r0
 8002f6e:	d10b      	bne.n	8002f88 <TIM_DMAError+0x34>
 8002f70:	2302      	movs	r3, #2
 8002f72:	7723      	strb	r3, [r4, #28]
 8002f74:	0023      	movs	r3, r4
 8002f76:	2201      	movs	r2, #1
 8002f78:	333f      	adds	r3, #63	; 0x3f
 8002f7a:	701a      	strb	r2, [r3, #0]
 8002f7c:	0020      	movs	r0, r4
 8002f7e:	f7ff ffe8 	bl	8002f52 <HAL_TIM_ErrorCallback>
 8002f82:	2300      	movs	r3, #0
 8002f84:	7723      	strb	r3, [r4, #28]
 8002f86:	bd10      	pop	{r4, pc}
 8002f88:	6ae2      	ldr	r2, [r4, #44]	; 0x2c
 8002f8a:	2301      	movs	r3, #1
 8002f8c:	4282      	cmp	r2, r0
 8002f8e:	d104      	bne.n	8002f9a <TIM_DMAError+0x46>
 8002f90:	2204      	movs	r2, #4
 8002f92:	7722      	strb	r2, [r4, #28]
 8002f94:	0022      	movs	r2, r4
 8002f96:	3240      	adds	r2, #64	; 0x40
 8002f98:	e7e5      	b.n	8002f66 <TIM_DMAError+0x12>
 8002f9a:	6b22      	ldr	r2, [r4, #48]	; 0x30
 8002f9c:	4282      	cmp	r2, r0
 8002f9e:	d104      	bne.n	8002faa <TIM_DMAError+0x56>
 8002fa0:	2208      	movs	r2, #8
 8002fa2:	7722      	strb	r2, [r4, #28]
 8002fa4:	0022      	movs	r2, r4
 8002fa6:	3241      	adds	r2, #65	; 0x41
 8002fa8:	e7dd      	b.n	8002f66 <TIM_DMAError+0x12>
 8002faa:	0022      	movs	r2, r4
 8002fac:	323d      	adds	r2, #61	; 0x3d
 8002fae:	e7da      	b.n	8002f66 <TIM_DMAError+0x12>

08002fb0 <TIM_Base_SetConfig>:
 8002fb0:	4a1c      	ldr	r2, [pc, #112]	; (8003024 <TIM_Base_SetConfig+0x74>)
 8002fb2:	b510      	push	{r4, lr}
 8002fb4:	6803      	ldr	r3, [r0, #0]
 8002fb6:	4290      	cmp	r0, r2
 8002fb8:	d002      	beq.n	8002fc0 <TIM_Base_SetConfig+0x10>
 8002fba:	4c1b      	ldr	r4, [pc, #108]	; (8003028 <TIM_Base_SetConfig+0x78>)
 8002fbc:	42a0      	cmp	r0, r4
 8002fbe:	d108      	bne.n	8002fd2 <TIM_Base_SetConfig+0x22>
 8002fc0:	2470      	movs	r4, #112	; 0x70
 8002fc2:	43a3      	bics	r3, r4
 8002fc4:	684c      	ldr	r4, [r1, #4]
 8002fc6:	4323      	orrs	r3, r4
 8002fc8:	4290      	cmp	r0, r2
 8002fca:	d00b      	beq.n	8002fe4 <TIM_Base_SetConfig+0x34>
 8002fcc:	4c16      	ldr	r4, [pc, #88]	; (8003028 <TIM_Base_SetConfig+0x78>)
 8002fce:	42a0      	cmp	r0, r4
 8002fd0:	d008      	beq.n	8002fe4 <TIM_Base_SetConfig+0x34>
 8002fd2:	4c16      	ldr	r4, [pc, #88]	; (800302c <TIM_Base_SetConfig+0x7c>)
 8002fd4:	42a0      	cmp	r0, r4
 8002fd6:	d005      	beq.n	8002fe4 <TIM_Base_SetConfig+0x34>
 8002fd8:	4c15      	ldr	r4, [pc, #84]	; (8003030 <TIM_Base_SetConfig+0x80>)
 8002fda:	42a0      	cmp	r0, r4
 8002fdc:	d002      	beq.n	8002fe4 <TIM_Base_SetConfig+0x34>
 8002fde:	4c15      	ldr	r4, [pc, #84]	; (8003034 <TIM_Base_SetConfig+0x84>)
 8002fe0:	42a0      	cmp	r0, r4
 8002fe2:	d103      	bne.n	8002fec <TIM_Base_SetConfig+0x3c>
 8002fe4:	4c14      	ldr	r4, [pc, #80]	; (8003038 <TIM_Base_SetConfig+0x88>)
 8002fe6:	4023      	ands	r3, r4
 8002fe8:	68cc      	ldr	r4, [r1, #12]
 8002fea:	4323      	orrs	r3, r4
 8002fec:	2480      	movs	r4, #128	; 0x80
 8002fee:	43a3      	bics	r3, r4
 8002ff0:	694c      	ldr	r4, [r1, #20]
 8002ff2:	4323      	orrs	r3, r4
 8002ff4:	6003      	str	r3, [r0, #0]
 8002ff6:	688b      	ldr	r3, [r1, #8]
 8002ff8:	62c3      	str	r3, [r0, #44]	; 0x2c
 8002ffa:	680b      	ldr	r3, [r1, #0]
 8002ffc:	6283      	str	r3, [r0, #40]	; 0x28
 8002ffe:	4290      	cmp	r0, r2
 8003000:	d005      	beq.n	800300e <TIM_Base_SetConfig+0x5e>
 8003002:	4b0b      	ldr	r3, [pc, #44]	; (8003030 <TIM_Base_SetConfig+0x80>)
 8003004:	4298      	cmp	r0, r3
 8003006:	d002      	beq.n	800300e <TIM_Base_SetConfig+0x5e>
 8003008:	4b0a      	ldr	r3, [pc, #40]	; (8003034 <TIM_Base_SetConfig+0x84>)
 800300a:	4298      	cmp	r0, r3
 800300c:	d101      	bne.n	8003012 <TIM_Base_SetConfig+0x62>
 800300e:	690b      	ldr	r3, [r1, #16]
 8003010:	6303      	str	r3, [r0, #48]	; 0x30
 8003012:	2201      	movs	r2, #1
 8003014:	6142      	str	r2, [r0, #20]
 8003016:	6903      	ldr	r3, [r0, #16]
 8003018:	4213      	tst	r3, r2
 800301a:	d002      	beq.n	8003022 <TIM_Base_SetConfig+0x72>
 800301c:	6903      	ldr	r3, [r0, #16]
 800301e:	4393      	bics	r3, r2
 8003020:	6103      	str	r3, [r0, #16]
 8003022:	bd10      	pop	{r4, pc}
 8003024:	40012c00 	.word	0x40012c00
 8003028:	40000400 	.word	0x40000400
 800302c:	40002000 	.word	0x40002000
 8003030:	40014400 	.word	0x40014400
 8003034:	40014800 	.word	0x40014800
 8003038:	fffffcff 	.word	0xfffffcff

0800303c <HAL_TIM_Base_Init>:
 800303c:	b570      	push	{r4, r5, r6, lr}
 800303e:	0004      	movs	r4, r0
 8003040:	2001      	movs	r0, #1
 8003042:	2c00      	cmp	r4, #0
 8003044:	d023      	beq.n	800308e <HAL_TIM_Base_Init+0x52>
 8003046:	0025      	movs	r5, r4
 8003048:	353d      	adds	r5, #61	; 0x3d
 800304a:	782b      	ldrb	r3, [r5, #0]
 800304c:	b2da      	uxtb	r2, r3
 800304e:	2b00      	cmp	r3, #0
 8003050:	d105      	bne.n	800305e <HAL_TIM_Base_Init+0x22>
 8003052:	0023      	movs	r3, r4
 8003054:	333c      	adds	r3, #60	; 0x3c
 8003056:	0020      	movs	r0, r4
 8003058:	701a      	strb	r2, [r3, #0]
 800305a:	f7fe fdaf 	bl	8001bbc <HAL_TIM_Base_MspInit>
 800305e:	2302      	movs	r3, #2
 8003060:	702b      	strb	r3, [r5, #0]
 8003062:	6820      	ldr	r0, [r4, #0]
 8003064:	1d21      	adds	r1, r4, #4
 8003066:	f7ff ffa3 	bl	8002fb0 <TIM_Base_SetConfig>
 800306a:	0022      	movs	r2, r4
 800306c:	2301      	movs	r3, #1
 800306e:	2000      	movs	r0, #0
 8003070:	3248      	adds	r2, #72	; 0x48
 8003072:	7013      	strb	r3, [r2, #0]
 8003074:	3447      	adds	r4, #71	; 0x47
 8003076:	3a0a      	subs	r2, #10
 8003078:	7013      	strb	r3, [r2, #0]
 800307a:	7053      	strb	r3, [r2, #1]
 800307c:	7093      	strb	r3, [r2, #2]
 800307e:	70d3      	strb	r3, [r2, #3]
 8003080:	7113      	strb	r3, [r2, #4]
 8003082:	7153      	strb	r3, [r2, #5]
 8003084:	7193      	strb	r3, [r2, #6]
 8003086:	71d3      	strb	r3, [r2, #7]
 8003088:	7213      	strb	r3, [r2, #8]
 800308a:	7023      	strb	r3, [r4, #0]
 800308c:	702b      	strb	r3, [r5, #0]
 800308e:	bd70      	pop	{r4, r5, r6, pc}

08003090 <HAL_TIM_PWM_Init>:
 8003090:	b570      	push	{r4, r5, r6, lr}
 8003092:	0004      	movs	r4, r0
 8003094:	2001      	movs	r0, #1
 8003096:	2c00      	cmp	r4, #0
 8003098:	d023      	beq.n	80030e2 <HAL_TIM_PWM_Init+0x52>
 800309a:	0025      	movs	r5, r4
 800309c:	353d      	adds	r5, #61	; 0x3d
 800309e:	782b      	ldrb	r3, [r5, #0]
 80030a0:	b2da      	uxtb	r2, r3
 80030a2:	2b00      	cmp	r3, #0
 80030a4:	d105      	bne.n	80030b2 <HAL_TIM_PWM_Init+0x22>
 80030a6:	0023      	movs	r3, r4
 80030a8:	333c      	adds	r3, #60	; 0x3c
 80030aa:	0020      	movs	r0, r4
 80030ac:	701a      	strb	r2, [r3, #0]
 80030ae:	f7ff fefb 	bl	8002ea8 <HAL_TIM_PWM_MspInit>
 80030b2:	2302      	movs	r3, #2
 80030b4:	702b      	strb	r3, [r5, #0]
 80030b6:	6820      	ldr	r0, [r4, #0]
 80030b8:	1d21      	adds	r1, r4, #4
 80030ba:	f7ff ff79 	bl	8002fb0 <TIM_Base_SetConfig>
 80030be:	0022      	movs	r2, r4
 80030c0:	2301      	movs	r3, #1
 80030c2:	2000      	movs	r0, #0
 80030c4:	3248      	adds	r2, #72	; 0x48
 80030c6:	7013      	strb	r3, [r2, #0]
 80030c8:	3447      	adds	r4, #71	; 0x47
 80030ca:	3a0a      	subs	r2, #10
 80030cc:	7013      	strb	r3, [r2, #0]
 80030ce:	7053      	strb	r3, [r2, #1]
 80030d0:	7093      	strb	r3, [r2, #2]
 80030d2:	70d3      	strb	r3, [r2, #3]
 80030d4:	7113      	strb	r3, [r2, #4]
 80030d6:	7153      	strb	r3, [r2, #5]
 80030d8:	7193      	strb	r3, [r2, #6]
 80030da:	71d3      	strb	r3, [r2, #7]
 80030dc:	7213      	strb	r3, [r2, #8]
 80030de:	7023      	strb	r3, [r4, #0]
 80030e0:	702b      	strb	r3, [r5, #0]
 80030e2:	bd70      	pop	{r4, r5, r6, pc}

080030e4 <TIM_OC2_SetConfig>:
 80030e4:	b570      	push	{r4, r5, r6, lr}
 80030e6:	2410      	movs	r4, #16
 80030e8:	6a02      	ldr	r2, [r0, #32]
 80030ea:	6a03      	ldr	r3, [r0, #32]
 80030ec:	43a3      	bics	r3, r4
 80030ee:	6203      	str	r3, [r0, #32]
 80030f0:	4c15      	ldr	r4, [pc, #84]	; (8003148 <TIM_OC2_SetConfig+0x64>)
 80030f2:	6843      	ldr	r3, [r0, #4]
 80030f4:	6985      	ldr	r5, [r0, #24]
 80030f6:	4025      	ands	r5, r4
 80030f8:	680c      	ldr	r4, [r1, #0]
 80030fa:	0224      	lsls	r4, r4, #8
 80030fc:	4325      	orrs	r5, r4
 80030fe:	2420      	movs	r4, #32
 8003100:	43a2      	bics	r2, r4
 8003102:	688c      	ldr	r4, [r1, #8]
 8003104:	0124      	lsls	r4, r4, #4
 8003106:	4322      	orrs	r2, r4
 8003108:	4c10      	ldr	r4, [pc, #64]	; (800314c <TIM_OC2_SetConfig+0x68>)
 800310a:	42a0      	cmp	r0, r4
 800310c:	d10f      	bne.n	800312e <TIM_OC2_SetConfig+0x4a>
 800310e:	2480      	movs	r4, #128	; 0x80
 8003110:	43a2      	bics	r2, r4
 8003112:	0014      	movs	r4, r2
 8003114:	68ca      	ldr	r2, [r1, #12]
 8003116:	0112      	lsls	r2, r2, #4
 8003118:	4322      	orrs	r2, r4
 800311a:	2440      	movs	r4, #64	; 0x40
 800311c:	43a2      	bics	r2, r4
 800311e:	4e0c      	ldr	r6, [pc, #48]	; (8003150 <TIM_OC2_SetConfig+0x6c>)
 8003120:	694c      	ldr	r4, [r1, #20]
 8003122:	401e      	ands	r6, r3
 8003124:	698b      	ldr	r3, [r1, #24]
 8003126:	4323      	orrs	r3, r4
 8003128:	009b      	lsls	r3, r3, #2
 800312a:	4333      	orrs	r3, r6
 800312c:	e005      	b.n	800313a <TIM_OC2_SetConfig+0x56>
 800312e:	4c09      	ldr	r4, [pc, #36]	; (8003154 <TIM_OC2_SetConfig+0x70>)
 8003130:	42a0      	cmp	r0, r4
 8003132:	d0f4      	beq.n	800311e <TIM_OC2_SetConfig+0x3a>
 8003134:	4c08      	ldr	r4, [pc, #32]	; (8003158 <TIM_OC2_SetConfig+0x74>)
 8003136:	42a0      	cmp	r0, r4
 8003138:	d0f1      	beq.n	800311e <TIM_OC2_SetConfig+0x3a>
 800313a:	6043      	str	r3, [r0, #4]
 800313c:	684b      	ldr	r3, [r1, #4]
 800313e:	6185      	str	r5, [r0, #24]
 8003140:	6383      	str	r3, [r0, #56]	; 0x38
 8003142:	6202      	str	r2, [r0, #32]
 8003144:	bd70      	pop	{r4, r5, r6, pc}
 8003146:	46c0      	nop			; (mov r8, r8)
 8003148:	feff8cff 	.word	0xfeff8cff
 800314c:	40012c00 	.word	0x40012c00
 8003150:	fffff3ff 	.word	0xfffff3ff
 8003154:	40014400 	.word	0x40014400
 8003158:	40014800 	.word	0x40014800

0800315c <HAL_TIM_PWM_ConfigChannel>:
 800315c:	b5f8      	push	{r3, r4, r5, r6, r7, lr}
 800315e:	0007      	movs	r7, r0
 8003160:	373c      	adds	r7, #60	; 0x3c
 8003162:	783b      	ldrb	r3, [r7, #0]
 8003164:	0004      	movs	r4, r0
 8003166:	000d      	movs	r5, r1
 8003168:	0016      	movs	r6, r2
 800316a:	2002      	movs	r0, #2
 800316c:	2b01      	cmp	r3, #1
 800316e:	d00c      	beq.n	800318a <HAL_TIM_PWM_ConfigChannel+0x2e>
 8003170:	3801      	subs	r0, #1
 8003172:	7038      	strb	r0, [r7, #0]
 8003174:	2a0c      	cmp	r2, #12
 8003176:	d051      	beq.n	800321c <HAL_TIM_PWM_ConfigChannel+0xc0>
 8003178:	d808      	bhi.n	800318c <HAL_TIM_PWM_ConfigChannel+0x30>
 800317a:	2a04      	cmp	r2, #4
 800317c:	d02d      	beq.n	80031da <HAL_TIM_PWM_ConfigChannel+0x7e>
 800317e:	2a08      	cmp	r2, #8
 8003180:	d03c      	beq.n	80031fc <HAL_TIM_PWM_ConfigChannel+0xa0>
 8003182:	2a00      	cmp	r2, #0
 8003184:	d017      	beq.n	80031b6 <HAL_TIM_PWM_ConfigChannel+0x5a>
 8003186:	2300      	movs	r3, #0
 8003188:	703b      	strb	r3, [r7, #0]
 800318a:	bdf8      	pop	{r3, r4, r5, r6, r7, pc}
 800318c:	2a10      	cmp	r2, #16
 800318e:	d056      	beq.n	800323e <HAL_TIM_PWM_ConfigChannel+0xe2>
 8003190:	2a14      	cmp	r2, #20
 8003192:	d1f8      	bne.n	8003186 <HAL_TIM_PWM_ConfigChannel+0x2a>
 8003194:	6820      	ldr	r0, [r4, #0]
 8003196:	f7ff fe53 	bl	8002e40 <TIM_OC6_SetConfig>
 800319a:	2280      	movs	r2, #128	; 0x80
 800319c:	6823      	ldr	r3, [r4, #0]
 800319e:	0112      	lsls	r2, r2, #4
 80031a0:	6d59      	ldr	r1, [r3, #84]	; 0x54
 80031a2:	430a      	orrs	r2, r1
 80031a4:	655a      	str	r2, [r3, #84]	; 0x54
 80031a6:	6d5a      	ldr	r2, [r3, #84]	; 0x54
 80031a8:	492d      	ldr	r1, [pc, #180]	; (8003260 <HAL_TIM_PWM_ConfigChannel+0x104>)
 80031aa:	400a      	ands	r2, r1
 80031ac:	655a      	str	r2, [r3, #84]	; 0x54
 80031ae:	692a      	ldr	r2, [r5, #16]
 80031b0:	6d59      	ldr	r1, [r3, #84]	; 0x54
 80031b2:	0212      	lsls	r2, r2, #8
 80031b4:	e051      	b.n	800325a <HAL_TIM_PWM_ConfigChannel+0xfe>
 80031b6:	6820      	ldr	r0, [r4, #0]
 80031b8:	f7ff fd5e 	bl	8002c78 <TIM_OC1_SetConfig>
 80031bc:	2208      	movs	r2, #8
 80031be:	6823      	ldr	r3, [r4, #0]
 80031c0:	6999      	ldr	r1, [r3, #24]
 80031c2:	430a      	orrs	r2, r1
 80031c4:	2104      	movs	r1, #4
 80031c6:	619a      	str	r2, [r3, #24]
 80031c8:	699a      	ldr	r2, [r3, #24]
 80031ca:	438a      	bics	r2, r1
 80031cc:	619a      	str	r2, [r3, #24]
 80031ce:	699a      	ldr	r2, [r3, #24]
 80031d0:	6929      	ldr	r1, [r5, #16]
 80031d2:	430a      	orrs	r2, r1
 80031d4:	619a      	str	r2, [r3, #24]
 80031d6:	2000      	movs	r0, #0
 80031d8:	e7d5      	b.n	8003186 <HAL_TIM_PWM_ConfigChannel+0x2a>
 80031da:	6820      	ldr	r0, [r4, #0]
 80031dc:	f7ff ff82 	bl	80030e4 <TIM_OC2_SetConfig>
 80031e0:	2280      	movs	r2, #128	; 0x80
 80031e2:	6823      	ldr	r3, [r4, #0]
 80031e4:	0112      	lsls	r2, r2, #4
 80031e6:	6999      	ldr	r1, [r3, #24]
 80031e8:	430a      	orrs	r2, r1
 80031ea:	619a      	str	r2, [r3, #24]
 80031ec:	699a      	ldr	r2, [r3, #24]
 80031ee:	491c      	ldr	r1, [pc, #112]	; (8003260 <HAL_TIM_PWM_ConfigChannel+0x104>)
 80031f0:	400a      	ands	r2, r1
 80031f2:	619a      	str	r2, [r3, #24]
 80031f4:	692a      	ldr	r2, [r5, #16]
 80031f6:	6999      	ldr	r1, [r3, #24]
 80031f8:	0212      	lsls	r2, r2, #8
 80031fa:	e7ea      	b.n	80031d2 <HAL_TIM_PWM_ConfigChannel+0x76>
 80031fc:	6820      	ldr	r0, [r4, #0]
 80031fe:	f7ff fd79 	bl	8002cf4 <TIM_OC3_SetConfig>
 8003202:	2104      	movs	r1, #4
 8003204:	6823      	ldr	r3, [r4, #0]
 8003206:	69da      	ldr	r2, [r3, #28]
 8003208:	4316      	orrs	r6, r2
 800320a:	61de      	str	r6, [r3, #28]
 800320c:	69da      	ldr	r2, [r3, #28]
 800320e:	438a      	bics	r2, r1
 8003210:	61da      	str	r2, [r3, #28]
 8003212:	69da      	ldr	r2, [r3, #28]
 8003214:	6929      	ldr	r1, [r5, #16]
 8003216:	430a      	orrs	r2, r1
 8003218:	61da      	str	r2, [r3, #28]
 800321a:	e7dc      	b.n	80031d6 <HAL_TIM_PWM_ConfigChannel+0x7a>
 800321c:	6820      	ldr	r0, [r4, #0]
 800321e:	f7ff fdab 	bl	8002d78 <TIM_OC4_SetConfig>
 8003222:	2280      	movs	r2, #128	; 0x80
 8003224:	6823      	ldr	r3, [r4, #0]
 8003226:	0112      	lsls	r2, r2, #4
 8003228:	69d9      	ldr	r1, [r3, #28]
 800322a:	430a      	orrs	r2, r1
 800322c:	61da      	str	r2, [r3, #28]
 800322e:	69da      	ldr	r2, [r3, #28]
 8003230:	490b      	ldr	r1, [pc, #44]	; (8003260 <HAL_TIM_PWM_ConfigChannel+0x104>)
 8003232:	400a      	ands	r2, r1
 8003234:	61da      	str	r2, [r3, #28]
 8003236:	692a      	ldr	r2, [r5, #16]
 8003238:	69d9      	ldr	r1, [r3, #28]
 800323a:	0212      	lsls	r2, r2, #8
 800323c:	e7eb      	b.n	8003216 <HAL_TIM_PWM_ConfigChannel+0xba>
 800323e:	6820      	ldr	r0, [r4, #0]
 8003240:	f7ff fdce 	bl	8002de0 <TIM_OC5_SetConfig>
 8003244:	2208      	movs	r2, #8
 8003246:	6823      	ldr	r3, [r4, #0]
 8003248:	6d59      	ldr	r1, [r3, #84]	; 0x54
 800324a:	430a      	orrs	r2, r1
 800324c:	2104      	movs	r1, #4
 800324e:	655a      	str	r2, [r3, #84]	; 0x54
 8003250:	6d5a      	ldr	r2, [r3, #84]	; 0x54
 8003252:	438a      	bics	r2, r1
 8003254:	655a      	str	r2, [r3, #84]	; 0x54
 8003256:	6d5a      	ldr	r2, [r3, #84]	; 0x54
 8003258:	6929      	ldr	r1, [r5, #16]
 800325a:	430a      	orrs	r2, r1
 800325c:	655a      	str	r2, [r3, #84]	; 0x54
 800325e:	e7ba      	b.n	80031d6 <HAL_TIM_PWM_ConfigChannel+0x7a>
 8003260:	fffffbff 	.word	0xfffffbff

08003264 <TIM_ETR_SetConfig>:
 8003264:	b530      	push	{r4, r5, lr}
 8003266:	6884      	ldr	r4, [r0, #8]
 8003268:	4d03      	ldr	r5, [pc, #12]	; (8003278 <TIM_ETR_SetConfig+0x14>)
 800326a:	430a      	orrs	r2, r1
 800326c:	021b      	lsls	r3, r3, #8
 800326e:	402c      	ands	r4, r5
 8003270:	4313      	orrs	r3, r2
 8003272:	4323      	orrs	r3, r4
 8003274:	6083      	str	r3, [r0, #8]
 8003276:	bd30      	pop	{r4, r5, pc}
 8003278:	ffff00ff 	.word	0xffff00ff

0800327c <HAL_TIM_ConfigClockSource>:
 800327c:	b5f8      	push	{r3, r4, r5, r6, r7, lr}
 800327e:	0005      	movs	r5, r0
 8003280:	2302      	movs	r3, #2
 8003282:	353c      	adds	r5, #60	; 0x3c
 8003284:	0004      	movs	r4, r0
 8003286:	7828      	ldrb	r0, [r5, #0]
 8003288:	001a      	movs	r2, r3
 800328a:	2801      	cmp	r0, #1
 800328c:	d01d      	beq.n	80032ca <HAL_TIM_ConfigClockSource+0x4e>
 800328e:	0026      	movs	r6, r4
 8003290:	2701      	movs	r7, #1
 8003292:	363d      	adds	r6, #61	; 0x3d
 8003294:	702f      	strb	r7, [r5, #0]
 8003296:	7033      	strb	r3, [r6, #0]
 8003298:	6820      	ldr	r0, [r4, #0]
 800329a:	4a47      	ldr	r2, [pc, #284]	; (80033b8 <HAL_TIM_ConfigClockSource+0x13c>)
 800329c:	6883      	ldr	r3, [r0, #8]
 800329e:	4013      	ands	r3, r2
 80032a0:	6083      	str	r3, [r0, #8]
 80032a2:	680b      	ldr	r3, [r1, #0]
 80032a4:	2b60      	cmp	r3, #96	; 0x60
 80032a6:	d058      	beq.n	800335a <HAL_TIM_ConfigClockSource+0xde>
 80032a8:	d834      	bhi.n	8003314 <HAL_TIM_ConfigClockSource+0x98>
 80032aa:	2b40      	cmp	r3, #64	; 0x40
 80032ac:	d100      	bne.n	80032b0 <HAL_TIM_ConfigClockSource+0x34>
 80032ae:	e06c      	b.n	800338a <HAL_TIM_ConfigClockSource+0x10e>
 80032b0:	d815      	bhi.n	80032de <HAL_TIM_ConfigClockSource+0x62>
 80032b2:	2b20      	cmp	r3, #32
 80032b4:	d00d      	beq.n	80032d2 <HAL_TIM_ConfigClockSource+0x56>
 80032b6:	d80a      	bhi.n	80032ce <HAL_TIM_ConfigClockSource+0x52>
 80032b8:	2210      	movs	r2, #16
 80032ba:	0019      	movs	r1, r3
 80032bc:	4391      	bics	r1, r2
 80032be:	d008      	beq.n	80032d2 <HAL_TIM_ConfigClockSource+0x56>
 80032c0:	003a      	movs	r2, r7
 80032c2:	2301      	movs	r3, #1
 80032c4:	7033      	strb	r3, [r6, #0]
 80032c6:	2300      	movs	r3, #0
 80032c8:	702b      	strb	r3, [r5, #0]
 80032ca:	0010      	movs	r0, r2
 80032cc:	bdf8      	pop	{r3, r4, r5, r6, r7, pc}
 80032ce:	2b30      	cmp	r3, #48	; 0x30
 80032d0:	d1f6      	bne.n	80032c0 <HAL_TIM_ConfigClockSource+0x44>
 80032d2:	6882      	ldr	r2, [r0, #8]
 80032d4:	4939      	ldr	r1, [pc, #228]	; (80033bc <HAL_TIM_ConfigClockSource+0x140>)
 80032d6:	400a      	ands	r2, r1
 80032d8:	4313      	orrs	r3, r2
 80032da:	2207      	movs	r2, #7
 80032dc:	e017      	b.n	800330e <HAL_TIM_ConfigClockSource+0x92>
 80032de:	2b50      	cmp	r3, #80	; 0x50
 80032e0:	d1ee      	bne.n	80032c0 <HAL_TIM_ConfigClockSource+0x44>
 80032e2:	68ca      	ldr	r2, [r1, #12]
 80032e4:	684c      	ldr	r4, [r1, #4]
 80032e6:	6a01      	ldr	r1, [r0, #32]
 80032e8:	6a03      	ldr	r3, [r0, #32]
 80032ea:	43bb      	bics	r3, r7
 80032ec:	27f0      	movs	r7, #240	; 0xf0
 80032ee:	6203      	str	r3, [r0, #32]
 80032f0:	6983      	ldr	r3, [r0, #24]
 80032f2:	43bb      	bics	r3, r7
 80032f4:	001f      	movs	r7, r3
 80032f6:	0113      	lsls	r3, r2, #4
 80032f8:	220a      	movs	r2, #10
 80032fa:	4391      	bics	r1, r2
 80032fc:	000a      	movs	r2, r1
 80032fe:	433b      	orrs	r3, r7
 8003300:	4322      	orrs	r2, r4
 8003302:	6183      	str	r3, [r0, #24]
 8003304:	6202      	str	r2, [r0, #32]
 8003306:	6883      	ldr	r3, [r0, #8]
 8003308:	4a2c      	ldr	r2, [pc, #176]	; (80033bc <HAL_TIM_ConfigClockSource+0x140>)
 800330a:	401a      	ands	r2, r3
 800330c:	2357      	movs	r3, #87	; 0x57
 800330e:	4313      	orrs	r3, r2
 8003310:	6083      	str	r3, [r0, #8]
 8003312:	e016      	b.n	8003342 <HAL_TIM_ConfigClockSource+0xc6>
 8003314:	2280      	movs	r2, #128	; 0x80
 8003316:	0152      	lsls	r2, r2, #5
 8003318:	4694      	mov	ip, r2
 800331a:	2200      	movs	r2, #0
 800331c:	4563      	cmp	r3, ip
 800331e:	d0d0      	beq.n	80032c2 <HAL_TIM_ConfigClockSource+0x46>
 8003320:	2280      	movs	r2, #128	; 0x80
 8003322:	0192      	lsls	r2, r2, #6
 8003324:	4293      	cmp	r3, r2
 8003326:	d00e      	beq.n	8003346 <HAL_TIM_ConfigClockSource+0xca>
 8003328:	003a      	movs	r2, r7
 800332a:	2b70      	cmp	r3, #112	; 0x70
 800332c:	d1c9      	bne.n	80032c2 <HAL_TIM_ConfigClockSource+0x46>
 800332e:	68cb      	ldr	r3, [r1, #12]
 8003330:	684a      	ldr	r2, [r1, #4]
 8003332:	6889      	ldr	r1, [r1, #8]
 8003334:	f7ff ff96 	bl	8003264 <TIM_ETR_SetConfig>
 8003338:	2377      	movs	r3, #119	; 0x77
 800333a:	6822      	ldr	r2, [r4, #0]
 800333c:	6891      	ldr	r1, [r2, #8]
 800333e:	430b      	orrs	r3, r1
 8003340:	6093      	str	r3, [r2, #8]
 8003342:	2200      	movs	r2, #0
 8003344:	e7bd      	b.n	80032c2 <HAL_TIM_ConfigClockSource+0x46>
 8003346:	68cb      	ldr	r3, [r1, #12]
 8003348:	684a      	ldr	r2, [r1, #4]
 800334a:	6889      	ldr	r1, [r1, #8]
 800334c:	f7ff ff8a 	bl	8003264 <TIM_ETR_SetConfig>
 8003350:	2380      	movs	r3, #128	; 0x80
 8003352:	6822      	ldr	r2, [r4, #0]
 8003354:	01db      	lsls	r3, r3, #7
 8003356:	6891      	ldr	r1, [r2, #8]
 8003358:	e7f1      	b.n	800333e <HAL_TIM_ConfigClockSource+0xc2>
 800335a:	2410      	movs	r4, #16
 800335c:	6a03      	ldr	r3, [r0, #32]
 800335e:	684a      	ldr	r2, [r1, #4]
 8003360:	68cf      	ldr	r7, [r1, #12]
 8003362:	6a01      	ldr	r1, [r0, #32]
 8003364:	033f      	lsls	r7, r7, #12
 8003366:	43a1      	bics	r1, r4
 8003368:	6201      	str	r1, [r0, #32]
 800336a:	6981      	ldr	r1, [r0, #24]
 800336c:	4c14      	ldr	r4, [pc, #80]	; (80033c0 <HAL_TIM_ConfigClockSource+0x144>)
 800336e:	4021      	ands	r1, r4
 8003370:	24a0      	movs	r4, #160	; 0xa0
 8003372:	43a3      	bics	r3, r4
 8003374:	001c      	movs	r4, r3
 8003376:	0113      	lsls	r3, r2, #4
 8003378:	4323      	orrs	r3, r4
 800337a:	4339      	orrs	r1, r7
 800337c:	6181      	str	r1, [r0, #24]
 800337e:	6203      	str	r3, [r0, #32]
 8003380:	6883      	ldr	r3, [r0, #8]
 8003382:	4a0e      	ldr	r2, [pc, #56]	; (80033bc <HAL_TIM_ConfigClockSource+0x140>)
 8003384:	401a      	ands	r2, r3
 8003386:	2367      	movs	r3, #103	; 0x67
 8003388:	e7c1      	b.n	800330e <HAL_TIM_ConfigClockSource+0x92>
 800338a:	68ca      	ldr	r2, [r1, #12]
 800338c:	684c      	ldr	r4, [r1, #4]
 800338e:	6a01      	ldr	r1, [r0, #32]
 8003390:	6a03      	ldr	r3, [r0, #32]
 8003392:	43bb      	bics	r3, r7
 8003394:	27f0      	movs	r7, #240	; 0xf0
 8003396:	6203      	str	r3, [r0, #32]
 8003398:	6983      	ldr	r3, [r0, #24]
 800339a:	43bb      	bics	r3, r7
 800339c:	001f      	movs	r7, r3
 800339e:	0113      	lsls	r3, r2, #4
 80033a0:	220a      	movs	r2, #10
 80033a2:	4391      	bics	r1, r2
 80033a4:	000a      	movs	r2, r1
 80033a6:	433b      	orrs	r3, r7
 80033a8:	4322      	orrs	r2, r4
 80033aa:	6183      	str	r3, [r0, #24]
 80033ac:	6202      	str	r2, [r0, #32]
 80033ae:	6883      	ldr	r3, [r0, #8]
 80033b0:	4a02      	ldr	r2, [pc, #8]	; (80033bc <HAL_TIM_ConfigClockSource+0x140>)
 80033b2:	401a      	ands	r2, r3
 80033b4:	2347      	movs	r3, #71	; 0x47
 80033b6:	e7aa      	b.n	800330e <HAL_TIM_ConfigClockSource+0x92>
 80033b8:	ffce0088 	.word	0xffce0088
 80033bc:	ffcfff8f 	.word	0xffcfff8f
 80033c0:	ffff0fff 	.word	0xffff0fff

080033c4 <TIM_CCxChannelCmd>:
 80033c4:	231f      	movs	r3, #31
 80033c6:	b510      	push	{r4, lr}
 80033c8:	2401      	movs	r4, #1
 80033ca:	4019      	ands	r1, r3
 80033cc:	408c      	lsls	r4, r1
 80033ce:	408a      	lsls	r2, r1
 80033d0:	6a03      	ldr	r3, [r0, #32]
 80033d2:	43a3      	bics	r3, r4
 80033d4:	6203      	str	r3, [r0, #32]
 80033d6:	6a03      	ldr	r3, [r0, #32]
 80033d8:	431a      	orrs	r2, r3
 80033da:	6202      	str	r2, [r0, #32]
 80033dc:	bd10      	pop	{r4, pc}
	...

080033e0 <HAL_TIM_OC_Start_DMA>:
 80033e0:	b570      	push	{r4, r5, r6, lr}
 80033e2:	000e      	movs	r6, r1
 80033e4:	0005      	movs	r5, r0
 80033e6:	0011      	movs	r1, r2
 80033e8:	0002      	movs	r2, r0
 80033ea:	2e00      	cmp	r6, #0
 80033ec:	d109      	bne.n	8003402 <HAL_TIM_OC_Start_DMA+0x22>
 80033ee:	323e      	adds	r2, #62	; 0x3e
 80033f0:	7814      	ldrb	r4, [r2, #0]
 80033f2:	2002      	movs	r0, #2
 80033f4:	3c02      	subs	r4, #2
 80033f6:	4262      	negs	r2, r4
 80033f8:	4154      	adcs	r4, r2
 80033fa:	b2e4      	uxtb	r4, r4
 80033fc:	2c00      	cmp	r4, #0
 80033fe:	d012      	beq.n	8003426 <HAL_TIM_OC_Start_DMA+0x46>
 8003400:	bd70      	pop	{r4, r5, r6, pc}
 8003402:	2e04      	cmp	r6, #4
 8003404:	d101      	bne.n	800340a <HAL_TIM_OC_Start_DMA+0x2a>
 8003406:	323f      	adds	r2, #63	; 0x3f
 8003408:	e7f2      	b.n	80033f0 <HAL_TIM_OC_Start_DMA+0x10>
 800340a:	2e08      	cmp	r6, #8
 800340c:	d101      	bne.n	8003412 <HAL_TIM_OC_Start_DMA+0x32>
 800340e:	3240      	adds	r2, #64	; 0x40
 8003410:	e7ee      	b.n	80033f0 <HAL_TIM_OC_Start_DMA+0x10>
 8003412:	2e0c      	cmp	r6, #12
 8003414:	d101      	bne.n	800341a <HAL_TIM_OC_Start_DMA+0x3a>
 8003416:	3241      	adds	r2, #65	; 0x41
 8003418:	e7ea      	b.n	80033f0 <HAL_TIM_OC_Start_DMA+0x10>
 800341a:	2e10      	cmp	r6, #16
 800341c:	d101      	bne.n	8003422 <HAL_TIM_OC_Start_DMA+0x42>
 800341e:	3242      	adds	r2, #66	; 0x42
 8003420:	e7e6      	b.n	80033f0 <HAL_TIM_OC_Start_DMA+0x10>
 8003422:	3243      	adds	r2, #67	; 0x43
 8003424:	e7e4      	b.n	80033f0 <HAL_TIM_OC_Start_DMA+0x10>
 8003426:	002a      	movs	r2, r5
 8003428:	2e00      	cmp	r6, #0
 800342a:	d109      	bne.n	8003440 <HAL_TIM_OC_Start_DMA+0x60>
 800342c:	323e      	adds	r2, #62	; 0x3e
 800342e:	7812      	ldrb	r2, [r2, #0]
 8003430:	3a01      	subs	r2, #1
 8003432:	4250      	negs	r0, r2
 8003434:	4142      	adcs	r2, r0
 8003436:	b2d2      	uxtb	r2, r2
 8003438:	2a00      	cmp	r2, #0
 800343a:	d113      	bne.n	8003464 <HAL_TIM_OC_Start_DMA+0x84>
 800343c:	2001      	movs	r0, #1
 800343e:	e7df      	b.n	8003400 <HAL_TIM_OC_Start_DMA+0x20>
 8003440:	2e04      	cmp	r6, #4
 8003442:	d101      	bne.n	8003448 <HAL_TIM_OC_Start_DMA+0x68>
 8003444:	323f      	adds	r2, #63	; 0x3f
 8003446:	e7f2      	b.n	800342e <HAL_TIM_OC_Start_DMA+0x4e>
 8003448:	2e08      	cmp	r6, #8
 800344a:	d101      	bne.n	8003450 <HAL_TIM_OC_Start_DMA+0x70>
 800344c:	3240      	adds	r2, #64	; 0x40
 800344e:	e7ee      	b.n	800342e <HAL_TIM_OC_Start_DMA+0x4e>
 8003450:	2e0c      	cmp	r6, #12
 8003452:	d101      	bne.n	8003458 <HAL_TIM_OC_Start_DMA+0x78>
 8003454:	3241      	adds	r2, #65	; 0x41
 8003456:	e7ea      	b.n	800342e <HAL_TIM_OC_Start_DMA+0x4e>
 8003458:	2e10      	cmp	r6, #16
 800345a:	d140      	bne.n	80034de <HAL_TIM_OC_Start_DMA+0xfe>
 800345c:	3242      	adds	r2, #66	; 0x42
 800345e:	7812      	ldrb	r2, [r2, #0]
 8003460:	2a01      	cmp	r2, #1
 8003462:	d1eb      	bne.n	800343c <HAL_TIM_OC_Start_DMA+0x5c>
 8003464:	2900      	cmp	r1, #0
 8003466:	d0e9      	beq.n	800343c <HAL_TIM_OC_Start_DMA+0x5c>
 8003468:	2b00      	cmp	r3, #0
 800346a:	d0e7      	beq.n	800343c <HAL_TIM_OC_Start_DMA+0x5c>
 800346c:	2202      	movs	r2, #2
 800346e:	2e00      	cmp	r6, #0
 8003470:	d137      	bne.n	80034e2 <HAL_TIM_OC_Start_DMA+0x102>
 8003472:	0028      	movs	r0, r5
 8003474:	303e      	adds	r0, #62	; 0x3e
 8003476:	7002      	strb	r2, [r0, #0]
 8003478:	6a68      	ldr	r0, [r5, #36]	; 0x24
 800347a:	4a47      	ldr	r2, [pc, #284]	; (8003598 <HAL_TIM_OC_Start_DMA+0x1b8>)
 800347c:	62c2      	str	r2, [r0, #44]	; 0x2c
 800347e:	4a47      	ldr	r2, [pc, #284]	; (800359c <HAL_TIM_OC_Start_DMA+0x1bc>)
 8003480:	6302      	str	r2, [r0, #48]	; 0x30
 8003482:	4a47      	ldr	r2, [pc, #284]	; (80035a0 <HAL_TIM_OC_Start_DMA+0x1c0>)
 8003484:	6342      	str	r2, [r0, #52]	; 0x34
 8003486:	682a      	ldr	r2, [r5, #0]
 8003488:	3234      	adds	r2, #52	; 0x34
 800348a:	f7fe ff1d 	bl	80022c8 <HAL_DMA_Start_IT>
 800348e:	2800      	cmp	r0, #0
 8003490:	d1d4      	bne.n	800343c <HAL_TIM_OC_Start_DMA+0x5c>
 8003492:	2380      	movs	r3, #128	; 0x80
 8003494:	682a      	ldr	r2, [r5, #0]
 8003496:	009b      	lsls	r3, r3, #2
 8003498:	68d1      	ldr	r1, [r2, #12]
 800349a:	430b      	orrs	r3, r1
 800349c:	60d3      	str	r3, [r2, #12]
 800349e:	0031      	movs	r1, r6
 80034a0:	2201      	movs	r2, #1
 80034a2:	6828      	ldr	r0, [r5, #0]
 80034a4:	f7ff ff8e 	bl	80033c4 <TIM_CCxChannelCmd>
 80034a8:	682b      	ldr	r3, [r5, #0]
 80034aa:	493e      	ldr	r1, [pc, #248]	; (80035a4 <HAL_TIM_OC_Start_DMA+0x1c4>)
 80034ac:	428b      	cmp	r3, r1
 80034ae:	d065      	beq.n	800357c <HAL_TIM_OC_Start_DMA+0x19c>
 80034b0:	4a3d      	ldr	r2, [pc, #244]	; (80035a8 <HAL_TIM_OC_Start_DMA+0x1c8>)
 80034b2:	4293      	cmp	r3, r2
 80034b4:	d062      	beq.n	800357c <HAL_TIM_OC_Start_DMA+0x19c>
 80034b6:	4a3d      	ldr	r2, [pc, #244]	; (80035ac <HAL_TIM_OC_Start_DMA+0x1cc>)
 80034b8:	4293      	cmp	r3, r2
 80034ba:	d05f      	beq.n	800357c <HAL_TIM_OC_Start_DMA+0x19c>
 80034bc:	4a3c      	ldr	r2, [pc, #240]	; (80035b0 <HAL_TIM_OC_Start_DMA+0x1d0>)
 80034be:	4293      	cmp	r3, r2
 80034c0:	d164      	bne.n	800358c <HAL_TIM_OC_Start_DMA+0x1ac>
 80034c2:	689a      	ldr	r2, [r3, #8]
 80034c4:	493b      	ldr	r1, [pc, #236]	; (80035b4 <HAL_TIM_OC_Start_DMA+0x1d4>)
 80034c6:	2000      	movs	r0, #0
 80034c8:	400a      	ands	r2, r1
 80034ca:	2a06      	cmp	r2, #6
 80034cc:	d098      	beq.n	8003400 <HAL_TIM_OC_Start_DMA+0x20>
 80034ce:	3907      	subs	r1, #7
 80034d0:	428a      	cmp	r2, r1
 80034d2:	d095      	beq.n	8003400 <HAL_TIM_OC_Start_DMA+0x20>
 80034d4:	2201      	movs	r2, #1
 80034d6:	6819      	ldr	r1, [r3, #0]
 80034d8:	430a      	orrs	r2, r1
 80034da:	601a      	str	r2, [r3, #0]
 80034dc:	e790      	b.n	8003400 <HAL_TIM_OC_Start_DMA+0x20>
 80034de:	3243      	adds	r2, #67	; 0x43
 80034e0:	e7bd      	b.n	800345e <HAL_TIM_OC_Start_DMA+0x7e>
 80034e2:	2e04      	cmp	r6, #4
 80034e4:	d114      	bne.n	8003510 <HAL_TIM_OC_Start_DMA+0x130>
 80034e6:	0028      	movs	r0, r5
 80034e8:	303f      	adds	r0, #63	; 0x3f
 80034ea:	7002      	strb	r2, [r0, #0]
 80034ec:	6aa8      	ldr	r0, [r5, #40]	; 0x28
 80034ee:	4a2a      	ldr	r2, [pc, #168]	; (8003598 <HAL_TIM_OC_Start_DMA+0x1b8>)
 80034f0:	62c2      	str	r2, [r0, #44]	; 0x2c
 80034f2:	4a2a      	ldr	r2, [pc, #168]	; (800359c <HAL_TIM_OC_Start_DMA+0x1bc>)
 80034f4:	6302      	str	r2, [r0, #48]	; 0x30
 80034f6:	4a2a      	ldr	r2, [pc, #168]	; (80035a0 <HAL_TIM_OC_Start_DMA+0x1c0>)
 80034f8:	6342      	str	r2, [r0, #52]	; 0x34
 80034fa:	682a      	ldr	r2, [r5, #0]
 80034fc:	3238      	adds	r2, #56	; 0x38
 80034fe:	f7fe fee3 	bl	80022c8 <HAL_DMA_Start_IT>
 8003502:	2800      	cmp	r0, #0
 8003504:	d19a      	bne.n	800343c <HAL_TIM_OC_Start_DMA+0x5c>
 8003506:	2380      	movs	r3, #128	; 0x80
 8003508:	682a      	ldr	r2, [r5, #0]
 800350a:	00db      	lsls	r3, r3, #3
 800350c:	68d1      	ldr	r1, [r2, #12]
 800350e:	e7c4      	b.n	800349a <HAL_TIM_OC_Start_DMA+0xba>
 8003510:	2e08      	cmp	r6, #8
 8003512:	d114      	bne.n	800353e <HAL_TIM_OC_Start_DMA+0x15e>
 8003514:	0028      	movs	r0, r5
 8003516:	3040      	adds	r0, #64	; 0x40
 8003518:	7002      	strb	r2, [r0, #0]
 800351a:	6ae8      	ldr	r0, [r5, #44]	; 0x2c
 800351c:	4a1e      	ldr	r2, [pc, #120]	; (8003598 <HAL_TIM_OC_Start_DMA+0x1b8>)
 800351e:	62c2      	str	r2, [r0, #44]	; 0x2c
 8003520:	4a1e      	ldr	r2, [pc, #120]	; (800359c <HAL_TIM_OC_Start_DMA+0x1bc>)
 8003522:	6302      	str	r2, [r0, #48]	; 0x30
 8003524:	4a1e      	ldr	r2, [pc, #120]	; (80035a0 <HAL_TIM_OC_Start_DMA+0x1c0>)
 8003526:	6342      	str	r2, [r0, #52]	; 0x34
 8003528:	682a      	ldr	r2, [r5, #0]
 800352a:	323c      	adds	r2, #60	; 0x3c
 800352c:	f7fe fecc 	bl	80022c8 <HAL_DMA_Start_IT>
 8003530:	2800      	cmp	r0, #0
 8003532:	d183      	bne.n	800343c <HAL_TIM_OC_Start_DMA+0x5c>
 8003534:	2380      	movs	r3, #128	; 0x80
 8003536:	682a      	ldr	r2, [r5, #0]
 8003538:	011b      	lsls	r3, r3, #4
 800353a:	68d1      	ldr	r1, [r2, #12]
 800353c:	e7ad      	b.n	800349a <HAL_TIM_OC_Start_DMA+0xba>
 800353e:	2e0c      	cmp	r6, #12
 8003540:	d115      	bne.n	800356e <HAL_TIM_OC_Start_DMA+0x18e>
 8003542:	0028      	movs	r0, r5
 8003544:	3041      	adds	r0, #65	; 0x41
 8003546:	7002      	strb	r2, [r0, #0]
 8003548:	6b28      	ldr	r0, [r5, #48]	; 0x30
 800354a:	4a13      	ldr	r2, [pc, #76]	; (8003598 <HAL_TIM_OC_Start_DMA+0x1b8>)
 800354c:	62c2      	str	r2, [r0, #44]	; 0x2c
 800354e:	4a13      	ldr	r2, [pc, #76]	; (800359c <HAL_TIM_OC_Start_DMA+0x1bc>)
 8003550:	6302      	str	r2, [r0, #48]	; 0x30
 8003552:	4a13      	ldr	r2, [pc, #76]	; (80035a0 <HAL_TIM_OC_Start_DMA+0x1c0>)
 8003554:	6342      	str	r2, [r0, #52]	; 0x34
 8003556:	682a      	ldr	r2, [r5, #0]
 8003558:	3240      	adds	r2, #64	; 0x40
 800355a:	f7fe feb5 	bl	80022c8 <HAL_DMA_Start_IT>
 800355e:	2800      	cmp	r0, #0
 8003560:	d000      	beq.n	8003564 <HAL_TIM_OC_Start_DMA+0x184>
 8003562:	e76b      	b.n	800343c <HAL_TIM_OC_Start_DMA+0x5c>
 8003564:	2380      	movs	r3, #128	; 0x80
 8003566:	682a      	ldr	r2, [r5, #0]
 8003568:	015b      	lsls	r3, r3, #5
 800356a:	68d1      	ldr	r1, [r2, #12]
 800356c:	e795      	b.n	800349a <HAL_TIM_OC_Start_DMA+0xba>
 800356e:	2e10      	cmp	r6, #16
 8003570:	d102      	bne.n	8003578 <HAL_TIM_OC_Start_DMA+0x198>
 8003572:	3542      	adds	r5, #66	; 0x42
 8003574:	702a      	strb	r2, [r5, #0]
 8003576:	e761      	b.n	800343c <HAL_TIM_OC_Start_DMA+0x5c>
 8003578:	3543      	adds	r5, #67	; 0x43
 800357a:	e7fb      	b.n	8003574 <HAL_TIM_OC_Start_DMA+0x194>
 800357c:	2280      	movs	r2, #128	; 0x80
 800357e:	6c58      	ldr	r0, [r3, #68]	; 0x44
 8003580:	0212      	lsls	r2, r2, #8
 8003582:	4302      	orrs	r2, r0
 8003584:	645a      	str	r2, [r3, #68]	; 0x44
 8003586:	428b      	cmp	r3, r1
 8003588:	d198      	bne.n	80034bc <HAL_TIM_OC_Start_DMA+0xdc>
 800358a:	e79a      	b.n	80034c2 <HAL_TIM_OC_Start_DMA+0xe2>
 800358c:	2201      	movs	r2, #1
 800358e:	6819      	ldr	r1, [r3, #0]
 8003590:	2000      	movs	r0, #0
 8003592:	430a      	orrs	r2, r1
 8003594:	601a      	str	r2, [r3, #0]
 8003596:	e733      	b.n	8003400 <HAL_TIM_OC_Start_DMA+0x20>
 8003598:	08002eab 	.word	0x08002eab
 800359c:	08002f1b 	.word	0x08002f1b
 80035a0:	08002f55 	.word	0x08002f55
 80035a4:	40012c00 	.word	0x40012c00
 80035a8:	40014400 	.word	0x40014400
 80035ac:	40014800 	.word	0x40014800
 80035b0:	40000400 	.word	0x40000400
 80035b4:	00010007 	.word	0x00010007

080035b8 <HAL_TIM_PWM_Start_DMA>:
 80035b8:	b510      	push	{r4, lr}
 80035ba:	f7ff ff11 	bl	80033e0 <HAL_TIM_OC_Start_DMA>
 80035be:	bd10      	pop	{r4, pc}

080035c0 <HAL_TIM_OC_Stop_DMA>:
 80035c0:	b570      	push	{r4, r5, r6, lr}
 80035c2:	0004      	movs	r4, r0
 80035c4:	000d      	movs	r5, r1
 80035c6:	2908      	cmp	r1, #8
 80035c8:	d04b      	beq.n	8003662 <HAL_TIM_OC_Stop_DMA+0xa2>
 80035ca:	d805      	bhi.n	80035d8 <HAL_TIM_OC_Stop_DMA+0x18>
 80035cc:	2900      	cmp	r1, #0
 80035ce:	d00c      	beq.n	80035ea <HAL_TIM_OC_Stop_DMA+0x2a>
 80035d0:	2904      	cmp	r1, #4
 80035d2:	d03f      	beq.n	8003654 <HAL_TIM_OC_Stop_DMA+0x94>
 80035d4:	2001      	movs	r0, #1
 80035d6:	bd70      	pop	{r4, r5, r6, pc}
 80035d8:	290c      	cmp	r1, #12
 80035da:	d1fb      	bne.n	80035d4 <HAL_TIM_OC_Stop_DMA+0x14>
 80035dc:	6802      	ldr	r2, [r0, #0]
 80035de:	492d      	ldr	r1, [pc, #180]	; (8003694 <HAL_TIM_OC_Stop_DMA+0xd4>)
 80035e0:	68d3      	ldr	r3, [r2, #12]
 80035e2:	6b00      	ldr	r0, [r0, #48]	; 0x30
 80035e4:	400b      	ands	r3, r1
 80035e6:	60d3      	str	r3, [r2, #12]
 80035e8:	e005      	b.n	80035f6 <HAL_TIM_OC_Stop_DMA+0x36>
 80035ea:	6802      	ldr	r2, [r0, #0]
 80035ec:	492a      	ldr	r1, [pc, #168]	; (8003698 <HAL_TIM_OC_Stop_DMA+0xd8>)
 80035ee:	68d3      	ldr	r3, [r2, #12]
 80035f0:	6a40      	ldr	r0, [r0, #36]	; 0x24
 80035f2:	400b      	ands	r3, r1
 80035f4:	60d3      	str	r3, [r2, #12]
 80035f6:	f7fe feb1 	bl	800235c <HAL_DMA_Abort_IT>
 80035fa:	2200      	movs	r2, #0
 80035fc:	0029      	movs	r1, r5
 80035fe:	6820      	ldr	r0, [r4, #0]
 8003600:	f7ff fee0 	bl	80033c4 <TIM_CCxChannelCmd>
 8003604:	6823      	ldr	r3, [r4, #0]
 8003606:	4a25      	ldr	r2, [pc, #148]	; (800369c <HAL_TIM_OC_Stop_DMA+0xdc>)
 8003608:	4925      	ldr	r1, [pc, #148]	; (80036a0 <HAL_TIM_OC_Stop_DMA+0xe0>)
 800360a:	4293      	cmp	r3, r2
 800360c:	d005      	beq.n	800361a <HAL_TIM_OC_Stop_DMA+0x5a>
 800360e:	4a25      	ldr	r2, [pc, #148]	; (80036a4 <HAL_TIM_OC_Stop_DMA+0xe4>)
 8003610:	4293      	cmp	r3, r2
 8003612:	d002      	beq.n	800361a <HAL_TIM_OC_Stop_DMA+0x5a>
 8003614:	4a24      	ldr	r2, [pc, #144]	; (80036a8 <HAL_TIM_OC_Stop_DMA+0xe8>)
 8003616:	4293      	cmp	r3, r2
 8003618:	d10a      	bne.n	8003630 <HAL_TIM_OC_Stop_DMA+0x70>
 800361a:	6a1a      	ldr	r2, [r3, #32]
 800361c:	420a      	tst	r2, r1
 800361e:	d107      	bne.n	8003630 <HAL_TIM_OC_Stop_DMA+0x70>
 8003620:	6a18      	ldr	r0, [r3, #32]
 8003622:	4a22      	ldr	r2, [pc, #136]	; (80036ac <HAL_TIM_OC_Stop_DMA+0xec>)
 8003624:	4210      	tst	r0, r2
 8003626:	d103      	bne.n	8003630 <HAL_TIM_OC_Stop_DMA+0x70>
 8003628:	6c5a      	ldr	r2, [r3, #68]	; 0x44
 800362a:	4821      	ldr	r0, [pc, #132]	; (80036b0 <HAL_TIM_OC_Stop_DMA+0xf0>)
 800362c:	4002      	ands	r2, r0
 800362e:	645a      	str	r2, [r3, #68]	; 0x44
 8003630:	6a1a      	ldr	r2, [r3, #32]
 8003632:	420a      	tst	r2, r1
 8003634:	d107      	bne.n	8003646 <HAL_TIM_OC_Stop_DMA+0x86>
 8003636:	6a19      	ldr	r1, [r3, #32]
 8003638:	4a1c      	ldr	r2, [pc, #112]	; (80036ac <HAL_TIM_OC_Stop_DMA+0xec>)
 800363a:	4211      	tst	r1, r2
 800363c:	d103      	bne.n	8003646 <HAL_TIM_OC_Stop_DMA+0x86>
 800363e:	2101      	movs	r1, #1
 8003640:	681a      	ldr	r2, [r3, #0]
 8003642:	438a      	bics	r2, r1
 8003644:	601a      	str	r2, [r3, #0]
 8003646:	2301      	movs	r3, #1
 8003648:	2d00      	cmp	r5, #0
 800364a:	d111      	bne.n	8003670 <HAL_TIM_OC_Stop_DMA+0xb0>
 800364c:	343e      	adds	r4, #62	; 0x3e
 800364e:	2000      	movs	r0, #0
 8003650:	7023      	strb	r3, [r4, #0]
 8003652:	e7c0      	b.n	80035d6 <HAL_TIM_OC_Stop_DMA+0x16>
 8003654:	6802      	ldr	r2, [r0, #0]
 8003656:	4917      	ldr	r1, [pc, #92]	; (80036b4 <HAL_TIM_OC_Stop_DMA+0xf4>)
 8003658:	68d3      	ldr	r3, [r2, #12]
 800365a:	6a80      	ldr	r0, [r0, #40]	; 0x28
 800365c:	400b      	ands	r3, r1
 800365e:	60d3      	str	r3, [r2, #12]
 8003660:	e7c9      	b.n	80035f6 <HAL_TIM_OC_Stop_DMA+0x36>
 8003662:	6802      	ldr	r2, [r0, #0]
 8003664:	4914      	ldr	r1, [pc, #80]	; (80036b8 <HAL_TIM_OC_Stop_DMA+0xf8>)
 8003666:	68d3      	ldr	r3, [r2, #12]
 8003668:	6ac0      	ldr	r0, [r0, #44]	; 0x2c
 800366a:	400b      	ands	r3, r1
 800366c:	60d3      	str	r3, [r2, #12]
 800366e:	e7c2      	b.n	80035f6 <HAL_TIM_OC_Stop_DMA+0x36>
 8003670:	2d04      	cmp	r5, #4
 8003672:	d101      	bne.n	8003678 <HAL_TIM_OC_Stop_DMA+0xb8>
 8003674:	343f      	adds	r4, #63	; 0x3f
 8003676:	e7ea      	b.n	800364e <HAL_TIM_OC_Stop_DMA+0x8e>
 8003678:	2d08      	cmp	r5, #8
 800367a:	d101      	bne.n	8003680 <HAL_TIM_OC_Stop_DMA+0xc0>
 800367c:	3440      	adds	r4, #64	; 0x40
 800367e:	e7e6      	b.n	800364e <HAL_TIM_OC_Stop_DMA+0x8e>
 8003680:	2d0c      	cmp	r5, #12
 8003682:	d101      	bne.n	8003688 <HAL_TIM_OC_Stop_DMA+0xc8>
 8003684:	3441      	adds	r4, #65	; 0x41
 8003686:	e7e2      	b.n	800364e <HAL_TIM_OC_Stop_DMA+0x8e>
 8003688:	2d10      	cmp	r5, #16
 800368a:	d101      	bne.n	8003690 <HAL_TIM_OC_Stop_DMA+0xd0>
 800368c:	3442      	adds	r4, #66	; 0x42
 800368e:	e7de      	b.n	800364e <HAL_TIM_OC_Stop_DMA+0x8e>
 8003690:	3443      	adds	r4, #67	; 0x43
 8003692:	e7dc      	b.n	800364e <HAL_TIM_OC_Stop_DMA+0x8e>
 8003694:	ffffefff 	.word	0xffffefff
 8003698:	fffffdff 	.word	0xfffffdff
 800369c:	40012c00 	.word	0x40012c00
 80036a0:	00001111 	.word	0x00001111
 80036a4:	40014400 	.word	0x40014400
 80036a8:	40014800 	.word	0x40014800
 80036ac:	00000444 	.word	0x00000444
 80036b0:	ffff7fff 	.word	0xffff7fff
 80036b4:	fffffbff 	.word	0xfffffbff
 80036b8:	fffff7ff 	.word	0xfffff7ff

080036bc <HAL_TIM_PWM_Stop_DMA>:
 80036bc:	b510      	push	{r4, lr}
 80036be:	f7ff ff7f 	bl	80035c0 <HAL_TIM_OC_Stop_DMA>
 80036c2:	bd10      	pop	{r4, pc}

080036c4 <HAL_TIMEx_MasterConfigSynchronization>:
 80036c4:	b5f0      	push	{r4, r5, r6, r7, lr}
 80036c6:	0004      	movs	r4, r0
 80036c8:	2202      	movs	r2, #2
 80036ca:	343c      	adds	r4, #60	; 0x3c
 80036cc:	7825      	ldrb	r5, [r4, #0]
 80036ce:	0003      	movs	r3, r0
 80036d0:	0010      	movs	r0, r2
 80036d2:	2d01      	cmp	r5, #1
 80036d4:	d01f      	beq.n	8003716 <HAL_TIMEx_MasterConfigSynchronization+0x52>
 80036d6:	001d      	movs	r5, r3
 80036d8:	353d      	adds	r5, #61	; 0x3d
 80036da:	702a      	strb	r2, [r5, #0]
 80036dc:	681a      	ldr	r2, [r3, #0]
 80036de:	4e0e      	ldr	r6, [pc, #56]	; (8003718 <HAL_TIMEx_MasterConfigSynchronization+0x54>)
 80036e0:	6853      	ldr	r3, [r2, #4]
 80036e2:	6890      	ldr	r0, [r2, #8]
 80036e4:	42b2      	cmp	r2, r6
 80036e6:	d103      	bne.n	80036f0 <HAL_TIMEx_MasterConfigSynchronization+0x2c>
 80036e8:	4f0c      	ldr	r7, [pc, #48]	; (800371c <HAL_TIMEx_MasterConfigSynchronization+0x58>)
 80036ea:	403b      	ands	r3, r7
 80036ec:	684f      	ldr	r7, [r1, #4]
 80036ee:	433b      	orrs	r3, r7
 80036f0:	2770      	movs	r7, #112	; 0x70
 80036f2:	43bb      	bics	r3, r7
 80036f4:	680f      	ldr	r7, [r1, #0]
 80036f6:	433b      	orrs	r3, r7
 80036f8:	6053      	str	r3, [r2, #4]
 80036fa:	42b2      	cmp	r2, r6
 80036fc:	d002      	beq.n	8003704 <HAL_TIMEx_MasterConfigSynchronization+0x40>
 80036fe:	4b08      	ldr	r3, [pc, #32]	; (8003720 <HAL_TIMEx_MasterConfigSynchronization+0x5c>)
 8003700:	429a      	cmp	r2, r3
 8003702:	d104      	bne.n	800370e <HAL_TIMEx_MasterConfigSynchronization+0x4a>
 8003704:	2380      	movs	r3, #128	; 0x80
 8003706:	4398      	bics	r0, r3
 8003708:	688b      	ldr	r3, [r1, #8]
 800370a:	4318      	orrs	r0, r3
 800370c:	6090      	str	r0, [r2, #8]
 800370e:	2301      	movs	r3, #1
 8003710:	2000      	movs	r0, #0
 8003712:	702b      	strb	r3, [r5, #0]
 8003714:	7020      	strb	r0, [r4, #0]
 8003716:	bdf0      	pop	{r4, r5, r6, r7, pc}
 8003718:	40012c00 	.word	0x40012c00
 800371c:	ff0fffff 	.word	0xff0fffff
 8003720:	40000400 	.word	0x40000400

08003724 <UART_EndTxTransfer>:
 8003724:	b530      	push	{r4, r5, lr}
 8003726:	f3ef 8410 	mrs	r4, PRIMASK
 800372a:	2201      	movs	r2, #1
 800372c:	f382 8810 	msr	PRIMASK, r2
 8003730:	25c0      	movs	r5, #192	; 0xc0
 8003732:	6801      	ldr	r1, [r0, #0]
 8003734:	680b      	ldr	r3, [r1, #0]
 8003736:	43ab      	bics	r3, r5
 8003738:	600b      	str	r3, [r1, #0]
 800373a:	f384 8810 	msr	PRIMASK, r4
 800373e:	f3ef 8110 	mrs	r1, PRIMASK
 8003742:	f382 8810 	msr	PRIMASK, r2
 8003746:	6802      	ldr	r2, [r0, #0]
 8003748:	4c04      	ldr	r4, [pc, #16]	; (800375c <UART_EndTxTransfer+0x38>)
 800374a:	6893      	ldr	r3, [r2, #8]
 800374c:	4023      	ands	r3, r4
 800374e:	6093      	str	r3, [r2, #8]
 8003750:	f381 8810 	msr	PRIMASK, r1
 8003754:	2320      	movs	r3, #32
 8003756:	3088      	adds	r0, #136	; 0x88
 8003758:	6003      	str	r3, [r0, #0]
 800375a:	bd30      	pop	{r4, r5, pc}
 800375c:	ff7fffff 	.word	0xff7fffff

08003760 <UART_EndRxTransfer>:
 8003760:	b530      	push	{r4, r5, lr}
 8003762:	f3ef 8410 	mrs	r4, PRIMASK
 8003766:	2201      	movs	r2, #1
 8003768:	f382 8810 	msr	PRIMASK, r2
 800376c:	6801      	ldr	r1, [r0, #0]
 800376e:	4d13      	ldr	r5, [pc, #76]	; (80037bc <UART_EndRxTransfer+0x5c>)
 8003770:	680b      	ldr	r3, [r1, #0]
 8003772:	402b      	ands	r3, r5
 8003774:	600b      	str	r3, [r1, #0]
 8003776:	f384 8810 	msr	PRIMASK, r4
 800377a:	f3ef 8110 	mrs	r1, PRIMASK
 800377e:	f382 8810 	msr	PRIMASK, r2
 8003782:	6802      	ldr	r2, [r0, #0]
 8003784:	4c0e      	ldr	r4, [pc, #56]	; (80037c0 <UART_EndRxTransfer+0x60>)
 8003786:	6893      	ldr	r3, [r2, #8]
 8003788:	4023      	ands	r3, r4
 800378a:	6093      	str	r3, [r2, #8]
 800378c:	f381 8810 	msr	PRIMASK, r1
 8003790:	6ec3      	ldr	r3, [r0, #108]	; 0x6c
 8003792:	2b01      	cmp	r3, #1
 8003794:	d10a      	bne.n	80037ac <UART_EndRxTransfer+0x4c>
 8003796:	f3ef 8110 	mrs	r1, PRIMASK
 800379a:	f383 8810 	msr	PRIMASK, r3
 800379e:	2410      	movs	r4, #16
 80037a0:	6802      	ldr	r2, [r0, #0]
 80037a2:	6813      	ldr	r3, [r2, #0]
 80037a4:	43a3      	bics	r3, r4
 80037a6:	6013      	str	r3, [r2, #0]
 80037a8:	f381 8810 	msr	PRIMASK, r1
 80037ac:	0003      	movs	r3, r0
 80037ae:	2220      	movs	r2, #32
 80037b0:	338c      	adds	r3, #140	; 0x8c
 80037b2:	601a      	str	r2, [r3, #0]
 80037b4:	2300      	movs	r3, #0
 80037b6:	66c3      	str	r3, [r0, #108]	; 0x6c
 80037b8:	6743      	str	r3, [r0, #116]	; 0x74
 80037ba:	bd30      	pop	{r4, r5, pc}
 80037bc:	fffffedf 	.word	0xfffffedf
 80037c0:	effffffe 	.word	0xeffffffe

080037c4 <HAL_UART_RxCpltCallback>:
 80037c4:	4770      	bx	lr

080037c6 <HAL_UART_RxHalfCpltCallback>:
 80037c6:	4770      	bx	lr

080037c8 <HAL_UART_ErrorCallback>:
 80037c8:	4770      	bx	lr

080037ca <UART_DMAError>:
 80037ca:	b570      	push	{r4, r5, r6, lr}
 80037cc:	6a84      	ldr	r4, [r0, #40]	; 0x28
 80037ce:	0023      	movs	r3, r4
 80037d0:	0022      	movs	r2, r4
 80037d2:	3388      	adds	r3, #136	; 0x88
 80037d4:	328c      	adds	r2, #140	; 0x8c
 80037d6:	681b      	ldr	r3, [r3, #0]
 80037d8:	6815      	ldr	r5, [r2, #0]
 80037da:	6822      	ldr	r2, [r4, #0]
 80037dc:	6892      	ldr	r2, [r2, #8]
 80037de:	0612      	lsls	r2, r2, #24
 80037e0:	d508      	bpl.n	80037f4 <UART_DMAError+0x2a>
 80037e2:	2b21      	cmp	r3, #33	; 0x21
 80037e4:	d106      	bne.n	80037f4 <UART_DMAError+0x2a>
 80037e6:	0023      	movs	r3, r4
 80037e8:	2200      	movs	r2, #0
 80037ea:	3356      	adds	r3, #86	; 0x56
 80037ec:	0020      	movs	r0, r4
 80037ee:	801a      	strh	r2, [r3, #0]
 80037f0:	f7ff ff98 	bl	8003724 <UART_EndTxTransfer>
 80037f4:	6823      	ldr	r3, [r4, #0]
 80037f6:	689b      	ldr	r3, [r3, #8]
 80037f8:	065b      	lsls	r3, r3, #25
 80037fa:	d508      	bpl.n	800380e <UART_DMAError+0x44>
 80037fc:	2d22      	cmp	r5, #34	; 0x22
 80037fe:	d106      	bne.n	800380e <UART_DMAError+0x44>
 8003800:	0023      	movs	r3, r4
 8003802:	2200      	movs	r2, #0
 8003804:	335e      	adds	r3, #94	; 0x5e
 8003806:	0020      	movs	r0, r4
 8003808:	801a      	strh	r2, [r3, #0]
 800380a:	f7ff ffa9 	bl	8003760 <UART_EndRxTransfer>
 800380e:	0022      	movs	r2, r4
 8003810:	2310      	movs	r3, #16
 8003812:	3290      	adds	r2, #144	; 0x90
 8003814:	6811      	ldr	r1, [r2, #0]
 8003816:	0020      	movs	r0, r4
 8003818:	430b      	orrs	r3, r1
 800381a:	6013      	str	r3, [r2, #0]
 800381c:	f7ff ffd4 	bl	80037c8 <HAL_UART_ErrorCallback>
 8003820:	bd70      	pop	{r4, r5, r6, pc}

08003822 <HAL_UARTEx_RxEventCallback>:
 8003822:	4770      	bx	lr

08003824 <UART_DMARxHalfCplt>:
 8003824:	2301      	movs	r3, #1
 8003826:	6a80      	ldr	r0, [r0, #40]	; 0x28
 8003828:	b510      	push	{r4, lr}
 800382a:	6703      	str	r3, [r0, #112]	; 0x70
 800382c:	6ec3      	ldr	r3, [r0, #108]	; 0x6c
 800382e:	2b01      	cmp	r3, #1
 8003830:	d106      	bne.n	8003840 <UART_DMARxHalfCplt+0x1c>
 8003832:	0003      	movs	r3, r0
 8003834:	335c      	adds	r3, #92	; 0x5c
 8003836:	8819      	ldrh	r1, [r3, #0]
 8003838:	0849      	lsrs	r1, r1, #1
 800383a:	f7ff fff2 	bl	8003822 <HAL_UARTEx_RxEventCallback>
 800383e:	bd10      	pop	{r4, pc}
 8003840:	f7ff ffc1 	bl	80037c6 <HAL_UART_RxHalfCpltCallback>
 8003844:	e7fb      	b.n	800383e <UART_DMARxHalfCplt+0x1a>
	...

08003848 <UART_DMAReceiveCplt>:
 8003848:	0003      	movs	r3, r0
 800384a:	681b      	ldr	r3, [r3, #0]
 800384c:	2220      	movs	r2, #32
 800384e:	681b      	ldr	r3, [r3, #0]
 8003850:	b570      	push	{r4, r5, r6, lr}
 8003852:	0019      	movs	r1, r3
 8003854:	6a80      	ldr	r0, [r0, #40]	; 0x28
 8003856:	4011      	ands	r1, r2
 8003858:	4213      	tst	r3, r2
 800385a:	d134      	bne.n	80038c6 <UART_DMAReceiveCplt+0x7e>
 800385c:	0003      	movs	r3, r0
 800385e:	335e      	adds	r3, #94	; 0x5e
 8003860:	8019      	strh	r1, [r3, #0]
 8003862:	f3ef 8510 	mrs	r5, PRIMASK
 8003866:	2301      	movs	r3, #1
 8003868:	f383 8810 	msr	PRIMASK, r3
 800386c:	6804      	ldr	r4, [r0, #0]
 800386e:	4e1d      	ldr	r6, [pc, #116]	; (80038e4 <UART_DMAReceiveCplt+0x9c>)
 8003870:	6821      	ldr	r1, [r4, #0]
 8003872:	4031      	ands	r1, r6
 8003874:	6021      	str	r1, [r4, #0]
 8003876:	f385 8810 	msr	PRIMASK, r5
 800387a:	f3ef 8510 	mrs	r5, PRIMASK
 800387e:	f383 8810 	msr	PRIMASK, r3
 8003882:	6804      	ldr	r4, [r0, #0]
 8003884:	68a1      	ldr	r1, [r4, #8]
 8003886:	4399      	bics	r1, r3
 8003888:	60a1      	str	r1, [r4, #8]
 800388a:	f385 8810 	msr	PRIMASK, r5
 800388e:	f3ef 8410 	mrs	r4, PRIMASK
 8003892:	f383 8810 	msr	PRIMASK, r3
 8003896:	2540      	movs	r5, #64	; 0x40
 8003898:	6801      	ldr	r1, [r0, #0]
 800389a:	688b      	ldr	r3, [r1, #8]
 800389c:	43ab      	bics	r3, r5
 800389e:	608b      	str	r3, [r1, #8]
 80038a0:	f384 8810 	msr	PRIMASK, r4
 80038a4:	0003      	movs	r3, r0
 80038a6:	338c      	adds	r3, #140	; 0x8c
 80038a8:	601a      	str	r2, [r3, #0]
 80038aa:	6ec3      	ldr	r3, [r0, #108]	; 0x6c
 80038ac:	2b01      	cmp	r3, #1
 80038ae:	d10a      	bne.n	80038c6 <UART_DMAReceiveCplt+0x7e>
 80038b0:	f3ef 8110 	mrs	r1, PRIMASK
 80038b4:	f383 8810 	msr	PRIMASK, r3
 80038b8:	2410      	movs	r4, #16
 80038ba:	6802      	ldr	r2, [r0, #0]
 80038bc:	6813      	ldr	r3, [r2, #0]
 80038be:	43a3      	bics	r3, r4
 80038c0:	6013      	str	r3, [r2, #0]
 80038c2:	f381 8810 	msr	PRIMASK, r1
 80038c6:	2300      	movs	r3, #0
 80038c8:	6703      	str	r3, [r0, #112]	; 0x70
 80038ca:	6ec3      	ldr	r3, [r0, #108]	; 0x6c
 80038cc:	2b01      	cmp	r3, #1
 80038ce:	d105      	bne.n	80038dc <UART_DMAReceiveCplt+0x94>
 80038d0:	0003      	movs	r3, r0
 80038d2:	335c      	adds	r3, #92	; 0x5c
 80038d4:	8819      	ldrh	r1, [r3, #0]
 80038d6:	f7ff ffa4 	bl	8003822 <HAL_UARTEx_RxEventCallback>
 80038da:	bd70      	pop	{r4, r5, r6, pc}
 80038dc:	f7ff ff72 	bl	80037c4 <HAL_UART_RxCpltCallback>
 80038e0:	e7fb      	b.n	80038da <UART_DMAReceiveCplt+0x92>
 80038e2:	46c0      	nop			; (mov r8, r8)
 80038e4:	fffffeff 	.word	0xfffffeff

080038e8 <UART_SetConfig>:
 80038e8:	b570      	push	{r4, r5, r6, lr}
 80038ea:	0004      	movs	r4, r0
 80038ec:	6925      	ldr	r5, [r4, #16]
 80038ee:	68a1      	ldr	r1, [r4, #8]
 80038f0:	6802      	ldr	r2, [r0, #0]
 80038f2:	4329      	orrs	r1, r5
 80038f4:	6965      	ldr	r5, [r4, #20]
 80038f6:	69c3      	ldr	r3, [r0, #28]
 80038f8:	4329      	orrs	r1, r5
 80038fa:	6810      	ldr	r0, [r2, #0]
 80038fc:	4d48      	ldr	r5, [pc, #288]	; (8003a20 <UART_SetConfig+0x138>)
 80038fe:	4319      	orrs	r1, r3
 8003900:	4028      	ands	r0, r5
 8003902:	4301      	orrs	r1, r0
 8003904:	6011      	str	r1, [r2, #0]
 8003906:	6851      	ldr	r1, [r2, #4]
 8003908:	4846      	ldr	r0, [pc, #280]	; (8003a24 <UART_SetConfig+0x13c>)
 800390a:	6a25      	ldr	r5, [r4, #32]
 800390c:	4001      	ands	r1, r0
 800390e:	68e0      	ldr	r0, [r4, #12]
 8003910:	4301      	orrs	r1, r0
 8003912:	6051      	str	r1, [r2, #4]
 8003914:	69a1      	ldr	r1, [r4, #24]
 8003916:	6890      	ldr	r0, [r2, #8]
 8003918:	4329      	orrs	r1, r5
 800391a:	4d43      	ldr	r5, [pc, #268]	; (8003a28 <UART_SetConfig+0x140>)
 800391c:	4028      	ands	r0, r5
 800391e:	4301      	orrs	r1, r0
 8003920:	200f      	movs	r0, #15
 8003922:	6091      	str	r1, [r2, #8]
 8003924:	6ad1      	ldr	r1, [r2, #44]	; 0x2c
 8003926:	4381      	bics	r1, r0
 8003928:	6a60      	ldr	r0, [r4, #36]	; 0x24
 800392a:	4301      	orrs	r1, r0
 800392c:	62d1      	str	r1, [r2, #44]	; 0x2c
 800392e:	493f      	ldr	r1, [pc, #252]	; (8003a2c <UART_SetConfig+0x144>)
 8003930:	428a      	cmp	r2, r1
 8003932:	d115      	bne.n	8003960 <UART_SetConfig+0x78>
 8003934:	2103      	movs	r1, #3
 8003936:	4a3e      	ldr	r2, [pc, #248]	; (8003a30 <UART_SetConfig+0x148>)
 8003938:	6d52      	ldr	r2, [r2, #84]	; 0x54
 800393a:	400a      	ands	r2, r1
 800393c:	2180      	movs	r1, #128	; 0x80
 800393e:	3a01      	subs	r2, #1
 8003940:	0209      	lsls	r1, r1, #8
 8003942:	2a02      	cmp	r2, #2
 8003944:	d85f      	bhi.n	8003a06 <UART_SetConfig+0x11e>
 8003946:	483b      	ldr	r0, [pc, #236]	; (8003a34 <UART_SetConfig+0x14c>)
 8003948:	5c80      	ldrb	r0, [r0, r2]
 800394a:	428b      	cmp	r3, r1
 800394c:	d014      	beq.n	8003978 <UART_SetConfig+0x90>
 800394e:	2808      	cmp	r0, #8
 8003950:	d857      	bhi.n	8003a02 <UART_SetConfig+0x11a>
 8003952:	f7fc fbd5 	bl	8000100 <__gnu_thumb1_case_uqi>
 8003956:	560c      	.short	0x560c
 8003958:	56515654 	.word	0x56515654
 800395c:	5656      	.short	0x5656
 800395e:	3b          	.byte	0x3b
 800395f:	00          	.byte	0x00
 8003960:	4935      	ldr	r1, [pc, #212]	; (8003a38 <UART_SetConfig+0x150>)
 8003962:	428a      	cmp	r2, r1
 8003964:	d14d      	bne.n	8003a02 <UART_SetConfig+0x11a>
 8003966:	2280      	movs	r2, #128	; 0x80
 8003968:	0212      	lsls	r2, r2, #8
 800396a:	4293      	cmp	r3, r2
 800396c:	d04d      	beq.n	8003a0a <UART_SetConfig+0x122>
 800396e:	f7ff f96f 	bl	8002c50 <HAL_RCC_GetPCLK1Freq>
 8003972:	2800      	cmp	r0, #0
 8003974:	d04d      	beq.n	8003a12 <UART_SetConfig+0x12a>
 8003976:	e02b      	b.n	80039d0 <UART_SetConfig+0xe8>
 8003978:	2808      	cmp	r0, #8
 800397a:	d842      	bhi.n	8003a02 <UART_SetConfig+0x11a>
 800397c:	f7fc fbc0 	bl	8000100 <__gnu_thumb1_case_uqi>
 8003980:	41084145 	.word	0x41084145
 8003984:	41414105 	.word	0x41414105
 8003988:	09          	.byte	0x09
 8003989:	00          	.byte	0x00
 800398a:	f7ff f877 	bl	8002a7c <HAL_RCC_GetSysClockFreq>
 800398e:	e03e      	b.n	8003a0e <UART_SetConfig+0x126>
 8003990:	4b2a      	ldr	r3, [pc, #168]	; (8003a3c <UART_SetConfig+0x154>)
 8003992:	6a62      	ldr	r2, [r4, #36]	; 0x24
 8003994:	492a      	ldr	r1, [pc, #168]	; (8003a40 <UART_SetConfig+0x158>)
 8003996:	0052      	lsls	r2, r2, #1
 8003998:	5a51      	ldrh	r1, [r2, r1]
 800399a:	0018      	movs	r0, r3
 800399c:	f7fc fbba 	bl	8000114 <__udivsi3>
 80039a0:	6865      	ldr	r5, [r4, #4]
 80039a2:	0040      	lsls	r0, r0, #1
 80039a4:	086b      	lsrs	r3, r5, #1
 80039a6:	18c0      	adds	r0, r0, r3
 80039a8:	0029      	movs	r1, r5
 80039aa:	f7fc fbb3 	bl	8000114 <__udivsi3>
 80039ae:	0002      	movs	r2, r0
 80039b0:	4b24      	ldr	r3, [pc, #144]	; (8003a44 <UART_SetConfig+0x15c>)
 80039b2:	3a10      	subs	r2, #16
 80039b4:	429a      	cmp	r2, r3
 80039b6:	d824      	bhi.n	8003a02 <UART_SetConfig+0x11a>
 80039b8:	230f      	movs	r3, #15
 80039ba:	0002      	movs	r2, r0
 80039bc:	0700      	lsls	r0, r0, #28
 80039be:	439a      	bics	r2, r3
 80039c0:	b293      	uxth	r3, r2
 80039c2:	0f40      	lsrs	r0, r0, #29
 80039c4:	6822      	ldr	r2, [r4, #0]
 80039c6:	4318      	orrs	r0, r3
 80039c8:	60d0      	str	r0, [r2, #12]
 80039ca:	e022      	b.n	8003a12 <UART_SetConfig+0x12a>
 80039cc:	2080      	movs	r0, #128	; 0x80
 80039ce:	0200      	lsls	r0, r0, #8
 80039d0:	6a63      	ldr	r3, [r4, #36]	; 0x24
 80039d2:	4a1b      	ldr	r2, [pc, #108]	; (8003a40 <UART_SetConfig+0x158>)
 80039d4:	005b      	lsls	r3, r3, #1
 80039d6:	5a99      	ldrh	r1, [r3, r2]
 80039d8:	f7fc fb9c 	bl	8000114 <__udivsi3>
 80039dc:	6865      	ldr	r5, [r4, #4]
 80039de:	086b      	lsrs	r3, r5, #1
 80039e0:	18c0      	adds	r0, r0, r3
 80039e2:	0029      	movs	r1, r5
 80039e4:	f7fc fb96 	bl	8000114 <__udivsi3>
 80039e8:	0002      	movs	r2, r0
 80039ea:	4b16      	ldr	r3, [pc, #88]	; (8003a44 <UART_SetConfig+0x15c>)
 80039ec:	3a10      	subs	r2, #16
 80039ee:	429a      	cmp	r2, r3
 80039f0:	d807      	bhi.n	8003a02 <UART_SetConfig+0x11a>
 80039f2:	6823      	ldr	r3, [r4, #0]
 80039f4:	60d8      	str	r0, [r3, #12]
 80039f6:	e00c      	b.n	8003a12 <UART_SetConfig+0x12a>
 80039f8:	f7ff f840 	bl	8002a7c <HAL_RCC_GetSysClockFreq>
 80039fc:	e7b9      	b.n	8003972 <UART_SetConfig+0x8a>
 80039fe:	480f      	ldr	r0, [pc, #60]	; (8003a3c <UART_SetConfig+0x154>)
 8003a00:	e7e6      	b.n	80039d0 <UART_SetConfig+0xe8>
 8003a02:	2001      	movs	r0, #1
 8003a04:	e006      	b.n	8003a14 <UART_SetConfig+0x12c>
 8003a06:	428b      	cmp	r3, r1
 8003a08:	d1b1      	bne.n	800396e <UART_SetConfig+0x86>
 8003a0a:	f7ff f921 	bl	8002c50 <HAL_RCC_GetPCLK1Freq>
 8003a0e:	1e03      	subs	r3, r0, #0
 8003a10:	d1bf      	bne.n	8003992 <UART_SetConfig+0xaa>
 8003a12:	2000      	movs	r0, #0
 8003a14:	4b0c      	ldr	r3, [pc, #48]	; (8003a48 <UART_SetConfig+0x160>)
 8003a16:	66a3      	str	r3, [r4, #104]	; 0x68
 8003a18:	2300      	movs	r3, #0
 8003a1a:	6763      	str	r3, [r4, #116]	; 0x74
 8003a1c:	67a3      	str	r3, [r4, #120]	; 0x78
 8003a1e:	bd70      	pop	{r4, r5, r6, pc}
 8003a20:	cfff69f3 	.word	0xcfff69f3
 8003a24:	ffffcfff 	.word	0xffffcfff
 8003a28:	11fff4ff 	.word	0x11fff4ff
 8003a2c:	40013800 	.word	0x40013800
 8003a30:	40021000 	.word	0x40021000
 8003a34:	08004a98 	.word	0x08004a98
 8003a38:	40004400 	.word	0x40004400
 8003a3c:	00f42400 	.word	0x00f42400
 8003a40:	08004a9c 	.word	0x08004a9c
 8003a44:	0000ffef 	.word	0x0000ffef
 8003a48:	00010001 	.word	0x00010001

08003a4c <UART_AdvFeatureConfig>:
 8003a4c:	6a83      	ldr	r3, [r0, #40]	; 0x28
 8003a4e:	b530      	push	{r4, r5, lr}
 8003a50:	071a      	lsls	r2, r3, #28
 8003a52:	d506      	bpl.n	8003a62 <UART_AdvFeatureConfig+0x16>
 8003a54:	6801      	ldr	r1, [r0, #0]
 8003a56:	4c28      	ldr	r4, [pc, #160]	; (8003af8 <UART_AdvFeatureConfig+0xac>)
 8003a58:	684a      	ldr	r2, [r1, #4]
 8003a5a:	4022      	ands	r2, r4
 8003a5c:	6b84      	ldr	r4, [r0, #56]	; 0x38
 8003a5e:	4322      	orrs	r2, r4
 8003a60:	604a      	str	r2, [r1, #4]
 8003a62:	07da      	lsls	r2, r3, #31
 8003a64:	d506      	bpl.n	8003a74 <UART_AdvFeatureConfig+0x28>
 8003a66:	6801      	ldr	r1, [r0, #0]
 8003a68:	4c24      	ldr	r4, [pc, #144]	; (8003afc <UART_AdvFeatureConfig+0xb0>)
 8003a6a:	684a      	ldr	r2, [r1, #4]
 8003a6c:	4022      	ands	r2, r4
 8003a6e:	6ac4      	ldr	r4, [r0, #44]	; 0x2c
 8003a70:	4322      	orrs	r2, r4
 8003a72:	604a      	str	r2, [r1, #4]
 8003a74:	079a      	lsls	r2, r3, #30
 8003a76:	d506      	bpl.n	8003a86 <UART_AdvFeatureConfig+0x3a>
 8003a78:	6801      	ldr	r1, [r0, #0]
 8003a7a:	4c21      	ldr	r4, [pc, #132]	; (8003b00 <UART_AdvFeatureConfig+0xb4>)
 8003a7c:	684a      	ldr	r2, [r1, #4]
 8003a7e:	4022      	ands	r2, r4
 8003a80:	6b04      	ldr	r4, [r0, #48]	; 0x30
 8003a82:	4322      	orrs	r2, r4
 8003a84:	604a      	str	r2, [r1, #4]
 8003a86:	075a      	lsls	r2, r3, #29
 8003a88:	d506      	bpl.n	8003a98 <UART_AdvFeatureConfig+0x4c>
 8003a8a:	6801      	ldr	r1, [r0, #0]
 8003a8c:	4c1d      	ldr	r4, [pc, #116]	; (8003b04 <UART_AdvFeatureConfig+0xb8>)
 8003a8e:	684a      	ldr	r2, [r1, #4]
 8003a90:	4022      	ands	r2, r4
 8003a92:	6b44      	ldr	r4, [r0, #52]	; 0x34
 8003a94:	4322      	orrs	r2, r4
 8003a96:	604a      	str	r2, [r1, #4]
 8003a98:	06da      	lsls	r2, r3, #27
 8003a9a:	d506      	bpl.n	8003aaa <UART_AdvFeatureConfig+0x5e>
 8003a9c:	6801      	ldr	r1, [r0, #0]
 8003a9e:	4c1a      	ldr	r4, [pc, #104]	; (8003b08 <UART_AdvFeatureConfig+0xbc>)
 8003aa0:	688a      	ldr	r2, [r1, #8]
 8003aa2:	4022      	ands	r2, r4
 8003aa4:	6bc4      	ldr	r4, [r0, #60]	; 0x3c
 8003aa6:	4322      	orrs	r2, r4
 8003aa8:	608a      	str	r2, [r1, #8]
 8003aaa:	069a      	lsls	r2, r3, #26
 8003aac:	d506      	bpl.n	8003abc <UART_AdvFeatureConfig+0x70>
 8003aae:	6801      	ldr	r1, [r0, #0]
 8003ab0:	4c16      	ldr	r4, [pc, #88]	; (8003b0c <UART_AdvFeatureConfig+0xc0>)
 8003ab2:	688a      	ldr	r2, [r1, #8]
 8003ab4:	4022      	ands	r2, r4
 8003ab6:	6c04      	ldr	r4, [r0, #64]	; 0x40
 8003ab8:	4322      	orrs	r2, r4
 8003aba:	608a      	str	r2, [r1, #8]
 8003abc:	065a      	lsls	r2, r3, #25
 8003abe:	d510      	bpl.n	8003ae2 <UART_AdvFeatureConfig+0x96>
 8003ac0:	6801      	ldr	r1, [r0, #0]
 8003ac2:	4d13      	ldr	r5, [pc, #76]	; (8003b10 <UART_AdvFeatureConfig+0xc4>)
 8003ac4:	684a      	ldr	r2, [r1, #4]
 8003ac6:	6c44      	ldr	r4, [r0, #68]	; 0x44
 8003ac8:	402a      	ands	r2, r5
 8003aca:	4322      	orrs	r2, r4
 8003acc:	604a      	str	r2, [r1, #4]
 8003ace:	2280      	movs	r2, #128	; 0x80
 8003ad0:	0352      	lsls	r2, r2, #13
 8003ad2:	4294      	cmp	r4, r2
 8003ad4:	d105      	bne.n	8003ae2 <UART_AdvFeatureConfig+0x96>
 8003ad6:	684a      	ldr	r2, [r1, #4]
 8003ad8:	4c0e      	ldr	r4, [pc, #56]	; (8003b14 <UART_AdvFeatureConfig+0xc8>)
 8003ada:	4022      	ands	r2, r4
 8003adc:	6c84      	ldr	r4, [r0, #72]	; 0x48
 8003ade:	4322      	orrs	r2, r4
 8003ae0:	604a      	str	r2, [r1, #4]
 8003ae2:	061b      	lsls	r3, r3, #24
 8003ae4:	d506      	bpl.n	8003af4 <UART_AdvFeatureConfig+0xa8>
 8003ae6:	6802      	ldr	r2, [r0, #0]
 8003ae8:	490b      	ldr	r1, [pc, #44]	; (8003b18 <UART_AdvFeatureConfig+0xcc>)
 8003aea:	6853      	ldr	r3, [r2, #4]
 8003aec:	400b      	ands	r3, r1
 8003aee:	6cc1      	ldr	r1, [r0, #76]	; 0x4c
 8003af0:	430b      	orrs	r3, r1
 8003af2:	6053      	str	r3, [r2, #4]
 8003af4:	bd30      	pop	{r4, r5, pc}
 8003af6:	46c0      	nop			; (mov r8, r8)
 8003af8:	ffff7fff 	.word	0xffff7fff
 8003afc:	fffdffff 	.word	0xfffdffff
 8003b00:	fffeffff 	.word	0xfffeffff
 8003b04:	fffbffff 	.word	0xfffbffff
 8003b08:	ffffefff 	.word	0xffffefff
 8003b0c:	ffffdfff 	.word	0xffffdfff
 8003b10:	ffefffff 	.word	0xffefffff
 8003b14:	ff9fffff 	.word	0xff9fffff
 8003b18:	fff7ffff 	.word	0xfff7ffff

08003b1c <UART_WaitOnFlagUntilTimeout>:
 8003b1c:	b5f7      	push	{r0, r1, r2, r4, r5, r6, r7, lr}
 8003b1e:	0004      	movs	r4, r0
 8003b20:	000d      	movs	r5, r1
 8003b22:	0017      	movs	r7, r2
 8003b24:	9300      	str	r3, [sp, #0]
 8003b26:	6822      	ldr	r2, [r4, #0]
 8003b28:	69d3      	ldr	r3, [r2, #28]
 8003b2a:	402b      	ands	r3, r5
 8003b2c:	1b5b      	subs	r3, r3, r5
 8003b2e:	4259      	negs	r1, r3
 8003b30:	414b      	adcs	r3, r1
 8003b32:	42bb      	cmp	r3, r7
 8003b34:	d001      	beq.n	8003b3a <UART_WaitOnFlagUntilTimeout+0x1e>
 8003b36:	2000      	movs	r0, #0
 8003b38:	e027      	b.n	8003b8a <UART_WaitOnFlagUntilTimeout+0x6e>
 8003b3a:	9b08      	ldr	r3, [sp, #32]
 8003b3c:	3301      	adds	r3, #1
 8003b3e:	d0f3      	beq.n	8003b28 <UART_WaitOnFlagUntilTimeout+0xc>
 8003b40:	f7fe fac2 	bl	80020c8 <HAL_GetTick>
 8003b44:	9b00      	ldr	r3, [sp, #0]
 8003b46:	1ac0      	subs	r0, r0, r3
 8003b48:	9b08      	ldr	r3, [sp, #32]
 8003b4a:	4298      	cmp	r0, r3
 8003b4c:	d82e      	bhi.n	8003bac <UART_WaitOnFlagUntilTimeout+0x90>
 8003b4e:	2b00      	cmp	r3, #0
 8003b50:	d02c      	beq.n	8003bac <UART_WaitOnFlagUntilTimeout+0x90>
 8003b52:	2104      	movs	r1, #4
 8003b54:	6823      	ldr	r3, [r4, #0]
 8003b56:	681a      	ldr	r2, [r3, #0]
 8003b58:	420a      	tst	r2, r1
 8003b5a:	d0e4      	beq.n	8003b26 <UART_WaitOnFlagUntilTimeout+0xa>
 8003b5c:	002a      	movs	r2, r5
 8003b5e:	313c      	adds	r1, #60	; 0x3c
 8003b60:	3a40      	subs	r2, #64	; 0x40
 8003b62:	438a      	bics	r2, r1
 8003b64:	d0df      	beq.n	8003b26 <UART_WaitOnFlagUntilTimeout+0xa>
 8003b66:	69da      	ldr	r2, [r3, #28]
 8003b68:	2608      	movs	r6, #8
 8003b6a:	0011      	movs	r1, r2
 8003b6c:	4031      	ands	r1, r6
 8003b6e:	9101      	str	r1, [sp, #4]
 8003b70:	4232      	tst	r2, r6
 8003b72:	d00b      	beq.n	8003b8c <UART_WaitOnFlagUntilTimeout+0x70>
 8003b74:	0020      	movs	r0, r4
 8003b76:	621e      	str	r6, [r3, #32]
 8003b78:	f7ff fdf2 	bl	8003760 <UART_EndRxTransfer>
 8003b7c:	0023      	movs	r3, r4
 8003b7e:	3390      	adds	r3, #144	; 0x90
 8003b80:	601e      	str	r6, [r3, #0]
 8003b82:	2300      	movs	r3, #0
 8003b84:	2001      	movs	r0, #1
 8003b86:	3484      	adds	r4, #132	; 0x84
 8003b88:	7023      	strb	r3, [r4, #0]
 8003b8a:	bdfe      	pop	{r1, r2, r3, r4, r5, r6, r7, pc}
 8003b8c:	2280      	movs	r2, #128	; 0x80
 8003b8e:	69d9      	ldr	r1, [r3, #28]
 8003b90:	0112      	lsls	r2, r2, #4
 8003b92:	4211      	tst	r1, r2
 8003b94:	d0c7      	beq.n	8003b26 <UART_WaitOnFlagUntilTimeout+0xa>
 8003b96:	621a      	str	r2, [r3, #32]
 8003b98:	0020      	movs	r0, r4
 8003b9a:	f7ff fde1 	bl	8003760 <UART_EndRxTransfer>
 8003b9e:	0023      	movs	r3, r4
 8003ba0:	2220      	movs	r2, #32
 8003ba2:	3390      	adds	r3, #144	; 0x90
 8003ba4:	601a      	str	r2, [r3, #0]
 8003ba6:	9b01      	ldr	r3, [sp, #4]
 8003ba8:	3484      	adds	r4, #132	; 0x84
 8003baa:	7023      	strb	r3, [r4, #0]
 8003bac:	2003      	movs	r0, #3
 8003bae:	e7ec      	b.n	8003b8a <UART_WaitOnFlagUntilTimeout+0x6e>

08003bb0 <UART_CheckIdleState>:
 8003bb0:	0003      	movs	r3, r0
 8003bb2:	b5f7      	push	{r0, r1, r2, r4, r5, r6, r7, lr}
 8003bb4:	2700      	movs	r7, #0
 8003bb6:	0004      	movs	r4, r0
 8003bb8:	3390      	adds	r3, #144	; 0x90
 8003bba:	601f      	str	r7, [r3, #0]
 8003bbc:	f7fe fa84 	bl	80020c8 <HAL_GetTick>
 8003bc0:	0026      	movs	r6, r4
 8003bc2:	6823      	ldr	r3, [r4, #0]
 8003bc4:	0005      	movs	r5, r0
 8003bc6:	681b      	ldr	r3, [r3, #0]
 8003bc8:	3684      	adds	r6, #132	; 0x84
 8003bca:	071b      	lsls	r3, r3, #28
 8003bcc:	d51c      	bpl.n	8003c08 <UART_CheckIdleState+0x58>
 8003bce:	2180      	movs	r1, #128	; 0x80
 8003bd0:	4b28      	ldr	r3, [pc, #160]	; (8003c74 <UART_CheckIdleState+0xc4>)
 8003bd2:	003a      	movs	r2, r7
 8003bd4:	9300      	str	r3, [sp, #0]
 8003bd6:	0389      	lsls	r1, r1, #14
 8003bd8:	0003      	movs	r3, r0
 8003bda:	0020      	movs	r0, r4
 8003bdc:	f7ff ff9e 	bl	8003b1c <UART_WaitOnFlagUntilTimeout>
 8003be0:	42b8      	cmp	r0, r7
 8003be2:	d011      	beq.n	8003c08 <UART_CheckIdleState+0x58>
 8003be4:	f3ef 8110 	mrs	r1, PRIMASK
 8003be8:	2301      	movs	r3, #1
 8003bea:	f383 8810 	msr	PRIMASK, r3
 8003bee:	2080      	movs	r0, #128	; 0x80
 8003bf0:	6822      	ldr	r2, [r4, #0]
 8003bf2:	6813      	ldr	r3, [r2, #0]
 8003bf4:	4383      	bics	r3, r0
 8003bf6:	6013      	str	r3, [r2, #0]
 8003bf8:	f381 8810 	msr	PRIMASK, r1
 8003bfc:	2320      	movs	r3, #32
 8003bfe:	3488      	adds	r4, #136	; 0x88
 8003c00:	6023      	str	r3, [r4, #0]
 8003c02:	7037      	strb	r7, [r6, #0]
 8003c04:	2003      	movs	r0, #3
 8003c06:	bdfe      	pop	{r1, r2, r3, r4, r5, r6, r7, pc}
 8003c08:	0027      	movs	r7, r4
 8003c0a:	6823      	ldr	r3, [r4, #0]
 8003c0c:	378c      	adds	r7, #140	; 0x8c
 8003c0e:	681b      	ldr	r3, [r3, #0]
 8003c10:	075b      	lsls	r3, r3, #29
 8003c12:	d525      	bpl.n	8003c60 <UART_CheckIdleState+0xb0>
 8003c14:	2180      	movs	r1, #128	; 0x80
 8003c16:	4b17      	ldr	r3, [pc, #92]	; (8003c74 <UART_CheckIdleState+0xc4>)
 8003c18:	2200      	movs	r2, #0
 8003c1a:	9300      	str	r3, [sp, #0]
 8003c1c:	0020      	movs	r0, r4
 8003c1e:	002b      	movs	r3, r5
 8003c20:	03c9      	lsls	r1, r1, #15
 8003c22:	f7ff ff7b 	bl	8003b1c <UART_WaitOnFlagUntilTimeout>
 8003c26:	2800      	cmp	r0, #0
 8003c28:	d01a      	beq.n	8003c60 <UART_CheckIdleState+0xb0>
 8003c2a:	f3ef 8010 	mrs	r0, PRIMASK
 8003c2e:	2201      	movs	r2, #1
 8003c30:	f382 8810 	msr	PRIMASK, r2
 8003c34:	6821      	ldr	r1, [r4, #0]
 8003c36:	4d10      	ldr	r5, [pc, #64]	; (8003c78 <UART_CheckIdleState+0xc8>)
 8003c38:	680b      	ldr	r3, [r1, #0]
 8003c3a:	402b      	ands	r3, r5
 8003c3c:	600b      	str	r3, [r1, #0]
 8003c3e:	f380 8810 	msr	PRIMASK, r0
 8003c42:	f3ef 8010 	mrs	r0, PRIMASK
 8003c46:	f382 8810 	msr	PRIMASK, r2
 8003c4a:	6821      	ldr	r1, [r4, #0]
 8003c4c:	688b      	ldr	r3, [r1, #8]
 8003c4e:	4393      	bics	r3, r2
 8003c50:	608b      	str	r3, [r1, #8]
 8003c52:	f380 8810 	msr	PRIMASK, r0
 8003c56:	2320      	movs	r3, #32
 8003c58:	603b      	str	r3, [r7, #0]
 8003c5a:	2300      	movs	r3, #0
 8003c5c:	7033      	strb	r3, [r6, #0]
 8003c5e:	e7d1      	b.n	8003c04 <UART_CheckIdleState+0x54>
 8003c60:	0022      	movs	r2, r4
 8003c62:	2000      	movs	r0, #0
 8003c64:	2320      	movs	r3, #32
 8003c66:	3288      	adds	r2, #136	; 0x88
 8003c68:	6013      	str	r3, [r2, #0]
 8003c6a:	603b      	str	r3, [r7, #0]
 8003c6c:	66e0      	str	r0, [r4, #108]	; 0x6c
 8003c6e:	6720      	str	r0, [r4, #112]	; 0x70
 8003c70:	7030      	strb	r0, [r6, #0]
 8003c72:	e7c8      	b.n	8003c06 <UART_CheckIdleState+0x56>
 8003c74:	01ffffff 	.word	0x01ffffff
 8003c78:	fffffedf 	.word	0xfffffedf

08003c7c <HAL_UART_Init>:
 8003c7c:	b570      	push	{r4, r5, r6, lr}
 8003c7e:	1e04      	subs	r4, r0, #0
 8003c80:	d101      	bne.n	8003c86 <HAL_UART_Init+0xa>
 8003c82:	2001      	movs	r0, #1
 8003c84:	bd70      	pop	{r4, r5, r6, pc}
 8003c86:	0005      	movs	r5, r0
 8003c88:	3588      	adds	r5, #136	; 0x88
 8003c8a:	682b      	ldr	r3, [r5, #0]
 8003c8c:	2b00      	cmp	r3, #0
 8003c8e:	d104      	bne.n	8003c9a <HAL_UART_Init+0x1e>
 8003c90:	0002      	movs	r2, r0
 8003c92:	3284      	adds	r2, #132	; 0x84
 8003c94:	7013      	strb	r3, [r2, #0]
 8003c96:	f7fd ffed 	bl	8001c74 <HAL_UART_MspInit>
 8003c9a:	2324      	movs	r3, #36	; 0x24
 8003c9c:	2101      	movs	r1, #1
 8003c9e:	6822      	ldr	r2, [r4, #0]
 8003ca0:	602b      	str	r3, [r5, #0]
 8003ca2:	6813      	ldr	r3, [r2, #0]
 8003ca4:	438b      	bics	r3, r1
 8003ca6:	6013      	str	r3, [r2, #0]
 8003ca8:	6aa3      	ldr	r3, [r4, #40]	; 0x28
 8003caa:	2b00      	cmp	r3, #0
 8003cac:	d002      	beq.n	8003cb4 <HAL_UART_Init+0x38>
 8003cae:	0020      	movs	r0, r4
 8003cb0:	f7ff fecc 	bl	8003a4c <UART_AdvFeatureConfig>
 8003cb4:	0020      	movs	r0, r4
 8003cb6:	f7ff fe17 	bl	80038e8 <UART_SetConfig>
 8003cba:	2801      	cmp	r0, #1
 8003cbc:	d0e1      	beq.n	8003c82 <HAL_UART_Init+0x6>
 8003cbe:	6823      	ldr	r3, [r4, #0]
 8003cc0:	4907      	ldr	r1, [pc, #28]	; (8003ce0 <HAL_UART_Init+0x64>)
 8003cc2:	685a      	ldr	r2, [r3, #4]
 8003cc4:	0020      	movs	r0, r4
 8003cc6:	400a      	ands	r2, r1
 8003cc8:	212a      	movs	r1, #42	; 0x2a
 8003cca:	605a      	str	r2, [r3, #4]
 8003ccc:	689a      	ldr	r2, [r3, #8]
 8003cce:	438a      	bics	r2, r1
 8003cd0:	609a      	str	r2, [r3, #8]
 8003cd2:	2201      	movs	r2, #1
 8003cd4:	6819      	ldr	r1, [r3, #0]
 8003cd6:	430a      	orrs	r2, r1
 8003cd8:	601a      	str	r2, [r3, #0]
 8003cda:	f7ff ff69 	bl	8003bb0 <UART_CheckIdleState>
 8003cde:	e7d1      	b.n	8003c84 <HAL_UART_Init+0x8>
 8003ce0:	ffffb7ff 	.word	0xffffb7ff

08003ce4 <UART_Start_Receive_DMA>:
 8003ce4:	b5f8      	push	{r3, r4, r5, r6, r7, lr}
 8003ce6:	0013      	movs	r3, r2
 8003ce8:	0002      	movs	r2, r0
 8003cea:	0006      	movs	r6, r0
 8003cec:	0005      	movs	r5, r0
 8003cee:	325c      	adds	r2, #92	; 0x5c
 8003cf0:	6581      	str	r1, [r0, #88]	; 0x58
 8003cf2:	000f      	movs	r7, r1
 8003cf4:	8013      	strh	r3, [r2, #0]
 8003cf6:	2122      	movs	r1, #34	; 0x22
 8003cf8:	2200      	movs	r2, #0
 8003cfa:	3690      	adds	r6, #144	; 0x90
 8003cfc:	358c      	adds	r5, #140	; 0x8c
 8003cfe:	6032      	str	r2, [r6, #0]
 8003d00:	6029      	str	r1, [r5, #0]
 8003d02:	1d01      	adds	r1, r0, #4
 8003d04:	0004      	movs	r4, r0
 8003d06:	6fc8      	ldr	r0, [r1, #124]	; 0x7c
 8003d08:	4290      	cmp	r0, r2
 8003d0a:	d013      	beq.n	8003d34 <UART_Start_Receive_DMA+0x50>
 8003d0c:	491d      	ldr	r1, [pc, #116]	; (8003d84 <UART_Start_Receive_DMA+0xa0>)
 8003d0e:	6382      	str	r2, [r0, #56]	; 0x38
 8003d10:	62c1      	str	r1, [r0, #44]	; 0x2c
 8003d12:	491d      	ldr	r1, [pc, #116]	; (8003d88 <UART_Start_Receive_DMA+0xa4>)
 8003d14:	003a      	movs	r2, r7
 8003d16:	6301      	str	r1, [r0, #48]	; 0x30
 8003d18:	491c      	ldr	r1, [pc, #112]	; (8003d8c <UART_Start_Receive_DMA+0xa8>)
 8003d1a:	6341      	str	r1, [r0, #52]	; 0x34
 8003d1c:	6821      	ldr	r1, [r4, #0]
 8003d1e:	3124      	adds	r1, #36	; 0x24
 8003d20:	f7fe fad2 	bl	80022c8 <HAL_DMA_Start_IT>
 8003d24:	2800      	cmp	r0, #0
 8003d26:	d005      	beq.n	8003d34 <UART_Start_Receive_DMA+0x50>
 8003d28:	2310      	movs	r3, #16
 8003d2a:	2001      	movs	r0, #1
 8003d2c:	6033      	str	r3, [r6, #0]
 8003d2e:	18db      	adds	r3, r3, r3
 8003d30:	602b      	str	r3, [r5, #0]
 8003d32:	bdf8      	pop	{r3, r4, r5, r6, r7, pc}
 8003d34:	6923      	ldr	r3, [r4, #16]
 8003d36:	2b00      	cmp	r3, #0
 8003d38:	d00b      	beq.n	8003d52 <UART_Start_Receive_DMA+0x6e>
 8003d3a:	f3ef 8110 	mrs	r1, PRIMASK
 8003d3e:	2301      	movs	r3, #1
 8003d40:	f383 8810 	msr	PRIMASK, r3
 8003d44:	6822      	ldr	r2, [r4, #0]
 8003d46:	33ff      	adds	r3, #255	; 0xff
 8003d48:	6810      	ldr	r0, [r2, #0]
 8003d4a:	4303      	orrs	r3, r0
 8003d4c:	6013      	str	r3, [r2, #0]
 8003d4e:	f381 8810 	msr	PRIMASK, r1
 8003d52:	f3ef 8010 	mrs	r0, PRIMASK
 8003d56:	2301      	movs	r3, #1
 8003d58:	f383 8810 	msr	PRIMASK, r3
 8003d5c:	6821      	ldr	r1, [r4, #0]
 8003d5e:	688a      	ldr	r2, [r1, #8]
 8003d60:	431a      	orrs	r2, r3
 8003d62:	608a      	str	r2, [r1, #8]
 8003d64:	f380 8810 	msr	PRIMASK, r0
 8003d68:	f3ef 8110 	mrs	r1, PRIMASK
 8003d6c:	f383 8810 	msr	PRIMASK, r3
 8003d70:	6822      	ldr	r2, [r4, #0]
 8003d72:	333f      	adds	r3, #63	; 0x3f
 8003d74:	6890      	ldr	r0, [r2, #8]
 8003d76:	4303      	orrs	r3, r0
 8003d78:	6093      	str	r3, [r2, #8]
 8003d7a:	f381 8810 	msr	PRIMASK, r1
 8003d7e:	2000      	movs	r0, #0
 8003d80:	e7d7      	b.n	8003d32 <UART_Start_Receive_DMA+0x4e>
 8003d82:	46c0      	nop			; (mov r8, r8)
 8003d84:	08003849 	.word	0x08003849
 8003d88:	08003825 	.word	0x08003825
 8003d8c:	080037cb 	.word	0x080037cb

08003d90 <HAL_UART_Receive_DMA>:
 8003d90:	0003      	movs	r3, r0
 8003d92:	338c      	adds	r3, #140	; 0x8c
 8003d94:	b570      	push	{r4, r5, r6, lr}
 8003d96:	681c      	ldr	r4, [r3, #0]
 8003d98:	2302      	movs	r3, #2
 8003d9a:	2c20      	cmp	r4, #32
 8003d9c:	d125      	bne.n	8003dea <HAL_UART_Receive_DMA+0x5a>
 8003d9e:	3b01      	subs	r3, #1
 8003da0:	2900      	cmp	r1, #0
 8003da2:	d022      	beq.n	8003dea <HAL_UART_Receive_DMA+0x5a>
 8003da4:	2a00      	cmp	r2, #0
 8003da6:	d020      	beq.n	8003dea <HAL_UART_Receive_DMA+0x5a>
 8003da8:	2380      	movs	r3, #128	; 0x80
 8003daa:	6884      	ldr	r4, [r0, #8]
 8003dac:	015b      	lsls	r3, r3, #5
 8003dae:	429c      	cmp	r4, r3
 8003db0:	d105      	bne.n	8003dbe <HAL_UART_Receive_DMA+0x2e>
 8003db2:	6903      	ldr	r3, [r0, #16]
 8003db4:	2b00      	cmp	r3, #0
 8003db6:	d102      	bne.n	8003dbe <HAL_UART_Receive_DMA+0x2e>
 8003db8:	3301      	adds	r3, #1
 8003dba:	4219      	tst	r1, r3
 8003dbc:	d115      	bne.n	8003dea <HAL_UART_Receive_DMA+0x5a>
 8003dbe:	2300      	movs	r3, #0
 8003dc0:	66c3      	str	r3, [r0, #108]	; 0x6c
 8003dc2:	6803      	ldr	r3, [r0, #0]
 8003dc4:	685b      	ldr	r3, [r3, #4]
 8003dc6:	021b      	lsls	r3, r3, #8
 8003dc8:	d50c      	bpl.n	8003de4 <HAL_UART_Receive_DMA+0x54>
 8003dca:	f3ef 8510 	mrs	r5, PRIMASK
 8003dce:	2301      	movs	r3, #1
 8003dd0:	f383 8810 	msr	PRIMASK, r3
 8003dd4:	2380      	movs	r3, #128	; 0x80
 8003dd6:	6804      	ldr	r4, [r0, #0]
 8003dd8:	04db      	lsls	r3, r3, #19
 8003dda:	6826      	ldr	r6, [r4, #0]
 8003ddc:	4333      	orrs	r3, r6
 8003dde:	6023      	str	r3, [r4, #0]
 8003de0:	f385 8810 	msr	PRIMASK, r5
 8003de4:	f7ff ff7e 	bl	8003ce4 <UART_Start_Receive_DMA>
 8003de8:	0003      	movs	r3, r0
 8003dea:	0018      	movs	r0, r3
 8003dec:	bd70      	pop	{r4, r5, r6, pc}
	...

08003df0 <sinf>:
 8003df0:	b507      	push	{r0, r1, r2, lr}
 8003df2:	4a1a      	ldr	r2, [pc, #104]	; (8003e5c <sinf+0x6c>)
 8003df4:	0043      	lsls	r3, r0, #1
 8003df6:	085b      	lsrs	r3, r3, #1
 8003df8:	4293      	cmp	r3, r2
 8003dfa:	dc04      	bgt.n	8003e06 <sinf+0x16>
 8003dfc:	2200      	movs	r2, #0
 8003dfe:	2100      	movs	r1, #0
 8003e00:	f000 fcb2 	bl	8004768 <__kernel_sinf>
 8003e04:	e006      	b.n	8003e14 <sinf+0x24>
 8003e06:	22ff      	movs	r2, #255	; 0xff
 8003e08:	05d2      	lsls	r2, r2, #23
 8003e0a:	4293      	cmp	r3, r2
 8003e0c:	db03      	blt.n	8003e16 <sinf+0x26>
 8003e0e:	1c01      	adds	r1, r0, #0
 8003e10:	f7fc fdba 	bl	8000988 <__aeabi_fsub>
 8003e14:	bd0e      	pop	{r1, r2, r3, pc}
 8003e16:	4669      	mov	r1, sp
 8003e18:	f000 f822 	bl	8003e60 <__ieee754_rem_pio2f>
 8003e1c:	2303      	movs	r3, #3
 8003e1e:	4018      	ands	r0, r3
 8003e20:	2801      	cmp	r0, #1
 8003e22:	d007      	beq.n	8003e34 <sinf+0x44>
 8003e24:	2802      	cmp	r0, #2
 8003e26:	d00a      	beq.n	8003e3e <sinf+0x4e>
 8003e28:	2800      	cmp	r0, #0
 8003e2a:	d111      	bne.n	8003e50 <sinf+0x60>
 8003e2c:	2201      	movs	r2, #1
 8003e2e:	9901      	ldr	r1, [sp, #4]
 8003e30:	9800      	ldr	r0, [sp, #0]
 8003e32:	e7e5      	b.n	8003e00 <sinf+0x10>
 8003e34:	9901      	ldr	r1, [sp, #4]
 8003e36:	9800      	ldr	r0, [sp, #0]
 8003e38:	f000 f96e 	bl	8004118 <__kernel_cosf>
 8003e3c:	e7ea      	b.n	8003e14 <sinf+0x24>
 8003e3e:	2201      	movs	r2, #1
 8003e40:	9901      	ldr	r1, [sp, #4]
 8003e42:	9800      	ldr	r0, [sp, #0]
 8003e44:	f000 fc90 	bl	8004768 <__kernel_sinf>
 8003e48:	2380      	movs	r3, #128	; 0x80
 8003e4a:	061b      	lsls	r3, r3, #24
 8003e4c:	18c0      	adds	r0, r0, r3
 8003e4e:	e7e1      	b.n	8003e14 <sinf+0x24>
 8003e50:	9901      	ldr	r1, [sp, #4]
 8003e52:	9800      	ldr	r0, [sp, #0]
 8003e54:	f000 f960 	bl	8004118 <__kernel_cosf>
 8003e58:	e7f6      	b.n	8003e48 <sinf+0x58>
 8003e5a:	46c0      	nop			; (mov r8, r8)
 8003e5c:	3f490fd8 	.word	0x3f490fd8

08003e60 <__ieee754_rem_pio2f>:
 8003e60:	b5f0      	push	{r4, r5, r6, r7, lr}
 8003e62:	4ba0      	ldr	r3, [pc, #640]	; (80040e4 <__ieee754_rem_pio2f+0x284>)
 8003e64:	b08b      	sub	sp, #44	; 0x2c
 8003e66:	0045      	lsls	r5, r0, #1
 8003e68:	000c      	movs	r4, r1
 8003e6a:	9005      	str	r0, [sp, #20]
 8003e6c:	086d      	lsrs	r5, r5, #1
 8003e6e:	429d      	cmp	r5, r3
 8003e70:	dc04      	bgt.n	8003e7c <__ieee754_rem_pio2f+0x1c>
 8003e72:	2300      	movs	r3, #0
 8003e74:	6008      	str	r0, [r1, #0]
 8003e76:	604b      	str	r3, [r1, #4]
 8003e78:	2700      	movs	r7, #0
 8003e7a:	e01a      	b.n	8003eb2 <__ieee754_rem_pio2f+0x52>
 8003e7c:	4b9a      	ldr	r3, [pc, #616]	; (80040e8 <__ieee754_rem_pio2f+0x288>)
 8003e7e:	429d      	cmp	r5, r3
 8003e80:	dc4a      	bgt.n	8003f18 <__ieee754_rem_pio2f+0xb8>
 8003e82:	230f      	movs	r3, #15
 8003e84:	4e99      	ldr	r6, [pc, #612]	; (80040ec <__ieee754_rem_pio2f+0x28c>)
 8003e86:	499a      	ldr	r1, [pc, #616]	; (80040f0 <__ieee754_rem_pio2f+0x290>)
 8003e88:	439d      	bics	r5, r3
 8003e8a:	2800      	cmp	r0, #0
 8003e8c:	dd22      	ble.n	8003ed4 <__ieee754_rem_pio2f+0x74>
 8003e8e:	f7fc fd7b 	bl	8000988 <__aeabi_fsub>
 8003e92:	1c07      	adds	r7, r0, #0
 8003e94:	42b5      	cmp	r5, r6
 8003e96:	d00f      	beq.n	8003eb8 <__ieee754_rem_pio2f+0x58>
 8003e98:	4996      	ldr	r1, [pc, #600]	; (80040f4 <__ieee754_rem_pio2f+0x294>)
 8003e9a:	f7fc fd75 	bl	8000988 <__aeabi_fsub>
 8003e9e:	1c01      	adds	r1, r0, #0
 8003ea0:	6020      	str	r0, [r4, #0]
 8003ea2:	1c38      	adds	r0, r7, #0
 8003ea4:	f7fc fd70 	bl	8000988 <__aeabi_fsub>
 8003ea8:	4992      	ldr	r1, [pc, #584]	; (80040f4 <__ieee754_rem_pio2f+0x294>)
 8003eaa:	f7fc fd6d 	bl	8000988 <__aeabi_fsub>
 8003eae:	2701      	movs	r7, #1
 8003eb0:	6060      	str	r0, [r4, #4]
 8003eb2:	0038      	movs	r0, r7
 8003eb4:	b00b      	add	sp, #44	; 0x2c
 8003eb6:	bdf0      	pop	{r4, r5, r6, r7, pc}
 8003eb8:	498f      	ldr	r1, [pc, #572]	; (80040f8 <__ieee754_rem_pio2f+0x298>)
 8003eba:	f7fc fd65 	bl	8000988 <__aeabi_fsub>
 8003ebe:	498f      	ldr	r1, [pc, #572]	; (80040fc <__ieee754_rem_pio2f+0x29c>)
 8003ec0:	1c05      	adds	r5, r0, #0
 8003ec2:	f7fc fd61 	bl	8000988 <__aeabi_fsub>
 8003ec6:	1c01      	adds	r1, r0, #0
 8003ec8:	6020      	str	r0, [r4, #0]
 8003eca:	1c28      	adds	r0, r5, #0
 8003ecc:	f7fc fd5c 	bl	8000988 <__aeabi_fsub>
 8003ed0:	498a      	ldr	r1, [pc, #552]	; (80040fc <__ieee754_rem_pio2f+0x29c>)
 8003ed2:	e7ea      	b.n	8003eaa <__ieee754_rem_pio2f+0x4a>
 8003ed4:	f7fc f9e4 	bl	80002a0 <__aeabi_fadd>
 8003ed8:	1c07      	adds	r7, r0, #0
 8003eda:	42b5      	cmp	r5, r6
 8003edc:	d00e      	beq.n	8003efc <__ieee754_rem_pio2f+0x9c>
 8003ede:	4985      	ldr	r1, [pc, #532]	; (80040f4 <__ieee754_rem_pio2f+0x294>)
 8003ee0:	f7fc f9de 	bl	80002a0 <__aeabi_fadd>
 8003ee4:	1c01      	adds	r1, r0, #0
 8003ee6:	6020      	str	r0, [r4, #0]
 8003ee8:	1c38      	adds	r0, r7, #0
 8003eea:	f7fc fd4d 	bl	8000988 <__aeabi_fsub>
 8003eee:	4981      	ldr	r1, [pc, #516]	; (80040f4 <__ieee754_rem_pio2f+0x294>)
 8003ef0:	f7fc f9d6 	bl	80002a0 <__aeabi_fadd>
 8003ef4:	2701      	movs	r7, #1
 8003ef6:	6060      	str	r0, [r4, #4]
 8003ef8:	427f      	negs	r7, r7
 8003efa:	e7da      	b.n	8003eb2 <__ieee754_rem_pio2f+0x52>
 8003efc:	497e      	ldr	r1, [pc, #504]	; (80040f8 <__ieee754_rem_pio2f+0x298>)
 8003efe:	f7fc f9cf 	bl	80002a0 <__aeabi_fadd>
 8003f02:	497e      	ldr	r1, [pc, #504]	; (80040fc <__ieee754_rem_pio2f+0x29c>)
 8003f04:	1c05      	adds	r5, r0, #0
 8003f06:	f7fc f9cb 	bl	80002a0 <__aeabi_fadd>
 8003f0a:	1c01      	adds	r1, r0, #0
 8003f0c:	6020      	str	r0, [r4, #0]
 8003f0e:	1c28      	adds	r0, r5, #0
 8003f10:	f7fc fd3a 	bl	8000988 <__aeabi_fsub>
 8003f14:	4979      	ldr	r1, [pc, #484]	; (80040fc <__ieee754_rem_pio2f+0x29c>)
 8003f16:	e7eb      	b.n	8003ef0 <__ieee754_rem_pio2f+0x90>
 8003f18:	4b79      	ldr	r3, [pc, #484]	; (8004100 <__ieee754_rem_pio2f+0x2a0>)
 8003f1a:	429d      	cmp	r5, r3
 8003f1c:	dd00      	ble.n	8003f20 <__ieee754_rem_pio2f+0xc0>
 8003f1e:	e091      	b.n	8004044 <__ieee754_rem_pio2f+0x1e4>
 8003f20:	f000 fc96 	bl	8004850 <fabsf>
 8003f24:	4977      	ldr	r1, [pc, #476]	; (8004104 <__ieee754_rem_pio2f+0x2a4>)
 8003f26:	1c06      	adds	r6, r0, #0
 8003f28:	f7fc fc08 	bl	800073c <__aeabi_fmul>
 8003f2c:	21fc      	movs	r1, #252	; 0xfc
 8003f2e:	0589      	lsls	r1, r1, #22
 8003f30:	f7fc f9b6 	bl	80002a0 <__aeabi_fadd>
 8003f34:	f7fc fed6 	bl	8000ce4 <__aeabi_f2iz>
 8003f38:	0007      	movs	r7, r0
 8003f3a:	f7fc fef3 	bl	8000d24 <__aeabi_i2f>
 8003f3e:	496c      	ldr	r1, [pc, #432]	; (80040f0 <__ieee754_rem_pio2f+0x290>)
 8003f40:	9003      	str	r0, [sp, #12]
 8003f42:	f7fc fbfb 	bl	800073c <__aeabi_fmul>
 8003f46:	1c01      	adds	r1, r0, #0
 8003f48:	1c30      	adds	r0, r6, #0
 8003f4a:	f7fc fd1d 	bl	8000988 <__aeabi_fsub>
 8003f4e:	4969      	ldr	r1, [pc, #420]	; (80040f4 <__ieee754_rem_pio2f+0x294>)
 8003f50:	9002      	str	r0, [sp, #8]
 8003f52:	9803      	ldr	r0, [sp, #12]
 8003f54:	f7fc fbf2 	bl	800073c <__aeabi_fmul>
 8003f58:	1c06      	adds	r6, r0, #0
 8003f5a:	2f1f      	cmp	r7, #31
 8003f5c:	dc0d      	bgt.n	8003f7a <__ieee754_rem_pio2f+0x11a>
 8003f5e:	23ff      	movs	r3, #255	; 0xff
 8003f60:	002a      	movs	r2, r5
 8003f62:	4969      	ldr	r1, [pc, #420]	; (8004108 <__ieee754_rem_pio2f+0x2a8>)
 8003f64:	439a      	bics	r2, r3
 8003f66:	1e7b      	subs	r3, r7, #1
 8003f68:	009b      	lsls	r3, r3, #2
 8003f6a:	585b      	ldr	r3, [r3, r1]
 8003f6c:	429a      	cmp	r2, r3
 8003f6e:	d004      	beq.n	8003f7a <__ieee754_rem_pio2f+0x11a>
 8003f70:	9802      	ldr	r0, [sp, #8]
 8003f72:	1c31      	adds	r1, r6, #0
 8003f74:	f7fc fd08 	bl	8000988 <__aeabi_fsub>
 8003f78:	e00c      	b.n	8003f94 <__ieee754_rem_pio2f+0x134>
 8003f7a:	9802      	ldr	r0, [sp, #8]
 8003f7c:	1c31      	adds	r1, r6, #0
 8003f7e:	f7fc fd03 	bl	8000988 <__aeabi_fsub>
 8003f82:	22ff      	movs	r2, #255	; 0xff
 8003f84:	15eb      	asrs	r3, r5, #23
 8003f86:	9304      	str	r3, [sp, #16]
 8003f88:	0dc3      	lsrs	r3, r0, #23
 8003f8a:	4013      	ands	r3, r2
 8003f8c:	9a04      	ldr	r2, [sp, #16]
 8003f8e:	1ad3      	subs	r3, r2, r3
 8003f90:	2b08      	cmp	r3, #8
 8003f92:	dc01      	bgt.n	8003f98 <__ieee754_rem_pio2f+0x138>
 8003f94:	6020      	str	r0, [r4, #0]
 8003f96:	e026      	b.n	8003fe6 <__ieee754_rem_pio2f+0x186>
 8003f98:	4957      	ldr	r1, [pc, #348]	; (80040f8 <__ieee754_rem_pio2f+0x298>)
 8003f9a:	9803      	ldr	r0, [sp, #12]
 8003f9c:	f7fc fbce 	bl	800073c <__aeabi_fmul>
 8003fa0:	1c06      	adds	r6, r0, #0
 8003fa2:	1c01      	adds	r1, r0, #0
 8003fa4:	9802      	ldr	r0, [sp, #8]
 8003fa6:	f7fc fcef 	bl	8000988 <__aeabi_fsub>
 8003faa:	1c01      	adds	r1, r0, #0
 8003fac:	1c05      	adds	r5, r0, #0
 8003fae:	9802      	ldr	r0, [sp, #8]
 8003fb0:	f7fc fcea 	bl	8000988 <__aeabi_fsub>
 8003fb4:	1c31      	adds	r1, r6, #0
 8003fb6:	f7fc fce7 	bl	8000988 <__aeabi_fsub>
 8003fba:	4950      	ldr	r1, [pc, #320]	; (80040fc <__ieee754_rem_pio2f+0x29c>)
 8003fbc:	1c06      	adds	r6, r0, #0
 8003fbe:	9803      	ldr	r0, [sp, #12]
 8003fc0:	f7fc fbbc 	bl	800073c <__aeabi_fmul>
 8003fc4:	1c31      	adds	r1, r6, #0
 8003fc6:	f7fc fcdf 	bl	8000988 <__aeabi_fsub>
 8003fca:	1c01      	adds	r1, r0, #0
 8003fcc:	1c06      	adds	r6, r0, #0
 8003fce:	1c28      	adds	r0, r5, #0
 8003fd0:	f7fc fcda 	bl	8000988 <__aeabi_fsub>
 8003fd4:	22ff      	movs	r2, #255	; 0xff
 8003fd6:	0dc3      	lsrs	r3, r0, #23
 8003fd8:	4013      	ands	r3, r2
 8003fda:	9a04      	ldr	r2, [sp, #16]
 8003fdc:	1ad3      	subs	r3, r2, r3
 8003fde:	2b19      	cmp	r3, #25
 8003fe0:	dc15      	bgt.n	800400e <__ieee754_rem_pio2f+0x1ae>
 8003fe2:	6020      	str	r0, [r4, #0]
 8003fe4:	9502      	str	r5, [sp, #8]
 8003fe6:	6825      	ldr	r5, [r4, #0]
 8003fe8:	9802      	ldr	r0, [sp, #8]
 8003fea:	1c29      	adds	r1, r5, #0
 8003fec:	f7fc fccc 	bl	8000988 <__aeabi_fsub>
 8003ff0:	1c31      	adds	r1, r6, #0
 8003ff2:	f7fc fcc9 	bl	8000988 <__aeabi_fsub>
 8003ff6:	9b05      	ldr	r3, [sp, #20]
 8003ff8:	6060      	str	r0, [r4, #4]
 8003ffa:	2b00      	cmp	r3, #0
 8003ffc:	db00      	blt.n	8004000 <__ieee754_rem_pio2f+0x1a0>
 8003ffe:	e758      	b.n	8003eb2 <__ieee754_rem_pio2f+0x52>
 8004000:	2380      	movs	r3, #128	; 0x80
 8004002:	061b      	lsls	r3, r3, #24
 8004004:	18ed      	adds	r5, r5, r3
 8004006:	18c0      	adds	r0, r0, r3
 8004008:	6025      	str	r5, [r4, #0]
 800400a:	6060      	str	r0, [r4, #4]
 800400c:	e774      	b.n	8003ef8 <__ieee754_rem_pio2f+0x98>
 800400e:	493f      	ldr	r1, [pc, #252]	; (800410c <__ieee754_rem_pio2f+0x2ac>)
 8004010:	9803      	ldr	r0, [sp, #12]
 8004012:	f7fc fb93 	bl	800073c <__aeabi_fmul>
 8004016:	1c06      	adds	r6, r0, #0
 8004018:	1c01      	adds	r1, r0, #0
 800401a:	1c28      	adds	r0, r5, #0
 800401c:	f7fc fcb4 	bl	8000988 <__aeabi_fsub>
 8004020:	1c01      	adds	r1, r0, #0
 8004022:	9002      	str	r0, [sp, #8]
 8004024:	1c28      	adds	r0, r5, #0
 8004026:	f7fc fcaf 	bl	8000988 <__aeabi_fsub>
 800402a:	1c31      	adds	r1, r6, #0
 800402c:	f7fc fcac 	bl	8000988 <__aeabi_fsub>
 8004030:	4937      	ldr	r1, [pc, #220]	; (8004110 <__ieee754_rem_pio2f+0x2b0>)
 8004032:	1c05      	adds	r5, r0, #0
 8004034:	9803      	ldr	r0, [sp, #12]
 8004036:	f7fc fb81 	bl	800073c <__aeabi_fmul>
 800403a:	1c29      	adds	r1, r5, #0
 800403c:	f7fc fca4 	bl	8000988 <__aeabi_fsub>
 8004040:	1c06      	adds	r6, r0, #0
 8004042:	e795      	b.n	8003f70 <__ieee754_rem_pio2f+0x110>
 8004044:	23ff      	movs	r3, #255	; 0xff
 8004046:	05db      	lsls	r3, r3, #23
 8004048:	429d      	cmp	r5, r3
 800404a:	db05      	blt.n	8004058 <__ieee754_rem_pio2f+0x1f8>
 800404c:	1c01      	adds	r1, r0, #0
 800404e:	f7fc fc9b 	bl	8000988 <__aeabi_fsub>
 8004052:	6060      	str	r0, [r4, #4]
 8004054:	6020      	str	r0, [r4, #0]
 8004056:	e70f      	b.n	8003e78 <__ieee754_rem_pio2f+0x18>
 8004058:	15ee      	asrs	r6, r5, #23
 800405a:	3e86      	subs	r6, #134	; 0x86
 800405c:	05f3      	lsls	r3, r6, #23
 800405e:	1aed      	subs	r5, r5, r3
 8004060:	1c28      	adds	r0, r5, #0
 8004062:	f7fc fe3f 	bl	8000ce4 <__aeabi_f2iz>
 8004066:	f7fc fe5d 	bl	8000d24 <__aeabi_i2f>
 800406a:	1c01      	adds	r1, r0, #0
 800406c:	9007      	str	r0, [sp, #28]
 800406e:	1c28      	adds	r0, r5, #0
 8004070:	f7fc fc8a 	bl	8000988 <__aeabi_fsub>
 8004074:	2187      	movs	r1, #135	; 0x87
 8004076:	05c9      	lsls	r1, r1, #23
 8004078:	f7fc fb60 	bl	800073c <__aeabi_fmul>
 800407c:	1c07      	adds	r7, r0, #0
 800407e:	f7fc fe31 	bl	8000ce4 <__aeabi_f2iz>
 8004082:	f7fc fe4f 	bl	8000d24 <__aeabi_i2f>
 8004086:	1c01      	adds	r1, r0, #0
 8004088:	9008      	str	r0, [sp, #32]
 800408a:	1c05      	adds	r5, r0, #0
 800408c:	1c38      	adds	r0, r7, #0
 800408e:	f7fc fc7b 	bl	8000988 <__aeabi_fsub>
 8004092:	2187      	movs	r1, #135	; 0x87
 8004094:	05c9      	lsls	r1, r1, #23
 8004096:	f7fc fb51 	bl	800073c <__aeabi_fmul>
 800409a:	2100      	movs	r1, #0
 800409c:	9009      	str	r0, [sp, #36]	; 0x24
 800409e:	f7fc f8d1 	bl	8000244 <__aeabi_fcmpeq>
 80040a2:	2303      	movs	r3, #3
 80040a4:	2800      	cmp	r0, #0
 80040a6:	d006      	beq.n	80040b6 <__ieee754_rem_pio2f+0x256>
 80040a8:	2100      	movs	r1, #0
 80040aa:	1c28      	adds	r0, r5, #0
 80040ac:	f7fc f8ca 	bl	8000244 <__aeabi_fcmpeq>
 80040b0:	4243      	negs	r3, r0
 80040b2:	4143      	adcs	r3, r0
 80040b4:	3301      	adds	r3, #1
 80040b6:	4a17      	ldr	r2, [pc, #92]	; (8004114 <__ieee754_rem_pio2f+0x2b4>)
 80040b8:	0021      	movs	r1, r4
 80040ba:	9201      	str	r2, [sp, #4]
 80040bc:	2202      	movs	r2, #2
 80040be:	a807      	add	r0, sp, #28
 80040c0:	9200      	str	r2, [sp, #0]
 80040c2:	0032      	movs	r2, r6
 80040c4:	f000 f8a8 	bl	8004218 <__kernel_rem_pio2f>
 80040c8:	9b05      	ldr	r3, [sp, #20]
 80040ca:	0007      	movs	r7, r0
 80040cc:	2b00      	cmp	r3, #0
 80040ce:	db00      	blt.n	80040d2 <__ieee754_rem_pio2f+0x272>
 80040d0:	e6ef      	b.n	8003eb2 <__ieee754_rem_pio2f+0x52>
 80040d2:	2280      	movs	r2, #128	; 0x80
 80040d4:	6823      	ldr	r3, [r4, #0]
 80040d6:	0612      	lsls	r2, r2, #24
 80040d8:	189b      	adds	r3, r3, r2
 80040da:	6023      	str	r3, [r4, #0]
 80040dc:	6863      	ldr	r3, [r4, #4]
 80040de:	189b      	adds	r3, r3, r2
 80040e0:	6063      	str	r3, [r4, #4]
 80040e2:	e709      	b.n	8003ef8 <__ieee754_rem_pio2f+0x98>
 80040e4:	3f490fd8 	.word	0x3f490fd8
 80040e8:	4016cbe3 	.word	0x4016cbe3
 80040ec:	3fc90fd0 	.word	0x3fc90fd0
 80040f0:	3fc90f80 	.word	0x3fc90f80
 80040f4:	37354443 	.word	0x37354443
 80040f8:	37354400 	.word	0x37354400
 80040fc:	2e85a308 	.word	0x2e85a308
 8004100:	43490f80 	.word	0x43490f80
 8004104:	3f22f984 	.word	0x3f22f984
 8004108:	08004ab4 	.word	0x08004ab4
 800410c:	2e85a300 	.word	0x2e85a300
 8004110:	248d3132 	.word	0x248d3132
 8004114:	08004b34 	.word	0x08004b34

08004118 <__kernel_cosf>:
 8004118:	23c8      	movs	r3, #200	; 0xc8
 800411a:	b5f7      	push	{r0, r1, r2, r4, r5, r6, r7, lr}
 800411c:	0044      	lsls	r4, r0, #1
 800411e:	1c06      	adds	r6, r0, #0
 8004120:	9101      	str	r1, [sp, #4]
 8004122:	0864      	lsrs	r4, r4, #1
 8004124:	059b      	lsls	r3, r3, #22
 8004126:	429c      	cmp	r4, r3
 8004128:	da03      	bge.n	8004132 <__kernel_cosf+0x1a>
 800412a:	f7fc fddb 	bl	8000ce4 <__aeabi_f2iz>
 800412e:	2800      	cmp	r0, #0
 8004130:	d05d      	beq.n	80041ee <__kernel_cosf+0xd6>
 8004132:	1c31      	adds	r1, r6, #0
 8004134:	1c30      	adds	r0, r6, #0
 8004136:	f7fc fb01 	bl	800073c <__aeabi_fmul>
 800413a:	21fc      	movs	r1, #252	; 0xfc
 800413c:	0589      	lsls	r1, r1, #22
 800413e:	1c05      	adds	r5, r0, #0
 8004140:	f7fc fafc 	bl	800073c <__aeabi_fmul>
 8004144:	492b      	ldr	r1, [pc, #172]	; (80041f4 <__kernel_cosf+0xdc>)
 8004146:	1c07      	adds	r7, r0, #0
 8004148:	1c28      	adds	r0, r5, #0
 800414a:	f7fc faf7 	bl	800073c <__aeabi_fmul>
 800414e:	492a      	ldr	r1, [pc, #168]	; (80041f8 <__kernel_cosf+0xe0>)
 8004150:	f7fc f8a6 	bl	80002a0 <__aeabi_fadd>
 8004154:	1c29      	adds	r1, r5, #0
 8004156:	f7fc faf1 	bl	800073c <__aeabi_fmul>
 800415a:	4928      	ldr	r1, [pc, #160]	; (80041fc <__kernel_cosf+0xe4>)
 800415c:	f7fc fc14 	bl	8000988 <__aeabi_fsub>
 8004160:	1c29      	adds	r1, r5, #0
 8004162:	f7fc faeb 	bl	800073c <__aeabi_fmul>
 8004166:	4926      	ldr	r1, [pc, #152]	; (8004200 <__kernel_cosf+0xe8>)
 8004168:	f7fc f89a 	bl	80002a0 <__aeabi_fadd>
 800416c:	1c29      	adds	r1, r5, #0
 800416e:	f7fc fae5 	bl	800073c <__aeabi_fmul>
 8004172:	4924      	ldr	r1, [pc, #144]	; (8004204 <__kernel_cosf+0xec>)
 8004174:	f7fc fc08 	bl	8000988 <__aeabi_fsub>
 8004178:	1c29      	adds	r1, r5, #0
 800417a:	f7fc fadf 	bl	800073c <__aeabi_fmul>
 800417e:	4922      	ldr	r1, [pc, #136]	; (8004208 <__kernel_cosf+0xf0>)
 8004180:	f7fc f88e 	bl	80002a0 <__aeabi_fadd>
 8004184:	1c29      	adds	r1, r5, #0
 8004186:	f7fc fad9 	bl	800073c <__aeabi_fmul>
 800418a:	1c29      	adds	r1, r5, #0
 800418c:	f7fc fad6 	bl	800073c <__aeabi_fmul>
 8004190:	9901      	ldr	r1, [sp, #4]
 8004192:	1c05      	adds	r5, r0, #0
 8004194:	1c30      	adds	r0, r6, #0
 8004196:	f7fc fad1 	bl	800073c <__aeabi_fmul>
 800419a:	1c01      	adds	r1, r0, #0
 800419c:	1c28      	adds	r0, r5, #0
 800419e:	f7fc fbf3 	bl	8000988 <__aeabi_fsub>
 80041a2:	4b1a      	ldr	r3, [pc, #104]	; (800420c <__kernel_cosf+0xf4>)
 80041a4:	1c05      	adds	r5, r0, #0
 80041a6:	429c      	cmp	r4, r3
 80041a8:	dc09      	bgt.n	80041be <__kernel_cosf+0xa6>
 80041aa:	1c01      	adds	r1, r0, #0
 80041ac:	1c38      	adds	r0, r7, #0
 80041ae:	f7fc fbeb 	bl	8000988 <__aeabi_fsub>
 80041b2:	1c01      	adds	r1, r0, #0
 80041b4:	20fe      	movs	r0, #254	; 0xfe
 80041b6:	0580      	lsls	r0, r0, #22
 80041b8:	f7fc fbe6 	bl	8000988 <__aeabi_fsub>
 80041bc:	bdfe      	pop	{r1, r2, r3, r4, r5, r6, r7, pc}
 80041be:	4b14      	ldr	r3, [pc, #80]	; (8004210 <__kernel_cosf+0xf8>)
 80041c0:	429c      	cmp	r4, r3
 80041c2:	dc12      	bgt.n	80041ea <__kernel_cosf+0xd2>
 80041c4:	23ff      	movs	r3, #255	; 0xff
 80041c6:	061b      	lsls	r3, r3, #24
 80041c8:	18e4      	adds	r4, r4, r3
 80041ca:	20fe      	movs	r0, #254	; 0xfe
 80041cc:	1c21      	adds	r1, r4, #0
 80041ce:	0580      	lsls	r0, r0, #22
 80041d0:	f7fc fbda 	bl	8000988 <__aeabi_fsub>
 80041d4:	1c21      	adds	r1, r4, #0
 80041d6:	1c06      	adds	r6, r0, #0
 80041d8:	1c38      	adds	r0, r7, #0
 80041da:	f7fc fbd5 	bl	8000988 <__aeabi_fsub>
 80041de:	1c29      	adds	r1, r5, #0
 80041e0:	f7fc fbd2 	bl	8000988 <__aeabi_fsub>
 80041e4:	1c01      	adds	r1, r0, #0
 80041e6:	1c30      	adds	r0, r6, #0
 80041e8:	e7e6      	b.n	80041b8 <__kernel_cosf+0xa0>
 80041ea:	4c0a      	ldr	r4, [pc, #40]	; (8004214 <__kernel_cosf+0xfc>)
 80041ec:	e7ed      	b.n	80041ca <__kernel_cosf+0xb2>
 80041ee:	20fe      	movs	r0, #254	; 0xfe
 80041f0:	0580      	lsls	r0, r0, #22
 80041f2:	e7e3      	b.n	80041bc <__kernel_cosf+0xa4>
 80041f4:	ad47d74e 	.word	0xad47d74e
 80041f8:	310f74f6 	.word	0x310f74f6
 80041fc:	3493f27c 	.word	0x3493f27c
 8004200:	37d00d01 	.word	0x37d00d01
 8004204:	3ab60b61 	.word	0x3ab60b61
 8004208:	3d2aaaab 	.word	0x3d2aaaab
 800420c:	3e999999 	.word	0x3e999999
 8004210:	3f480000 	.word	0x3f480000
 8004214:	3e900000 	.word	0x3e900000

08004218 <__kernel_rem_pio2f>:
 8004218:	b5f0      	push	{r4, r5, r6, r7, lr}
 800421a:	b0df      	sub	sp, #380	; 0x17c
 800421c:	9308      	str	r3, [sp, #32]
 800421e:	9b64      	ldr	r3, [sp, #400]	; 0x190
 8004220:	9207      	str	r2, [sp, #28]
 8004222:	009a      	lsls	r2, r3, #2
 8004224:	4bc8      	ldr	r3, [pc, #800]	; (8004548 <__kernel_rem_pio2f+0x330>)
 8004226:	900a      	str	r0, [sp, #40]	; 0x28
 8004228:	58d3      	ldr	r3, [r2, r3]
 800422a:	9103      	str	r1, [sp, #12]
 800422c:	9305      	str	r3, [sp, #20]
 800422e:	9b08      	ldr	r3, [sp, #32]
 8004230:	3b01      	subs	r3, #1
 8004232:	9306      	str	r3, [sp, #24]
 8004234:	2300      	movs	r3, #0
 8004236:	9302      	str	r3, [sp, #8]
 8004238:	9b07      	ldr	r3, [sp, #28]
 800423a:	3304      	adds	r3, #4
 800423c:	db07      	blt.n	800424e <__kernel_rem_pio2f+0x36>
 800423e:	2107      	movs	r1, #7
 8004240:	9b07      	ldr	r3, [sp, #28]
 8004242:	1eda      	subs	r2, r3, #3
 8004244:	17d3      	asrs	r3, r2, #31
 8004246:	400b      	ands	r3, r1
 8004248:	189b      	adds	r3, r3, r2
 800424a:	10db      	asrs	r3, r3, #3
 800424c:	9302      	str	r3, [sp, #8]
 800424e:	9b02      	ldr	r3, [sp, #8]
 8004250:	ae22      	add	r6, sp, #136	; 0x88
 8004252:	1c59      	adds	r1, r3, #1
 8004254:	00cb      	lsls	r3, r1, #3
 8004256:	9309      	str	r3, [sp, #36]	; 0x24
 8004258:	9a09      	ldr	r2, [sp, #36]	; 0x24
 800425a:	9b07      	ldr	r3, [sp, #28]
 800425c:	1a9b      	subs	r3, r3, r2
 800425e:	9301      	str	r3, [sp, #4]
 8004260:	9a06      	ldr	r2, [sp, #24]
 8004262:	9b02      	ldr	r3, [sp, #8]
 8004264:	1a9d      	subs	r5, r3, r2
 8004266:	002c      	movs	r4, r5
 8004268:	9b05      	ldr	r3, [sp, #20]
 800426a:	189f      	adds	r7, r3, r2
 800426c:	1b63      	subs	r3, r4, r5
 800426e:	429f      	cmp	r7, r3
 8004270:	da0d      	bge.n	800428e <__kernel_rem_pio2f+0x76>
 8004272:	9c08      	ldr	r4, [sp, #32]
 8004274:	af4a      	add	r7, sp, #296	; 0x128
 8004276:	9b08      	ldr	r3, [sp, #32]
 8004278:	9a05      	ldr	r2, [sp, #20]
 800427a:	1ae3      	subs	r3, r4, r3
 800427c:	429a      	cmp	r2, r3
 800427e:	db25      	blt.n	80042cc <__kernel_rem_pio2f+0xb4>
 8004280:	ab22      	add	r3, sp, #136	; 0x88
 8004282:	00a5      	lsls	r5, r4, #2
 8004284:	18ed      	adds	r5, r5, r3
 8004286:	2300      	movs	r3, #0
 8004288:	2600      	movs	r6, #0
 800428a:	9304      	str	r3, [sp, #16]
 800428c:	e016      	b.n	80042bc <__kernel_rem_pio2f+0xa4>
 800428e:	2000      	movs	r0, #0
 8004290:	2c00      	cmp	r4, #0
 8004292:	db04      	blt.n	800429e <__kernel_rem_pio2f+0x86>
 8004294:	9a65      	ldr	r2, [sp, #404]	; 0x194
 8004296:	00a3      	lsls	r3, r4, #2
 8004298:	58d0      	ldr	r0, [r2, r3]
 800429a:	f7fc fd43 	bl	8000d24 <__aeabi_i2f>
 800429e:	c601      	stmia	r6!, {r0}
 80042a0:	3401      	adds	r4, #1
 80042a2:	e7e3      	b.n	800426c <__kernel_rem_pio2f+0x54>
 80042a4:	9a0a      	ldr	r2, [sp, #40]	; 0x28
 80042a6:	00b3      	lsls	r3, r6, #2
 80042a8:	6829      	ldr	r1, [r5, #0]
 80042aa:	58d0      	ldr	r0, [r2, r3]
 80042ac:	f7fc fa46 	bl	800073c <__aeabi_fmul>
 80042b0:	1c01      	adds	r1, r0, #0
 80042b2:	9804      	ldr	r0, [sp, #16]
 80042b4:	f7fb fff4 	bl	80002a0 <__aeabi_fadd>
 80042b8:	3601      	adds	r6, #1
 80042ba:	9004      	str	r0, [sp, #16]
 80042bc:	9b06      	ldr	r3, [sp, #24]
 80042be:	3d04      	subs	r5, #4
 80042c0:	429e      	cmp	r6, r3
 80042c2:	ddef      	ble.n	80042a4 <__kernel_rem_pio2f+0x8c>
 80042c4:	9b04      	ldr	r3, [sp, #16]
 80042c6:	3401      	adds	r4, #1
 80042c8:	c708      	stmia	r7!, {r3}
 80042ca:	e7d4      	b.n	8004276 <__kernel_rem_pio2f+0x5e>
 80042cc:	9b05      	ldr	r3, [sp, #20]
 80042ce:	aa0e      	add	r2, sp, #56	; 0x38
 80042d0:	009b      	lsls	r3, r3, #2
 80042d2:	189b      	adds	r3, r3, r2
 80042d4:	930c      	str	r3, [sp, #48]	; 0x30
 80042d6:	9b02      	ldr	r3, [sp, #8]
 80042d8:	9a65      	ldr	r2, [sp, #404]	; 0x194
 80042da:	009b      	lsls	r3, r3, #2
 80042dc:	18d3      	adds	r3, r2, r3
 80042de:	9e05      	ldr	r6, [sp, #20]
 80042e0:	930b      	str	r3, [sp, #44]	; 0x2c
 80042e2:	0035      	movs	r5, r6
 80042e4:	aa4a      	add	r2, sp, #296	; 0x128
 80042e6:	00b3      	lsls	r3, r6, #2
 80042e8:	af0e      	add	r7, sp, #56	; 0x38
 80042ea:	589c      	ldr	r4, [r3, r2]
 80042ec:	9702      	str	r7, [sp, #8]
 80042ee:	920d      	str	r2, [sp, #52]	; 0x34
 80042f0:	2d00      	cmp	r5, #0
 80042f2:	dc64      	bgt.n	80043be <__kernel_rem_pio2f+0x1a6>
 80042f4:	9901      	ldr	r1, [sp, #4]
 80042f6:	1c20      	adds	r0, r4, #0
 80042f8:	f000 faec 	bl	80048d4 <scalbnf>
 80042fc:	21f8      	movs	r1, #248	; 0xf8
 80042fe:	0589      	lsls	r1, r1, #22
 8004300:	1c04      	adds	r4, r0, #0
 8004302:	f7fc fa1b 	bl	800073c <__aeabi_fmul>
 8004306:	f000 faa7 	bl	8004858 <floorf>
 800430a:	2182      	movs	r1, #130	; 0x82
 800430c:	05c9      	lsls	r1, r1, #23
 800430e:	f7fc fa15 	bl	800073c <__aeabi_fmul>
 8004312:	1c01      	adds	r1, r0, #0
 8004314:	1c20      	adds	r0, r4, #0
 8004316:	f7fc fb37 	bl	8000988 <__aeabi_fsub>
 800431a:	1c04      	adds	r4, r0, #0
 800431c:	f7fc fce2 	bl	8000ce4 <__aeabi_f2iz>
 8004320:	9004      	str	r0, [sp, #16]
 8004322:	f7fc fcff 	bl	8000d24 <__aeabi_i2f>
 8004326:	1c01      	adds	r1, r0, #0
 8004328:	1c20      	adds	r0, r4, #0
 800432a:	f7fc fb2d 	bl	8000988 <__aeabi_fsub>
 800432e:	9b01      	ldr	r3, [sp, #4]
 8004330:	1c04      	adds	r4, r0, #0
 8004332:	2b00      	cmp	r3, #0
 8004334:	dd63      	ble.n	80043fe <__kernel_rem_pio2f+0x1e6>
 8004336:	2108      	movs	r1, #8
 8004338:	1e73      	subs	r3, r6, #1
 800433a:	009b      	lsls	r3, r3, #2
 800433c:	aa0e      	add	r2, sp, #56	; 0x38
 800433e:	589a      	ldr	r2, [r3, r2]
 8004340:	9801      	ldr	r0, [sp, #4]
 8004342:	9d04      	ldr	r5, [sp, #16]
 8004344:	1a09      	subs	r1, r1, r0
 8004346:	0010      	movs	r0, r2
 8004348:	4108      	asrs	r0, r1
 800434a:	182d      	adds	r5, r5, r0
 800434c:	4088      	lsls	r0, r1
 800434e:	a90e      	add	r1, sp, #56	; 0x38
 8004350:	1a12      	subs	r2, r2, r0
 8004352:	505a      	str	r2, [r3, r1]
 8004354:	2307      	movs	r3, #7
 8004356:	9901      	ldr	r1, [sp, #4]
 8004358:	9504      	str	r5, [sp, #16]
 800435a:	1a5b      	subs	r3, r3, r1
 800435c:	411a      	asrs	r2, r3
 800435e:	9202      	str	r2, [sp, #8]
 8004360:	9b02      	ldr	r3, [sp, #8]
 8004362:	2b00      	cmp	r3, #0
 8004364:	dd5c      	ble.n	8004420 <__kernel_rem_pio2f+0x208>
 8004366:	9b04      	ldr	r3, [sp, #16]
 8004368:	2200      	movs	r2, #0
 800436a:	3301      	adds	r3, #1
 800436c:	9304      	str	r3, [sp, #16]
 800436e:	2301      	movs	r3, #1
 8004370:	2080      	movs	r0, #128	; 0x80
 8004372:	0015      	movs	r5, r2
 8004374:	21ff      	movs	r1, #255	; 0xff
 8004376:	469c      	mov	ip, r3
 8004378:	0040      	lsls	r0, r0, #1
 800437a:	4296      	cmp	r6, r2
 800437c:	dd00      	ble.n	8004380 <__kernel_rem_pio2f+0x168>
 800437e:	e080      	b.n	8004482 <__kernel_rem_pio2f+0x26a>
 8004380:	9b01      	ldr	r3, [sp, #4]
 8004382:	2b00      	cmp	r3, #0
 8004384:	dd05      	ble.n	8004392 <__kernel_rem_pio2f+0x17a>
 8004386:	2b01      	cmp	r3, #1
 8004388:	d100      	bne.n	800438c <__kernel_rem_pio2f+0x174>
 800438a:	e08a      	b.n	80044a2 <__kernel_rem_pio2f+0x28a>
 800438c:	2b02      	cmp	r3, #2
 800438e:	d100      	bne.n	8004392 <__kernel_rem_pio2f+0x17a>
 8004390:	e092      	b.n	80044b8 <__kernel_rem_pio2f+0x2a0>
 8004392:	9b02      	ldr	r3, [sp, #8]
 8004394:	2b02      	cmp	r3, #2
 8004396:	d143      	bne.n	8004420 <__kernel_rem_pio2f+0x208>
 8004398:	20fe      	movs	r0, #254	; 0xfe
 800439a:	1c21      	adds	r1, r4, #0
 800439c:	0580      	lsls	r0, r0, #22
 800439e:	f7fc faf3 	bl	8000988 <__aeabi_fsub>
 80043a2:	1c04      	adds	r4, r0, #0
 80043a4:	2d00      	cmp	r5, #0
 80043a6:	d03b      	beq.n	8004420 <__kernel_rem_pio2f+0x208>
 80043a8:	20fe      	movs	r0, #254	; 0xfe
 80043aa:	9901      	ldr	r1, [sp, #4]
 80043ac:	0580      	lsls	r0, r0, #22
 80043ae:	f000 fa91 	bl	80048d4 <scalbnf>
 80043b2:	1c01      	adds	r1, r0, #0
 80043b4:	1c20      	adds	r0, r4, #0
 80043b6:	f7fc fae7 	bl	8000988 <__aeabi_fsub>
 80043ba:	1c04      	adds	r4, r0, #0
 80043bc:	e030      	b.n	8004420 <__kernel_rem_pio2f+0x208>
 80043be:	21ee      	movs	r1, #238	; 0xee
 80043c0:	1c20      	adds	r0, r4, #0
 80043c2:	0589      	lsls	r1, r1, #22
 80043c4:	f7fc f9ba 	bl	800073c <__aeabi_fmul>
 80043c8:	f7fc fc8c 	bl	8000ce4 <__aeabi_f2iz>
 80043cc:	f7fc fcaa 	bl	8000d24 <__aeabi_i2f>
 80043d0:	2187      	movs	r1, #135	; 0x87
 80043d2:	05c9      	lsls	r1, r1, #23
 80043d4:	9004      	str	r0, [sp, #16]
 80043d6:	f7fc f9b1 	bl	800073c <__aeabi_fmul>
 80043da:	1c01      	adds	r1, r0, #0
 80043dc:	1c20      	adds	r0, r4, #0
 80043de:	f7fc fad3 	bl	8000988 <__aeabi_fsub>
 80043e2:	f7fc fc7f 	bl	8000ce4 <__aeabi_f2iz>
 80043e6:	9b02      	ldr	r3, [sp, #8]
 80043e8:	9a0d      	ldr	r2, [sp, #52]	; 0x34
 80043ea:	c301      	stmia	r3!, {r0}
 80043ec:	3d01      	subs	r5, #1
 80043ee:	9302      	str	r3, [sp, #8]
 80043f0:	00ab      	lsls	r3, r5, #2
 80043f2:	5899      	ldr	r1, [r3, r2]
 80043f4:	9804      	ldr	r0, [sp, #16]
 80043f6:	f7fb ff53 	bl	80002a0 <__aeabi_fadd>
 80043fa:	1c04      	adds	r4, r0, #0
 80043fc:	e778      	b.n	80042f0 <__kernel_rem_pio2f+0xd8>
 80043fe:	9b01      	ldr	r3, [sp, #4]
 8004400:	2b00      	cmp	r3, #0
 8004402:	d106      	bne.n	8004412 <__kernel_rem_pio2f+0x1fa>
 8004404:	1e73      	subs	r3, r6, #1
 8004406:	009b      	lsls	r3, r3, #2
 8004408:	aa0e      	add	r2, sp, #56	; 0x38
 800440a:	5898      	ldr	r0, [r3, r2]
 800440c:	11c3      	asrs	r3, r0, #7
 800440e:	9302      	str	r3, [sp, #8]
 8004410:	e7a6      	b.n	8004360 <__kernel_rem_pio2f+0x148>
 8004412:	21fc      	movs	r1, #252	; 0xfc
 8004414:	0589      	lsls	r1, r1, #22
 8004416:	f7fb ff39 	bl	800028c <__aeabi_fcmpge>
 800441a:	2800      	cmp	r0, #0
 800441c:	d12e      	bne.n	800447c <__kernel_rem_pio2f+0x264>
 800441e:	9002      	str	r0, [sp, #8]
 8004420:	2100      	movs	r1, #0
 8004422:	1c20      	adds	r0, r4, #0
 8004424:	f7fb ff0e 	bl	8000244 <__aeabi_fcmpeq>
 8004428:	2800      	cmp	r0, #0
 800442a:	d100      	bne.n	800442e <__kernel_rem_pio2f+0x216>
 800442c:	e08e      	b.n	800454c <__kernel_rem_pio2f+0x334>
 800442e:	1e77      	subs	r7, r6, #1
 8004430:	003b      	movs	r3, r7
 8004432:	2200      	movs	r2, #0
 8004434:	9905      	ldr	r1, [sp, #20]
 8004436:	428b      	cmp	r3, r1
 8004438:	da45      	bge.n	80044c6 <__kernel_rem_pio2f+0x2ae>
 800443a:	2a00      	cmp	r2, #0
 800443c:	d05d      	beq.n	80044fa <__kernel_rem_pio2f+0x2e2>
 800443e:	9b01      	ldr	r3, [sp, #4]
 8004440:	aa0e      	add	r2, sp, #56	; 0x38
 8004442:	3b08      	subs	r3, #8
 8004444:	9301      	str	r3, [sp, #4]
 8004446:	00bb      	lsls	r3, r7, #2
 8004448:	589b      	ldr	r3, [r3, r2]
 800444a:	2b00      	cmp	r3, #0
 800444c:	d07a      	beq.n	8004544 <__kernel_rem_pio2f+0x32c>
 800444e:	20fe      	movs	r0, #254	; 0xfe
 8004450:	9901      	ldr	r1, [sp, #4]
 8004452:	0580      	lsls	r0, r0, #22
 8004454:	f000 fa3e 	bl	80048d4 <scalbnf>
 8004458:	003d      	movs	r5, r7
 800445a:	1c04      	adds	r4, r0, #0
 800445c:	2d00      	cmp	r5, #0
 800445e:	db00      	blt.n	8004462 <__kernel_rem_pio2f+0x24a>
 8004460:	e0ab      	b.n	80045ba <__kernel_rem_pio2f+0x3a2>
 8004462:	003c      	movs	r4, r7
 8004464:	2c00      	cmp	r4, #0
 8004466:	da00      	bge.n	800446a <__kernel_rem_pio2f+0x252>
 8004468:	e0d6      	b.n	8004618 <__kernel_rem_pio2f+0x400>
 800446a:	00a3      	lsls	r3, r4, #2
 800446c:	aa4a      	add	r2, sp, #296	; 0x128
 800446e:	189b      	adds	r3, r3, r2
 8004470:	9306      	str	r3, [sp, #24]
 8004472:	1b3b      	subs	r3, r7, r4
 8004474:	2600      	movs	r6, #0
 8004476:	2500      	movs	r5, #0
 8004478:	9301      	str	r3, [sp, #4]
 800447a:	e0bf      	b.n	80045fc <__kernel_rem_pio2f+0x3e4>
 800447c:	2302      	movs	r3, #2
 800447e:	9302      	str	r3, [sp, #8]
 8004480:	e771      	b.n	8004366 <__kernel_rem_pio2f+0x14e>
 8004482:	683b      	ldr	r3, [r7, #0]
 8004484:	2d00      	cmp	r5, #0
 8004486:	d108      	bne.n	800449a <__kernel_rem_pio2f+0x282>
 8004488:	2b00      	cmp	r3, #0
 800448a:	d002      	beq.n	8004492 <__kernel_rem_pio2f+0x27a>
 800448c:	1ac3      	subs	r3, r0, r3
 800448e:	603b      	str	r3, [r7, #0]
 8004490:	4663      	mov	r3, ip
 8004492:	001d      	movs	r5, r3
 8004494:	3201      	adds	r2, #1
 8004496:	3704      	adds	r7, #4
 8004498:	e76f      	b.n	800437a <__kernel_rem_pio2f+0x162>
 800449a:	1acb      	subs	r3, r1, r3
 800449c:	603b      	str	r3, [r7, #0]
 800449e:	002b      	movs	r3, r5
 80044a0:	e7f7      	b.n	8004492 <__kernel_rem_pio2f+0x27a>
 80044a2:	1e73      	subs	r3, r6, #1
 80044a4:	009b      	lsls	r3, r3, #2
 80044a6:	aa0e      	add	r2, sp, #56	; 0x38
 80044a8:	589a      	ldr	r2, [r3, r2]
 80044aa:	920d      	str	r2, [sp, #52]	; 0x34
 80044ac:	227f      	movs	r2, #127	; 0x7f
 80044ae:	990d      	ldr	r1, [sp, #52]	; 0x34
 80044b0:	400a      	ands	r2, r1
 80044b2:	a90e      	add	r1, sp, #56	; 0x38
 80044b4:	505a      	str	r2, [r3, r1]
 80044b6:	e76c      	b.n	8004392 <__kernel_rem_pio2f+0x17a>
 80044b8:	1e73      	subs	r3, r6, #1
 80044ba:	009b      	lsls	r3, r3, #2
 80044bc:	aa0e      	add	r2, sp, #56	; 0x38
 80044be:	589a      	ldr	r2, [r3, r2]
 80044c0:	920d      	str	r2, [sp, #52]	; 0x34
 80044c2:	223f      	movs	r2, #63	; 0x3f
 80044c4:	e7f3      	b.n	80044ae <__kernel_rem_pio2f+0x296>
 80044c6:	0099      	lsls	r1, r3, #2
 80044c8:	a80e      	add	r0, sp, #56	; 0x38
 80044ca:	5809      	ldr	r1, [r1, r0]
 80044cc:	3b01      	subs	r3, #1
 80044ce:	430a      	orrs	r2, r1
 80044d0:	e7b0      	b.n	8004434 <__kernel_rem_pio2f+0x21c>
 80044d2:	3301      	adds	r3, #1
 80044d4:	990c      	ldr	r1, [sp, #48]	; 0x30
 80044d6:	009a      	lsls	r2, r3, #2
 80044d8:	4252      	negs	r2, r2
 80044da:	588a      	ldr	r2, [r1, r2]
 80044dc:	2a00      	cmp	r2, #0
 80044de:	d0f8      	beq.n	80044d2 <__kernel_rem_pio2f+0x2ba>
 80044e0:	9a08      	ldr	r2, [sp, #32]
 80044e2:	18f3      	adds	r3, r6, r3
 80044e4:	18b4      	adds	r4, r6, r2
 80044e6:	00a4      	lsls	r4, r4, #2
 80044e8:	aa22      	add	r2, sp, #136	; 0x88
 80044ea:	1c75      	adds	r5, r6, #1
 80044ec:	1914      	adds	r4, r2, r4
 80044ee:	9302      	str	r3, [sp, #8]
 80044f0:	9b02      	ldr	r3, [sp, #8]
 80044f2:	42ab      	cmp	r3, r5
 80044f4:	da03      	bge.n	80044fe <__kernel_rem_pio2f+0x2e6>
 80044f6:	001e      	movs	r6, r3
 80044f8:	e6f3      	b.n	80042e2 <__kernel_rem_pio2f+0xca>
 80044fa:	2301      	movs	r3, #1
 80044fc:	e7ea      	b.n	80044d4 <__kernel_rem_pio2f+0x2bc>
 80044fe:	00ab      	lsls	r3, r5, #2
 8004500:	9304      	str	r3, [sp, #16]
 8004502:	9b0b      	ldr	r3, [sp, #44]	; 0x2c
 8004504:	00aa      	lsls	r2, r5, #2
 8004506:	5898      	ldr	r0, [r3, r2]
 8004508:	f7fc fc0c 	bl	8000d24 <__aeabi_i2f>
 800450c:	2700      	movs	r7, #0
 800450e:	2600      	movs	r6, #0
 8004510:	6020      	str	r0, [r4, #0]
 8004512:	9b06      	ldr	r3, [sp, #24]
 8004514:	429f      	cmp	r7, r3
 8004516:	dd07      	ble.n	8004528 <__kernel_rem_pio2f+0x310>
 8004518:	21f0      	movs	r1, #240	; 0xf0
 800451a:	9a04      	ldr	r2, [sp, #16]
 800451c:	ab0e      	add	r3, sp, #56	; 0x38
 800451e:	185b      	adds	r3, r3, r1
 8004520:	509e      	str	r6, [r3, r2]
 8004522:	3501      	adds	r5, #1
 8004524:	3404      	adds	r4, #4
 8004526:	e7e3      	b.n	80044f0 <__kernel_rem_pio2f+0x2d8>
 8004528:	00bb      	lsls	r3, r7, #2
 800452a:	425a      	negs	r2, r3
 800452c:	58a1      	ldr	r1, [r4, r2]
 800452e:	9a0a      	ldr	r2, [sp, #40]	; 0x28
 8004530:	3701      	adds	r7, #1
 8004532:	58d0      	ldr	r0, [r2, r3]
 8004534:	f7fc f902 	bl	800073c <__aeabi_fmul>
 8004538:	1c01      	adds	r1, r0, #0
 800453a:	1c30      	adds	r0, r6, #0
 800453c:	f7fb feb0 	bl	80002a0 <__aeabi_fadd>
 8004540:	1c06      	adds	r6, r0, #0
 8004542:	e7e6      	b.n	8004512 <__kernel_rem_pio2f+0x2fa>
 8004544:	3f01      	subs	r7, #1
 8004546:	e77a      	b.n	800443e <__kernel_rem_pio2f+0x226>
 8004548:	08004e78 	.word	0x08004e78
 800454c:	9b09      	ldr	r3, [sp, #36]	; 0x24
 800454e:	9a07      	ldr	r2, [sp, #28]
 8004550:	1c20      	adds	r0, r4, #0
 8004552:	1a99      	subs	r1, r3, r2
 8004554:	f000 f9be 	bl	80048d4 <scalbnf>
 8004558:	2187      	movs	r1, #135	; 0x87
 800455a:	05c9      	lsls	r1, r1, #23
 800455c:	1c04      	adds	r4, r0, #0
 800455e:	f7fb fe95 	bl	800028c <__aeabi_fcmpge>
 8004562:	2800      	cmp	r0, #0
 8004564:	d021      	beq.n	80045aa <__kernel_rem_pio2f+0x392>
 8004566:	21ee      	movs	r1, #238	; 0xee
 8004568:	1c20      	adds	r0, r4, #0
 800456a:	0589      	lsls	r1, r1, #22
 800456c:	f7fc f8e6 	bl	800073c <__aeabi_fmul>
 8004570:	f7fc fbb8 	bl	8000ce4 <__aeabi_f2iz>
 8004574:	f7fc fbd6 	bl	8000d24 <__aeabi_i2f>
 8004578:	2187      	movs	r1, #135	; 0x87
 800457a:	05c9      	lsls	r1, r1, #23
 800457c:	1c05      	adds	r5, r0, #0
 800457e:	f7fc f8dd 	bl	800073c <__aeabi_fmul>
 8004582:	1c01      	adds	r1, r0, #0
 8004584:	1c20      	adds	r0, r4, #0
 8004586:	f7fc f9ff 	bl	8000988 <__aeabi_fsub>
 800458a:	f7fc fbab 	bl	8000ce4 <__aeabi_f2iz>
 800458e:	00b7      	lsls	r7, r6, #2
 8004590:	ab0e      	add	r3, sp, #56	; 0x38
 8004592:	51d8      	str	r0, [r3, r7]
 8004594:	9b01      	ldr	r3, [sp, #4]
 8004596:	1c28      	adds	r0, r5, #0
 8004598:	3308      	adds	r3, #8
 800459a:	9301      	str	r3, [sp, #4]
 800459c:	f7fc fba2 	bl	8000ce4 <__aeabi_f2iz>
 80045a0:	1c77      	adds	r7, r6, #1
 80045a2:	00bc      	lsls	r4, r7, #2
 80045a4:	ab0e      	add	r3, sp, #56	; 0x38
 80045a6:	5118      	str	r0, [r3, r4]
 80045a8:	e751      	b.n	800444e <__kernel_rem_pio2f+0x236>
 80045aa:	1c20      	adds	r0, r4, #0
 80045ac:	f7fc fb9a 	bl	8000ce4 <__aeabi_f2iz>
 80045b0:	00b5      	lsls	r5, r6, #2
 80045b2:	ab0e      	add	r3, sp, #56	; 0x38
 80045b4:	0037      	movs	r7, r6
 80045b6:	5158      	str	r0, [r3, r5]
 80045b8:	e749      	b.n	800444e <__kernel_rem_pio2f+0x236>
 80045ba:	ab0e      	add	r3, sp, #56	; 0x38
 80045bc:	00ae      	lsls	r6, r5, #2
 80045be:	58f0      	ldr	r0, [r6, r3]
 80045c0:	f7fc fbb0 	bl	8000d24 <__aeabi_i2f>
 80045c4:	1c21      	adds	r1, r4, #0
 80045c6:	f7fc f8b9 	bl	800073c <__aeabi_fmul>
 80045ca:	22f0      	movs	r2, #240	; 0xf0
 80045cc:	21ee      	movs	r1, #238	; 0xee
 80045ce:	ab0e      	add	r3, sp, #56	; 0x38
 80045d0:	189b      	adds	r3, r3, r2
 80045d2:	5198      	str	r0, [r3, r6]
 80045d4:	0589      	lsls	r1, r1, #22
 80045d6:	1c20      	adds	r0, r4, #0
 80045d8:	f7fc f8b0 	bl	800073c <__aeabi_fmul>
 80045dc:	3d01      	subs	r5, #1
 80045de:	1c04      	adds	r4, r0, #0
 80045e0:	e73c      	b.n	800445c <__kernel_rem_pio2f+0x244>
 80045e2:	9a06      	ldr	r2, [sp, #24]
 80045e4:	00ab      	lsls	r3, r5, #2
 80045e6:	58d1      	ldr	r1, [r2, r3]
 80045e8:	4a5e      	ldr	r2, [pc, #376]	; (8004764 <__kernel_rem_pio2f+0x54c>)
 80045ea:	3501      	adds	r5, #1
 80045ec:	5898      	ldr	r0, [r3, r2]
 80045ee:	f7fc f8a5 	bl	800073c <__aeabi_fmul>
 80045f2:	1c01      	adds	r1, r0, #0
 80045f4:	1c30      	adds	r0, r6, #0
 80045f6:	f7fb fe53 	bl	80002a0 <__aeabi_fadd>
 80045fa:	1c06      	adds	r6, r0, #0
 80045fc:	9b05      	ldr	r3, [sp, #20]
 80045fe:	429d      	cmp	r5, r3
 8004600:	dc02      	bgt.n	8004608 <__kernel_rem_pio2f+0x3f0>
 8004602:	9b01      	ldr	r3, [sp, #4]
 8004604:	429d      	cmp	r5, r3
 8004606:	ddec      	ble.n	80045e2 <__kernel_rem_pio2f+0x3ca>
 8004608:	21a0      	movs	r1, #160	; 0xa0
 800460a:	9b01      	ldr	r3, [sp, #4]
 800460c:	aa0e      	add	r2, sp, #56	; 0x38
 800460e:	009b      	lsls	r3, r3, #2
 8004610:	1852      	adds	r2, r2, r1
 8004612:	50d6      	str	r6, [r2, r3]
 8004614:	3c01      	subs	r4, #1
 8004616:	e725      	b.n	8004464 <__kernel_rem_pio2f+0x24c>
 8004618:	9b64      	ldr	r3, [sp, #400]	; 0x190
 800461a:	2b02      	cmp	r3, #2
 800461c:	dc08      	bgt.n	8004630 <__kernel_rem_pio2f+0x418>
 800461e:	2b00      	cmp	r3, #0
 8004620:	dc5a      	bgt.n	80046d8 <__kernel_rem_pio2f+0x4c0>
 8004622:	d035      	beq.n	8004690 <__kernel_rem_pio2f+0x478>
 8004624:	2007      	movs	r0, #7
 8004626:	9b04      	ldr	r3, [sp, #16]
 8004628:	4003      	ands	r3, r0
 800462a:	0018      	movs	r0, r3
 800462c:	b05f      	add	sp, #380	; 0x17c
 800462e:	bdf0      	pop	{r4, r5, r6, r7, pc}
 8004630:	9b64      	ldr	r3, [sp, #400]	; 0x190
 8004632:	2b03      	cmp	r3, #3
 8004634:	d1f6      	bne.n	8004624 <__kernel_rem_pio2f+0x40c>
 8004636:	00bb      	lsls	r3, r7, #2
 8004638:	aa36      	add	r2, sp, #216	; 0xd8
 800463a:	18d5      	adds	r5, r2, r3
 800463c:	002c      	movs	r4, r5
 800463e:	9701      	str	r7, [sp, #4]
 8004640:	9b01      	ldr	r3, [sp, #4]
 8004642:	3c04      	subs	r4, #4
 8004644:	2b00      	cmp	r3, #0
 8004646:	dc51      	bgt.n	80046ec <__kernel_rem_pio2f+0x4d4>
 8004648:	9701      	str	r7, [sp, #4]
 800464a:	9b01      	ldr	r3, [sp, #4]
 800464c:	3d04      	subs	r5, #4
 800464e:	2b01      	cmp	r3, #1
 8004650:	dc62      	bgt.n	8004718 <__kernel_rem_pio2f+0x500>
 8004652:	2000      	movs	r0, #0
 8004654:	ac36      	add	r4, sp, #216	; 0xd8
 8004656:	2f01      	cmp	r7, #1
 8004658:	dc73      	bgt.n	8004742 <__kernel_rem_pio2f+0x52a>
 800465a:	9902      	ldr	r1, [sp, #8]
 800465c:	9a36      	ldr	r2, [sp, #216]	; 0xd8
 800465e:	6863      	ldr	r3, [r4, #4]
 8004660:	2900      	cmp	r1, #0
 8004662:	d174      	bne.n	800474e <__kernel_rem_pio2f+0x536>
 8004664:	9903      	ldr	r1, [sp, #12]
 8004666:	604b      	str	r3, [r1, #4]
 8004668:	000b      	movs	r3, r1
 800466a:	600a      	str	r2, [r1, #0]
 800466c:	6098      	str	r0, [r3, #8]
 800466e:	e7d9      	b.n	8004624 <__kernel_rem_pio2f+0x40c>
 8004670:	00bb      	lsls	r3, r7, #2
 8004672:	5919      	ldr	r1, [r3, r4]
 8004674:	f7fb fe14 	bl	80002a0 <__aeabi_fadd>
 8004678:	3f01      	subs	r7, #1
 800467a:	2f00      	cmp	r7, #0
 800467c:	daf8      	bge.n	8004670 <__kernel_rem_pio2f+0x458>
 800467e:	9b02      	ldr	r3, [sp, #8]
 8004680:	2b00      	cmp	r3, #0
 8004682:	d002      	beq.n	800468a <__kernel_rem_pio2f+0x472>
 8004684:	2380      	movs	r3, #128	; 0x80
 8004686:	061b      	lsls	r3, r3, #24
 8004688:	18c0      	adds	r0, r0, r3
 800468a:	9b03      	ldr	r3, [sp, #12]
 800468c:	6018      	str	r0, [r3, #0]
 800468e:	e7c9      	b.n	8004624 <__kernel_rem_pio2f+0x40c>
 8004690:	2000      	movs	r0, #0
 8004692:	ac36      	add	r4, sp, #216	; 0xd8
 8004694:	e7f1      	b.n	800467a <__kernel_rem_pio2f+0x462>
 8004696:	00a3      	lsls	r3, r4, #2
 8004698:	5959      	ldr	r1, [r3, r5]
 800469a:	f7fb fe01 	bl	80002a0 <__aeabi_fadd>
 800469e:	3c01      	subs	r4, #1
 80046a0:	2c00      	cmp	r4, #0
 80046a2:	daf8      	bge.n	8004696 <__kernel_rem_pio2f+0x47e>
 80046a4:	9a02      	ldr	r2, [sp, #8]
 80046a6:	1c03      	adds	r3, r0, #0
 80046a8:	2a00      	cmp	r2, #0
 80046aa:	d002      	beq.n	80046b2 <__kernel_rem_pio2f+0x49a>
 80046ac:	2380      	movs	r3, #128	; 0x80
 80046ae:	061b      	lsls	r3, r3, #24
 80046b0:	18c3      	adds	r3, r0, r3
 80046b2:	9a03      	ldr	r2, [sp, #12]
 80046b4:	1c01      	adds	r1, r0, #0
 80046b6:	6013      	str	r3, [r2, #0]
 80046b8:	9836      	ldr	r0, [sp, #216]	; 0xd8
 80046ba:	f7fc f965 	bl	8000988 <__aeabi_fsub>
 80046be:	2401      	movs	r4, #1
 80046c0:	ad36      	add	r5, sp, #216	; 0xd8
 80046c2:	42a7      	cmp	r7, r4
 80046c4:	da0c      	bge.n	80046e0 <__kernel_rem_pio2f+0x4c8>
 80046c6:	9b02      	ldr	r3, [sp, #8]
 80046c8:	2b00      	cmp	r3, #0
 80046ca:	d002      	beq.n	80046d2 <__kernel_rem_pio2f+0x4ba>
 80046cc:	2380      	movs	r3, #128	; 0x80
 80046ce:	061b      	lsls	r3, r3, #24
 80046d0:	18c0      	adds	r0, r0, r3
 80046d2:	9b03      	ldr	r3, [sp, #12]
 80046d4:	6058      	str	r0, [r3, #4]
 80046d6:	e7a5      	b.n	8004624 <__kernel_rem_pio2f+0x40c>
 80046d8:	003c      	movs	r4, r7
 80046da:	2000      	movs	r0, #0
 80046dc:	ad36      	add	r5, sp, #216	; 0xd8
 80046de:	e7df      	b.n	80046a0 <__kernel_rem_pio2f+0x488>
 80046e0:	00a3      	lsls	r3, r4, #2
 80046e2:	5959      	ldr	r1, [r3, r5]
 80046e4:	f7fb fddc 	bl	80002a0 <__aeabi_fadd>
 80046e8:	3401      	adds	r4, #1
 80046ea:	e7ea      	b.n	80046c2 <__kernel_rem_pio2f+0x4aa>
 80046ec:	9b01      	ldr	r3, [sp, #4]
 80046ee:	6826      	ldr	r6, [r4, #0]
 80046f0:	3b01      	subs	r3, #1
 80046f2:	9301      	str	r3, [sp, #4]
 80046f4:	6863      	ldr	r3, [r4, #4]
 80046f6:	1c30      	adds	r0, r6, #0
 80046f8:	1c19      	adds	r1, r3, #0
 80046fa:	9305      	str	r3, [sp, #20]
 80046fc:	f7fb fdd0 	bl	80002a0 <__aeabi_fadd>
 8004700:	1c01      	adds	r1, r0, #0
 8004702:	9006      	str	r0, [sp, #24]
 8004704:	1c30      	adds	r0, r6, #0
 8004706:	f7fc f93f 	bl	8000988 <__aeabi_fsub>
 800470a:	9905      	ldr	r1, [sp, #20]
 800470c:	f7fb fdc8 	bl	80002a0 <__aeabi_fadd>
 8004710:	9b06      	ldr	r3, [sp, #24]
 8004712:	6060      	str	r0, [r4, #4]
 8004714:	6023      	str	r3, [r4, #0]
 8004716:	e793      	b.n	8004640 <__kernel_rem_pio2f+0x428>
 8004718:	682c      	ldr	r4, [r5, #0]
 800471a:	686e      	ldr	r6, [r5, #4]
 800471c:	9b01      	ldr	r3, [sp, #4]
 800471e:	1c31      	adds	r1, r6, #0
 8004720:	3b01      	subs	r3, #1
 8004722:	1c20      	adds	r0, r4, #0
 8004724:	9301      	str	r3, [sp, #4]
 8004726:	f7fb fdbb 	bl	80002a0 <__aeabi_fadd>
 800472a:	1c01      	adds	r1, r0, #0
 800472c:	9005      	str	r0, [sp, #20]
 800472e:	1c20      	adds	r0, r4, #0
 8004730:	f7fc f92a 	bl	8000988 <__aeabi_fsub>
 8004734:	1c31      	adds	r1, r6, #0
 8004736:	f7fb fdb3 	bl	80002a0 <__aeabi_fadd>
 800473a:	9b05      	ldr	r3, [sp, #20]
 800473c:	6068      	str	r0, [r5, #4]
 800473e:	602b      	str	r3, [r5, #0]
 8004740:	e783      	b.n	800464a <__kernel_rem_pio2f+0x432>
 8004742:	00bb      	lsls	r3, r7, #2
 8004744:	58e1      	ldr	r1, [r4, r3]
 8004746:	f7fb fdab 	bl	80002a0 <__aeabi_fadd>
 800474a:	3f01      	subs	r7, #1
 800474c:	e783      	b.n	8004656 <__kernel_rem_pio2f+0x43e>
 800474e:	2180      	movs	r1, #128	; 0x80
 8004750:	9c03      	ldr	r4, [sp, #12]
 8004752:	0609      	lsls	r1, r1, #24
 8004754:	185b      	adds	r3, r3, r1
 8004756:	1852      	adds	r2, r2, r1
 8004758:	6063      	str	r3, [r4, #4]
 800475a:	6022      	str	r2, [r4, #0]
 800475c:	0023      	movs	r3, r4
 800475e:	1840      	adds	r0, r0, r1
 8004760:	e784      	b.n	800466c <__kernel_rem_pio2f+0x454>
 8004762:	46c0      	nop			; (mov r8, r8)
 8004764:	08004e4c 	.word	0x08004e4c

08004768 <__kernel_sinf>:
 8004768:	b5f7      	push	{r0, r1, r2, r4, r5, r6, r7, lr}
 800476a:	9201      	str	r2, [sp, #4]
 800476c:	22c8      	movs	r2, #200	; 0xc8
 800476e:	0043      	lsls	r3, r0, #1
 8004770:	1c04      	adds	r4, r0, #0
 8004772:	9100      	str	r1, [sp, #0]
 8004774:	085b      	lsrs	r3, r3, #1
 8004776:	0592      	lsls	r2, r2, #22
 8004778:	4293      	cmp	r3, r2
 800477a:	da03      	bge.n	8004784 <__kernel_sinf+0x1c>
 800477c:	f7fc fab2 	bl	8000ce4 <__aeabi_f2iz>
 8004780:	2800      	cmp	r0, #0
 8004782:	d035      	beq.n	80047f0 <__kernel_sinf+0x88>
 8004784:	1c21      	adds	r1, r4, #0
 8004786:	1c20      	adds	r0, r4, #0
 8004788:	f7fb ffd8 	bl	800073c <__aeabi_fmul>
 800478c:	1c05      	adds	r5, r0, #0
 800478e:	1c01      	adds	r1, r0, #0
 8004790:	1c20      	adds	r0, r4, #0
 8004792:	f7fb ffd3 	bl	800073c <__aeabi_fmul>
 8004796:	4928      	ldr	r1, [pc, #160]	; (8004838 <__kernel_sinf+0xd0>)
 8004798:	1c06      	adds	r6, r0, #0
 800479a:	1c28      	adds	r0, r5, #0
 800479c:	f7fb ffce 	bl	800073c <__aeabi_fmul>
 80047a0:	4926      	ldr	r1, [pc, #152]	; (800483c <__kernel_sinf+0xd4>)
 80047a2:	f7fc f8f1 	bl	8000988 <__aeabi_fsub>
 80047a6:	1c29      	adds	r1, r5, #0
 80047a8:	f7fb ffc8 	bl	800073c <__aeabi_fmul>
 80047ac:	4924      	ldr	r1, [pc, #144]	; (8004840 <__kernel_sinf+0xd8>)
 80047ae:	f7fb fd77 	bl	80002a0 <__aeabi_fadd>
 80047b2:	1c29      	adds	r1, r5, #0
 80047b4:	f7fb ffc2 	bl	800073c <__aeabi_fmul>
 80047b8:	4922      	ldr	r1, [pc, #136]	; (8004844 <__kernel_sinf+0xdc>)
 80047ba:	f7fc f8e5 	bl	8000988 <__aeabi_fsub>
 80047be:	1c29      	adds	r1, r5, #0
 80047c0:	f7fb ffbc 	bl	800073c <__aeabi_fmul>
 80047c4:	4920      	ldr	r1, [pc, #128]	; (8004848 <__kernel_sinf+0xe0>)
 80047c6:	f7fb fd6b 	bl	80002a0 <__aeabi_fadd>
 80047ca:	9b01      	ldr	r3, [sp, #4]
 80047cc:	1c07      	adds	r7, r0, #0
 80047ce:	2b00      	cmp	r3, #0
 80047d0:	d110      	bne.n	80047f4 <__kernel_sinf+0x8c>
 80047d2:	1c01      	adds	r1, r0, #0
 80047d4:	1c28      	adds	r0, r5, #0
 80047d6:	f7fb ffb1 	bl	800073c <__aeabi_fmul>
 80047da:	491c      	ldr	r1, [pc, #112]	; (800484c <__kernel_sinf+0xe4>)
 80047dc:	f7fc f8d4 	bl	8000988 <__aeabi_fsub>
 80047e0:	1c31      	adds	r1, r6, #0
 80047e2:	f7fb ffab 	bl	800073c <__aeabi_fmul>
 80047e6:	1c01      	adds	r1, r0, #0
 80047e8:	1c20      	adds	r0, r4, #0
 80047ea:	f7fb fd59 	bl	80002a0 <__aeabi_fadd>
 80047ee:	1c04      	adds	r4, r0, #0
 80047f0:	1c20      	adds	r0, r4, #0
 80047f2:	bdfe      	pop	{r1, r2, r3, r4, r5, r6, r7, pc}
 80047f4:	21fc      	movs	r1, #252	; 0xfc
 80047f6:	9800      	ldr	r0, [sp, #0]
 80047f8:	0589      	lsls	r1, r1, #22
 80047fa:	f7fb ff9f 	bl	800073c <__aeabi_fmul>
 80047fe:	1c39      	adds	r1, r7, #0
 8004800:	9001      	str	r0, [sp, #4]
 8004802:	1c30      	adds	r0, r6, #0
 8004804:	f7fb ff9a 	bl	800073c <__aeabi_fmul>
 8004808:	1c01      	adds	r1, r0, #0
 800480a:	9801      	ldr	r0, [sp, #4]
 800480c:	f7fc f8bc 	bl	8000988 <__aeabi_fsub>
 8004810:	1c29      	adds	r1, r5, #0
 8004812:	f7fb ff93 	bl	800073c <__aeabi_fmul>
 8004816:	9900      	ldr	r1, [sp, #0]
 8004818:	f7fc f8b6 	bl	8000988 <__aeabi_fsub>
 800481c:	490b      	ldr	r1, [pc, #44]	; (800484c <__kernel_sinf+0xe4>)
 800481e:	1c05      	adds	r5, r0, #0
 8004820:	1c30      	adds	r0, r6, #0
 8004822:	f7fb ff8b 	bl	800073c <__aeabi_fmul>
 8004826:	1c01      	adds	r1, r0, #0
 8004828:	1c28      	adds	r0, r5, #0
 800482a:	f7fb fd39 	bl	80002a0 <__aeabi_fadd>
 800482e:	1c01      	adds	r1, r0, #0
 8004830:	1c20      	adds	r0, r4, #0
 8004832:	f7fc f8a9 	bl	8000988 <__aeabi_fsub>
 8004836:	e7da      	b.n	80047ee <__kernel_sinf+0x86>
 8004838:	2f2ec9d3 	.word	0x2f2ec9d3
 800483c:	32d72f34 	.word	0x32d72f34
 8004840:	3638ef1b 	.word	0x3638ef1b
 8004844:	39500d01 	.word	0x39500d01
 8004848:	3c088889 	.word	0x3c088889
 800484c:	3e2aaaab 	.word	0x3e2aaaab

08004850 <fabsf>:
 8004850:	0040      	lsls	r0, r0, #1
 8004852:	0840      	lsrs	r0, r0, #1
 8004854:	4770      	bx	lr
	...

08004858 <floorf>:
 8004858:	b570      	push	{r4, r5, r6, lr}
 800485a:	0045      	lsls	r5, r0, #1
 800485c:	086e      	lsrs	r6, r5, #1
 800485e:	0e2d      	lsrs	r5, r5, #24
 8004860:	3d7f      	subs	r5, #127	; 0x7f
 8004862:	0004      	movs	r4, r0
 8004864:	2d16      	cmp	r5, #22
 8004866:	dc24      	bgt.n	80048b2 <floorf+0x5a>
 8004868:	2d00      	cmp	r5, #0
 800486a:	da0e      	bge.n	800488a <floorf+0x32>
 800486c:	4916      	ldr	r1, [pc, #88]	; (80048c8 <floorf+0x70>)
 800486e:	f7fb fd17 	bl	80002a0 <__aeabi_fadd>
 8004872:	2100      	movs	r1, #0
 8004874:	f7fb fd00 	bl	8000278 <__aeabi_fcmpgt>
 8004878:	2800      	cmp	r0, #0
 800487a:	d004      	beq.n	8004886 <floorf+0x2e>
 800487c:	2c00      	cmp	r4, #0
 800487e:	da20      	bge.n	80048c2 <floorf+0x6a>
 8004880:	2e00      	cmp	r6, #0
 8004882:	d000      	beq.n	8004886 <floorf+0x2e>
 8004884:	4c11      	ldr	r4, [pc, #68]	; (80048cc <floorf+0x74>)
 8004886:	1c20      	adds	r0, r4, #0
 8004888:	e01a      	b.n	80048c0 <floorf+0x68>
 800488a:	4e11      	ldr	r6, [pc, #68]	; (80048d0 <floorf+0x78>)
 800488c:	412e      	asrs	r6, r5
 800488e:	4206      	tst	r6, r0
 8004890:	d016      	beq.n	80048c0 <floorf+0x68>
 8004892:	490d      	ldr	r1, [pc, #52]	; (80048c8 <floorf+0x70>)
 8004894:	f7fb fd04 	bl	80002a0 <__aeabi_fadd>
 8004898:	2100      	movs	r1, #0
 800489a:	f7fb fced 	bl	8000278 <__aeabi_fcmpgt>
 800489e:	2800      	cmp	r0, #0
 80048a0:	d0f1      	beq.n	8004886 <floorf+0x2e>
 80048a2:	2c00      	cmp	r4, #0
 80048a4:	da03      	bge.n	80048ae <floorf+0x56>
 80048a6:	2380      	movs	r3, #128	; 0x80
 80048a8:	041b      	lsls	r3, r3, #16
 80048aa:	412b      	asrs	r3, r5
 80048ac:	18e4      	adds	r4, r4, r3
 80048ae:	43b4      	bics	r4, r6
 80048b0:	e7e9      	b.n	8004886 <floorf+0x2e>
 80048b2:	23ff      	movs	r3, #255	; 0xff
 80048b4:	05db      	lsls	r3, r3, #23
 80048b6:	429e      	cmp	r6, r3
 80048b8:	d302      	bcc.n	80048c0 <floorf+0x68>
 80048ba:	1c01      	adds	r1, r0, #0
 80048bc:	f7fb fcf0 	bl	80002a0 <__aeabi_fadd>
 80048c0:	bd70      	pop	{r4, r5, r6, pc}
 80048c2:	2400      	movs	r4, #0
 80048c4:	e7df      	b.n	8004886 <floorf+0x2e>
 80048c6:	46c0      	nop			; (mov r8, r8)
 80048c8:	7149f2ca 	.word	0x7149f2ca
 80048cc:	bf800000 	.word	0xbf800000
 80048d0:	007fffff 	.word	0x007fffff

080048d4 <scalbnf>:
 80048d4:	0043      	lsls	r3, r0, #1
 80048d6:	b570      	push	{r4, r5, r6, lr}
 80048d8:	0002      	movs	r2, r0
 80048da:	000c      	movs	r4, r1
 80048dc:	085d      	lsrs	r5, r3, #1
 80048de:	2b00      	cmp	r3, #0
 80048e0:	d006      	beq.n	80048f0 <scalbnf+0x1c>
 80048e2:	21ff      	movs	r1, #255	; 0xff
 80048e4:	05c9      	lsls	r1, r1, #23
 80048e6:	428d      	cmp	r5, r1
 80048e8:	d303      	bcc.n	80048f2 <scalbnf+0x1e>
 80048ea:	1c01      	adds	r1, r0, #0
 80048ec:	f7fb fcd8 	bl	80002a0 <__aeabi_fadd>
 80048f0:	bd70      	pop	{r4, r5, r6, pc}
 80048f2:	4208      	tst	r0, r1
 80048f4:	d116      	bne.n	8004924 <scalbnf+0x50>
 80048f6:	2198      	movs	r1, #152	; 0x98
 80048f8:	05c9      	lsls	r1, r1, #23
 80048fa:	f7fb ff1f 	bl	800073c <__aeabi_fmul>
 80048fe:	4b1b      	ldr	r3, [pc, #108]	; (800496c <scalbnf+0x98>)
 8004900:	429c      	cmp	r4, r3
 8004902:	db29      	blt.n	8004958 <scalbnf+0x84>
 8004904:	0002      	movs	r2, r0
 8004906:	15c3      	asrs	r3, r0, #23
 8004908:	b2db      	uxtb	r3, r3
 800490a:	3b19      	subs	r3, #25
 800490c:	191b      	adds	r3, r3, r4
 800490e:	2bfe      	cmp	r3, #254	; 0xfe
 8004910:	dd0a      	ble.n	8004928 <scalbnf+0x54>
 8004912:	4b17      	ldr	r3, [pc, #92]	; (8004970 <scalbnf+0x9c>)
 8004914:	2800      	cmp	r0, #0
 8004916:	da00      	bge.n	800491a <scalbnf+0x46>
 8004918:	4b16      	ldr	r3, [pc, #88]	; (8004974 <scalbnf+0xa0>)
 800491a:	4915      	ldr	r1, [pc, #84]	; (8004970 <scalbnf+0x9c>)
 800491c:	1c18      	adds	r0, r3, #0
 800491e:	f7fb ff0d 	bl	800073c <__aeabi_fmul>
 8004922:	e7e5      	b.n	80048f0 <scalbnf+0x1c>
 8004924:	0e1b      	lsrs	r3, r3, #24
 8004926:	e7f1      	b.n	800490c <scalbnf+0x38>
 8004928:	2b00      	cmp	r3, #0
 800492a:	dd04      	ble.n	8004936 <scalbnf+0x62>
 800492c:	4812      	ldr	r0, [pc, #72]	; (8004978 <scalbnf+0xa4>)
 800492e:	4002      	ands	r2, r0
 8004930:	05d8      	lsls	r0, r3, #23
 8004932:	4310      	orrs	r0, r2
 8004934:	e7dc      	b.n	80048f0 <scalbnf+0x1c>
 8004936:	0019      	movs	r1, r3
 8004938:	3116      	adds	r1, #22
 800493a:	da0f      	bge.n	800495c <scalbnf+0x88>
 800493c:	4a0f      	ldr	r2, [pc, #60]	; (800497c <scalbnf+0xa8>)
 800493e:	0fc3      	lsrs	r3, r0, #31
 8004940:	4294      	cmp	r4, r2
 8004942:	dd05      	ble.n	8004950 <scalbnf+0x7c>
 8004944:	480a      	ldr	r0, [pc, #40]	; (8004970 <scalbnf+0x9c>)
 8004946:	2b00      	cmp	r3, #0
 8004948:	d000      	beq.n	800494c <scalbnf+0x78>
 800494a:	480a      	ldr	r0, [pc, #40]	; (8004974 <scalbnf+0xa0>)
 800494c:	4908      	ldr	r1, [pc, #32]	; (8004970 <scalbnf+0x9c>)
 800494e:	e7e6      	b.n	800491e <scalbnf+0x4a>
 8004950:	480b      	ldr	r0, [pc, #44]	; (8004980 <scalbnf+0xac>)
 8004952:	2b00      	cmp	r3, #0
 8004954:	d000      	beq.n	8004958 <scalbnf+0x84>
 8004956:	480b      	ldr	r0, [pc, #44]	; (8004984 <scalbnf+0xb0>)
 8004958:	4909      	ldr	r1, [pc, #36]	; (8004980 <scalbnf+0xac>)
 800495a:	e7e0      	b.n	800491e <scalbnf+0x4a>
 800495c:	21cc      	movs	r1, #204	; 0xcc
 800495e:	3319      	adds	r3, #25
 8004960:	05d8      	lsls	r0, r3, #23
 8004962:	4b05      	ldr	r3, [pc, #20]	; (8004978 <scalbnf+0xa4>)
 8004964:	0589      	lsls	r1, r1, #22
 8004966:	401a      	ands	r2, r3
 8004968:	4310      	orrs	r0, r2
 800496a:	e7d8      	b.n	800491e <scalbnf+0x4a>
 800496c:	ffff3cb0 	.word	0xffff3cb0
 8004970:	7149f2ca 	.word	0x7149f2ca
 8004974:	f149f2ca 	.word	0xf149f2ca
 8004978:	807fffff 	.word	0x807fffff
 800497c:	0000c350 	.word	0x0000c350
 8004980:	0da24260 	.word	0x0da24260
 8004984:	8da24260 	.word	0x8da24260

08004988 <__libc_init_array>:
 8004988:	b570      	push	{r4, r5, r6, lr}
 800498a:	2600      	movs	r6, #0
 800498c:	4d0c      	ldr	r5, [pc, #48]	; (80049c0 <__libc_init_array+0x38>)
 800498e:	4c0d      	ldr	r4, [pc, #52]	; (80049c4 <__libc_init_array+0x3c>)
 8004990:	1b64      	subs	r4, r4, r5
 8004992:	10a4      	asrs	r4, r4, #2
 8004994:	42a6      	cmp	r6, r4
 8004996:	d109      	bne.n	80049ac <__libc_init_array+0x24>
 8004998:	2600      	movs	r6, #0
 800499a:	f000 f821 	bl	80049e0 <_init>
 800499e:	4d0a      	ldr	r5, [pc, #40]	; (80049c8 <__libc_init_array+0x40>)
 80049a0:	4c0a      	ldr	r4, [pc, #40]	; (80049cc <__libc_init_array+0x44>)
 80049a2:	1b64      	subs	r4, r4, r5
 80049a4:	10a4      	asrs	r4, r4, #2
 80049a6:	42a6      	cmp	r6, r4
 80049a8:	d105      	bne.n	80049b6 <__libc_init_array+0x2e>
 80049aa:	bd70      	pop	{r4, r5, r6, pc}
 80049ac:	00b3      	lsls	r3, r6, #2
 80049ae:	58eb      	ldr	r3, [r5, r3]
 80049b0:	4798      	blx	r3
 80049b2:	3601      	adds	r6, #1
 80049b4:	e7ee      	b.n	8004994 <__libc_init_array+0xc>
 80049b6:	00b3      	lsls	r3, r6, #2
 80049b8:	58eb      	ldr	r3, [r5, r3]
 80049ba:	4798      	blx	r3
 80049bc:	3601      	adds	r6, #1
 80049be:	e7f2      	b.n	80049a6 <__libc_init_array+0x1e>
 80049c0:	08004e84 	.word	0x08004e84
 80049c4:	08004e84 	.word	0x08004e84
 80049c8:	08004e84 	.word	0x08004e84
 80049cc:	08004e8c 	.word	0x08004e8c

080049d0 <memset>:
 80049d0:	0003      	movs	r3, r0
 80049d2:	1882      	adds	r2, r0, r2
 80049d4:	4293      	cmp	r3, r2
 80049d6:	d100      	bne.n	80049da <memset+0xa>
 80049d8:	4770      	bx	lr
 80049da:	7019      	strb	r1, [r3, #0]
 80049dc:	3301      	adds	r3, #1
 80049de:	e7f9      	b.n	80049d4 <memset+0x4>

080049e0 <_init>:
 80049e0:	b5f8      	push	{r3, r4, r5, r6, r7, lr}
 80049e2:	46c0      	nop			; (mov r8, r8)
 80049e4:	bcf8      	pop	{r3, r4, r5, r6, r7}
 80049e6:	bc08      	pop	{r3}
 80049e8:	469e      	mov	lr, r3
 80049ea:	4770      	bx	lr

080049ec <_fini>:
 80049ec:	b5f8      	push	{r3, r4, r5, r6, r7, lr}
 80049ee:	46c0      	nop			; (mov r8, r8)
 80049f0:	bcf8      	pop	{r3, r4, r5, r6, r7}
 80049f2:	bc08      	pop	{r3}
 80049f4:	469e      	mov	lr, r3
 80049f6:	4770      	bx	lr
